(dp0
V\u5355\u4fa7\u8179\u80a1\u6c9f\u759d
p1
(dp2
S'February'
p3
(S'02'
p4
I0
tp5
sS'October'
p6
(S'10'
p7
I0
tp8
sS'March'
p9
(S'03'
p10
I0
tp11
sS'August'
p12
(S'08'
p13
I0
tp14
sS'May'
p15
(S'05'
p16
I1
tp17
sS'January'
p18
(S'01'
p19
I0
tp20
sS'June'
p21
(S'06'
p22
I0
tp23
sS'September'
p24
(S'09'
p25
I0
tp26
sS'April'
p27
(S'04'
p28
I0
tp29
sS'December'
p30
(S'12'
p31
I0
tp32
sS'July'
p33
(S'07'
p34
I0
tp35
sS'November'
p36
(S'11'
p37
I0
tp38
ssV\u75b1\u75b9\u6027\u54bd\u5ce1\u708e
p39
(dp40
S'February'
p41
(S'02'
p42
I0
tp43
sS'October'
p44
(S'10'
p45
I0
tp46
sS'March'
p47
(S'03'
p48
I0
tp49
sS'August'
p50
(S'08'
p51
I0
tp52
sS'May'
p53
(S'05'
p54
I1
tp55
sS'January'
p56
(S'01'
p57
I0
tp58
sS'June'
p59
(S'06'
p60
I0
tp61
sS'September'
p62
(S'09'
p63
I0
tp64
sS'April'
p65
(S'04'
p66
I1
tp67
sS'December'
p68
(S'12'
p69
I0
tp70
sS'November'
p71
(S'11'
p72
I1
tp73
sS'July'
p74
(S'07'
p75
I0
tp76
ssV\u6025\u6027\u5589\u652f\u6c14\u7ba1\u708e
p77
(dp78
S'February'
p79
(S'02'
p80
I0
tp81
sS'October'
p82
(S'10'
p83
I0
tp84
sS'March'
p85
(S'03'
p86
I1
tp87
sS'August'
p88
(S'08'
p89
I0
tp90
sS'May'
p91
(S'05'
p92
I0
tp93
sS'January'
p94
(S'01'
p95
I0
tp96
sS'June'
p97
(S'06'
p98
I0
tp99
sS'September'
p100
(S'09'
p101
I0
tp102
sS'April'
p103
(S'04'
p104
I0
tp105
sS'December'
p106
(S'12'
p107
I0
tp108
sS'July'
p109
(S'07'
p110
I0
tp111
sS'November'
p112
(S'11'
p113
I0
tp114
ssV\u80c3\u708e
p115
(dp116
S'February'
p117
(S'02'
p118
I3
tp119
sS'October'
p120
(S'10'
p121
I0
tp122
sS'March'
p123
(S'03'
p124
I9
tp125
sS'August'
p126
(S'08'
p127
I0
tp128
sS'May'
p129
(S'05'
p130
I8
tp131
sS'December'
p132
(S'12'
p133
I3
tp134
sS'June'
p135
(S'06'
p136
I0
tp137
sS'September'
p138
(S'09'
p139
I2
tp140
sS'April'
p141
(S'04'
p142
I6
tp143
sS'January'
p144
(S'01'
p145
I0
tp146
sS'November'
p147
(S'11'
p148
I5
tp149
sS'July'
p150
(S'07'
p151
I0
tp152
ssV\u652f\u6c14\u7ba1\u80ba\u708e
p153
(dp154
S'February'
p155
(S'02'
p156
I12
tp157
sS'October'
p158
(S'10'
p159
I0
tp160
sS'March'
p161
(S'03'
p162
I10
tp163
sS'August'
p164
(S'08'
p165
I0
tp166
sS'May'
p167
(S'05'
p168
I5
tp169
sS'December'
p170
(S'12'
p171
I35
tp172
sS'June'
p173
(S'06'
p174
I0
tp175
sS'September'
p176
(S'09'
p177
I1
tp178
sS'April'
p179
(S'04'
p180
I9
tp181
sS'January'
p182
(S'01'
p183
I22
tp184
sS'November'
p185
(S'11'
p186
I15
tp187
sS'July'
p188
(S'07'
p189
I0
tp190
ssV\u9aa8\u8f6f\u5316\u6027\u4f5d\u507b\u75c5
p191
(dp192
S'February'
p193
(S'02'
p194
I0
tp195
sS'October'
p196
(S'10'
p197
I0
tp198
sS'March'
p199
(S'03'
p200
I1
tp201
sS'August'
p202
(S'08'
p203
I0
tp204
sS'May'
p205
(S'05'
p206
I0
tp207
sS'January'
p208
(S'01'
p209
I0
tp210
sS'June'
p211
(S'06'
p212
I0
tp213
sS'September'
p214
(S'09'
p215
I0
tp216
sS'April'
p217
(S'04'
p218
I0
tp219
sS'December'
p220
(S'12'
p221
I0
tp222
sS'July'
p223
(S'07'
p224
I0
tp225
sS'November'
p226
(S'11'
p227
I0
tp228
ssV\u8170\u75db
p229
(dp230
S'February'
p231
(S'02'
p232
I0
tp233
sS'October'
p234
(S'10'
p235
I0
tp236
sS'March'
p237
(S'03'
p238
I0
tp239
sS'August'
p240
(S'08'
p241
I0
tp242
sS'May'
p243
(S'05'
p244
I0
tp245
sS'January'
p246
(S'01'
p247
I1
tp248
sS'June'
p249
(S'06'
p250
I0
tp251
sS'September'
p252
(S'09'
p253
I0
tp254
sS'April'
p255
(S'04'
p256
I0
tp257
sS'December'
p258
(S'12'
p259
I0
tp260
sS'July'
p261
(S'07'
p262
I0
tp263
sS'November'
p264
(S'11'
p265
I0
tp266
ssV\u9888\u6dcb\u5df4\u7ed3\u708e
p267
(dp268
S'February'
p269
(S'02'
p270
I2
tp271
sS'October'
p272
(S'10'
p273
I0
tp274
sS'March'
p275
(S'03'
p276
I0
tp277
sS'August'
p278
(S'08'
p279
I0
tp280
sS'May'
p281
(S'05'
p282
I1
tp283
sS'December'
p284
(S'12'
p285
I2
tp286
sS'June'
p287
(S'06'
p288
I0
tp289
sS'September'
p290
(S'09'
p291
I0
tp292
sS'April'
p293
(S'04'
p294
I0
tp295
sS'January'
p296
(S'01'
p297
I0
tp298
sS'July'
p299
(S'07'
p300
I0
tp301
sS'November'
p302
(S'11'
p303
I0
tp304
ssV\u54af\u8840
p305
(dp306
S'February'
p307
(S'02'
p308
I0
tp309
sS'October'
p310
(S'10'
p311
I0
tp312
sS'March'
p313
(S'03'
p314
I0
tp315
sS'August'
p316
(S'08'
p317
I0
tp318
sS'May'
p319
(S'05'
p320
I0
tp321
sS'December'
p322
(S'12'
p323
I1
tp324
sS'June'
p325
(S'06'
p326
I0
tp327
sS'September'
p328
(S'09'
p329
I0
tp330
sS'April'
p331
(S'04'
p332
I0
tp333
sS'January'
p334
(S'01'
p335
I0
tp336
sS'July'
p337
(S'07'
p338
I0
tp339
sS'November'
p340
(S'11'
p341
I0
tp342
ssV\u652f\u6c14\u7ba1\u5f02\u7269
p343
(dp344
S'February'
p345
(S'02'
p346
I0
tp347
sS'October'
p348
(S'10'
p349
I0
tp350
sS'March'
p351
(S'03'
p352
I0
tp353
sS'August'
p354
(S'08'
p355
I0
tp356
sg167
(S'05'
p357
I1
tp358
sS'January'
p359
(S'01'
p360
I0
tp361
sS'June'
p362
(S'06'
p363
I0
tp364
sS'September'
p365
(S'09'
p366
I0
tp367
sS'April'
p368
(S'04'
p369
I0
tp370
sS'December'
p371
(S'12'
p372
I0
tp373
sS'July'
p374
(S'07'
p375
I0
tp376
sS'November'
p377
(S'11'
p378
I0
tp379
ssV\u6655\u53a5
p380
(dp381
S'February'
p382
(S'02'
p383
I0
tp384
sS'October'
p385
(S'10'
p386
I0
tp387
sS'March'
p388
(S'03'
p389
I0
tp390
sS'August'
p391
(S'08'
p392
I0
tp393
sS'May'
p394
(S'05'
p395
I1
tp396
sS'January'
p397
(S'01'
p398
I0
tp399
sS'June'
p400
(S'06'
p401
I0
tp402
sS'September'
p403
(S'09'
p404
I0
tp405
sS'April'
p406
(S'04'
p407
I0
tp408
sS'December'
p409
(S'12'
p410
I0
tp411
sS'July'
p412
(S'07'
p413
I0
tp414
sS'November'
p415
(S'11'
p416
I0
tp417
ssV\u6c14\u7ba1\u708e
p418
(dp419
S'February'
p420
(S'02'
p421
I22
tp422
sS'October'
p423
(S'10'
p424
I0
tp425
sS'March'
p426
(S'03'
p427
I21
tp428
sS'August'
p429
(S'08'
p430
I0
tp431
sS'May'
p432
(S'05'
p433
I4
tp434
sS'December'
p435
(S'12'
p436
I66
tp437
sS'June'
p438
(S'06'
p439
I0
tp440
sS'September'
p441
(S'09'
p442
I0
tp443
sS'April'
p444
(S'04'
p445
I21
tp446
sS'January'
p447
(S'01'
p448
I27
tp449
sS'November'
p450
(S'11'
p451
I32
tp452
sS'July'
p453
(S'07'
p454
I0
tp455
ssV\u80f8\u95f7
p456
(dp457
S'February'
p458
(S'02'
p459
I0
tp460
sS'October'
p461
(S'10'
p462
I0
tp463
sS'March'
p464
(S'03'
p465
I2
tp466
sS'August'
p467
(S'08'
p468
I0
tp469
sS'May'
p470
(S'05'
p471
I2
tp472
sS'January'
p473
(S'01'
p474
I0
tp475
sS'June'
p476
(S'06'
p477
I0
tp478
sS'September'
p479
(S'09'
p480
I0
tp481
sS'April'
p482
(S'04'
p483
I2
tp484
sS'December'
p485
(S'12'
p486
I0
tp487
sS'July'
p488
(S'07'
p489
I0
tp490
sS'November'
p491
(S'11'
p492
I0
tp493
ssV\u6d41\u611f
p494
(dp495
S'February'
p496
(S'02'
p497
I0
tp498
sS'October'
p499
(S'10'
p500
I0
tp501
sS'March'
p502
(S'03'
p503
I0
tp504
sS'August'
p505
(S'08'
p506
I0
tp507
sS'May'
p508
(S'05'
p509
I0
tp510
sS'January'
p511
(S'01'
p512
I0
tp513
sS'June'
p514
(S'06'
p515
I0
tp516
sS'September'
p517
(S'09'
p518
I0
tp519
sS'April'
p520
(S'04'
p521
I0
tp522
sS'December'
p523
(S'12'
p524
I0
tp525
sS'November'
p526
(S'11'
p527
I1
tp528
sS'July'
p529
(S'07'
p530
I0
tp531
ssV\u54ee\u5598\u6027\u652f\u6c14\u7ba1\u708e
p532
(dp533
S'February'
p534
(S'02'
p535
I0
tp536
sS'October'
p537
(S'10'
p538
I0
tp539
sS'March'
p540
(S'03'
p541
I1
tp542
sS'August'
p543
(S'08'
p544
I0
tp545
sS'May'
p546
(S'05'
p547
I1
tp548
sS'January'
p549
(S'01'
p550
I0
tp551
sS'June'
p552
(S'06'
p553
I0
tp554
sS'September'
p555
(S'09'
p556
I0
tp557
sS'April'
p558
(S'04'
p559
I0
tp560
sS'December'
p561
(S'12'
p562
I0
tp563
sS'July'
p564
(S'07'
p565
I0
tp566
sS'November'
p567
(S'11'
p568
I0
tp569
ssV\u80a0\u75c9\u631b
p570
(dp571
S'February'
p572
(S'02'
p573
I0
tp574
sS'October'
p575
(S'10'
p576
I0
tp577
sS'March'
p578
(S'03'
p579
I6
tp580
sS'August'
p581
(S'08'
p582
I0
tp583
sS'May'
p584
(S'05'
p585
I2
tp586
sS'January'
p587
(S'01'
p588
I0
tp589
sS'June'
p590
(S'06'
p591
I0
tp592
sS'September'
p593
(S'09'
p594
I0
tp595
sS'April'
p596
(S'04'
p597
I3
tp598
sS'December'
p599
(S'12'
p600
I1
tp601
sS'July'
p602
(S'07'
p603
I0
tp604
sS'November'
p605
(S'11'
p606
I0
tp607
ssV\u5c3f\u75db
p608
(dp609
S'February'
p610
(S'02'
p611
I1
tp612
sS'October'
p613
(S'10'
p614
I0
tp615
sS'March'
p616
(S'03'
p617
I0
tp618
sS'August'
p619
(S'08'
p620
I0
tp621
sS'May'
p622
(S'05'
p623
I0
tp624
sS'January'
p625
(S'01'
p626
I0
tp627
sS'June'
p628
(S'06'
p629
I0
tp630
sS'September'
p631
(S'09'
p632
I0
tp633
sS'April'
p634
(S'04'
p635
I0
tp636
sS'December'
p637
(S'12'
p638
I0
tp639
sS'July'
p640
(S'07'
p641
I0
tp642
sS'November'
p643
(S'11'
p644
I0
tp645
ssV\u6025\u6027\u54bd\u708e
p646
(dp647
S'February'
p648
(S'02'
p649
I0
tp650
sS'October'
p651
(S'10'
p652
I0
tp653
sS'March'
p654
(S'03'
p655
I0
tp656
sS'August'
p657
(S'08'
p658
I0
tp659
sS'May'
p660
(S'05'
p661
I0
tp662
sS'December'
p663
(S'12'
p664
I1
tp665
sS'June'
p666
(S'06'
p667
I0
tp668
sS'September'
p669
(S'09'
p670
I0
tp671
sS'April'
p672
(S'04'
p673
I0
tp674
sS'January'
p675
(S'01'
p676
I0
tp677
sS'July'
p678
(S'07'
p679
I0
tp680
sS'November'
p681
(S'11'
p682
I0
tp683
ssV\u76ae\u75b9
p684
(dp685
S'February'
p686
(S'02'
p687
I0
tp688
sS'October'
p689
(S'10'
p690
I0
tp691
sS'March'
p692
(S'03'
p693
I1
tp694
sS'August'
p695
(S'08'
p696
I0
tp697
sS'May'
p698
(S'05'
p699
I0
tp700
sS'December'
p701
(S'12'
p702
I1
tp703
sS'June'
p704
(S'06'
p705
I0
tp706
sS'September'
p707
(S'09'
p708
I0
tp709
sS'April'
p710
(S'04'
p711
I0
tp712
sS'January'
p713
(S'01'
p714
I1
tp715
sS'November'
p716
(S'11'
p717
I1
tp718
sS'July'
p719
(S'07'
p720
I0
tp721
ssV\u53d1\u70ed
p722
(dp723
S'February'
p724
(S'02'
p725
I73
tp726
sS'October'
p727
(S'10'
p728
I0
tp729
sS'March'
p730
(S'03'
p731
I165
tp732
sS'August'
p733
(S'08'
p734
I0
tp735
sS'May'
p736
(g547
I35
tp737
sS'December'
p738
(S'12'
p739
I68
tp740
sS'June'
p741
(S'06'
p742
I0
tp743
sS'September'
p744
(S'09'
p745
I0
tp746
sS'April'
p747
(S'04'
p748
I98
tp749
sS'January'
p750
(g448
I71
tp751
sS'November'
p752
(S'11'
p753
I20
tp754
sS'July'
p755
(S'07'
p756
I0
tp757
ssV\u9611\u5c3e\u708e
p758
(dp759
S'February'
p760
(S'02'
p761
I0
tp762
sS'October'
p763
(S'10'
p764
I0
tp765
sS'March'
p766
(S'03'
p767
I0
tp768
sS'August'
p769
(S'08'
p770
I0
tp771
sg736
(S'05'
p772
I3
tp773
sS'January'
p774
(S'01'
p775
I0
tp776
sS'June'
p777
(S'06'
p778
I0
tp779
sS'September'
p780
(S'09'
p781
I0
tp782
sS'April'
p783
(S'04'
p784
I1
tp785
sS'December'
p786
(S'12'
p787
I0
tp788
sS'July'
p789
(S'07'
p790
I0
tp791
sS'November'
p792
(S'11'
p793
I0
tp794
ssV\u5fc3\u810f\u6742\u97f3
p795
(dp796
S'February'
p797
(S'02'
p798
I1
tp799
sS'October'
p800
(S'10'
p801
I0
tp802
sS'March'
p803
(S'03'
p804
I0
tp805
sS'August'
p806
(S'08'
p807
I0
tp808
sS'May'
p809
(S'05'
p810
I0
tp811
sS'January'
p812
(S'01'
p813
I0
tp814
sS'June'
p815
(S'06'
p816
I0
tp817
sS'September'
p818
(S'09'
p819
I0
tp820
sS'April'
p821
(S'04'
p822
I0
tp823
sS'December'
p824
(S'12'
p825
I0
tp826
sS'July'
p827
(S'07'
p828
I0
tp829
sS'November'
p830
(S'11'
p831
I0
tp832
ssV\u5598\u606f\u6027\u652f\u6c14\u7ba1\u80ba\u708e
p833
(dp834
S'February'
p835
(S'02'
p836
I1
tp837
sS'October'
p838
(S'10'
p839
I0
tp840
sS'March'
p841
(S'03'
p842
I1
tp843
sS'August'
p844
(S'08'
p845
I0
tp846
sS'May'
p847
(S'05'
p848
I0
tp849
sS'January'
p850
(S'01'
p851
I3
tp852
sS'June'
p853
(S'06'
p854
I0
tp855
sS'September'
p856
(S'09'
p857
I0
tp858
sS'April'
p859
(S'04'
p860
I0
tp861
sS'December'
p862
(S'12'
p863
I0
tp864
sS'July'
p865
(S'07'
p866
I0
tp867
sS'November'
p868
(S'11'
p869
I0
tp870
ssV\u5455\u5410
p871
(dp872
S'February'
p873
(S'02'
p874
I0
tp875
sS'October'
p876
(S'10'
p877
I0
tp878
sS'March'
p879
(S'03'
p880
I2
tp881
sS'August'
p882
(S'08'
p883
I0
tp884
sg736
(S'05'
p885
I2
tp886
sS'January'
p887
(S'01'
p888
I0
tp889
sS'June'
p890
(S'06'
p891
I0
tp892
sS'September'
p893
(S'09'
p894
I0
tp895
sS'April'
p896
(S'04'
p897
I0
tp898
sS'December'
p899
(S'12'
p900
I0
tp901
sS'November'
p902
(S'11'
p903
I2
tp904
sS'July'
p905
(S'07'
p906
I0
tp907
ssV\u7ec6\u83cc\u6027\u611f\u67d3
p908
(dp909
S'February'
p910
(g118
I1
tp911
sS'October'
p912
(S'10'
p913
I0
tp914
sS'March'
p915
(S'03'
p916
I11
tp917
sS'August'
p918
(S'08'
p919
I0
tp920
sS'May'
p921
(g282
I2
tp922
sS'January'
p923
(S'01'
p924
I7
tp925
sS'June'
p926
(S'06'
p927
I0
tp928
sS'September'
p929
(g139
I1
tp930
sS'April'
p931
(S'04'
p932
I7
tp933
sS'December'
p934
(S'12'
p935
I10
tp936
sS'November'
p937
(g753
I5
tp938
sS'July'
p939
(S'07'
p940
I0
tp941
ssV\u8840\u5c0f\u677f\u51cf\u5c11\u75c7
p942
(dp943
S'February'
p944
(S'02'
p945
I0
tp946
sS'October'
p947
(S'10'
p948
I0
tp949
sS'March'
p950
(S'03'
p951
I1
tp952
sS'August'
p953
(S'08'
p954
I0
tp955
sS'May'
p956
(S'05'
p957
I0
tp958
sS'January'
p959
(S'01'
p960
I0
tp961
sS'June'
p962
(S'06'
p963
I0
tp964
sS'September'
p965
(S'09'
p966
I0
tp967
sS'April'
p968
(S'04'
p969
I0
tp970
sS'December'
p971
(S'12'
p972
I0
tp973
sS'July'
p974
(S'07'
p975
I0
tp976
sS'November'
p977
(S'11'
p978
I0
tp979
ssV\u80f8\u75db
p980
(dp981
S'February'
p982
(S'02'
p983
I0
tp984
sS'October'
p985
(S'10'
p986
I0
tp987
sg915
(S'03'
p988
I2
tp989
sS'August'
p990
(S'08'
p991
I0
tp992
sS'April'
p993
(S'04'
p994
I0
tp995
sS'May'
p996
(g471
I1
tp997
sS'January'
p998
(S'01'
p999
I0
tp1000
sS'June'
p1001
(S'06'
p1002
I0
tp1003
sS'September'
p1004
(S'09'
p1005
I1
tp1006
sS'December'
p1007
(S'12'
p1008
I0
tp1009
sS'July'
p1010
(S'07'
p1011
I0
tp1012
sS'November'
p1013
(S'11'
p1014
I0
tp1015
ssV\u80c6\u7ed3\u77f3
p1016
(dp1017
S'February'
p1018
(S'02'
p1019
I0
tp1020
sS'October'
p1021
(S'10'
p1022
I0
tp1023
sS'March'
p1024
(S'03'
p1025
I1
tp1026
sS'August'
p1027
(S'08'
p1028
I0
tp1029
sS'May'
p1030
(S'05'
p1031
I0
tp1032
sS'January'
p1033
(S'01'
p1034
I0
tp1035
sS'June'
p1036
(S'06'
p1037
I0
tp1038
sS'September'
p1039
(S'09'
p1040
I0
tp1041
sS'April'
p1042
(S'04'
p1043
I0
tp1044
sS'December'
p1045
(S'12'
p1046
I0
tp1047
sS'July'
p1048
(S'07'
p1049
I0
tp1050
sS'November'
p1051
(S'11'
p1052
I0
tp1053
ssV\u652f\u6c14\u7ba1\u708e
p1054
(dp1055
g724
(S'02'
p1056
I22
tp1057
sS'October'
p1058
(S'10'
p1059
I0
tp1060
sg915
(g427
I35
tp1061
sS'August'
p1062
(S'08'
p1063
I0
tp1064
sS'May'
p1065
(g168
I13
tp1066
sS'December'
p1067
(g171
I83
tp1068
sS'June'
p1069
(S'06'
p1070
I0
tp1071
sS'September'
p1072
(S'09'
p1073
I0
tp1074
sS'April'
p1075
(g180
I41
tp1076
sg447
(S'01'
p1077
I106
tp1078
sS'November'
p1079
(g186
I29
tp1080
sS'July'
p1081
(S'07'
p1082
I0
tp1083
ssV\u7f3a\u9499
p1084
(dp1085
S'February'
p1086
(S'02'
p1087
I0
tp1088
sS'October'
p1089
(S'10'
p1090
I0
tp1091
sS'March'
p1092
(S'03'
p1093
I0
tp1094
sS'August'
p1095
(S'08'
p1096
I0
tp1097
sS'May'
p1098
(S'05'
p1099
I0
tp1100
sS'January'
p1101
(S'01'
p1102
I0
tp1103
sS'June'
p1104
(S'06'
p1105
I0
tp1106
sS'September'
p1107
(S'09'
p1108
I0
tp1109
sS'April'
p1110
(S'04'
p1111
I2
tp1112
sS'December'
p1113
(S'12'
p1114
I0
tp1115
sS'July'
p1116
(S'07'
p1117
I0
tp1118
sS'November'
p1119
(S'11'
p1120
I0
tp1121
ssV\u80c3\u80a0\u708e
p1122
(dp1123
S'February'
p1124
(S'02'
p1125
I5
tp1126
sS'October'
p1127
(S'10'
p1128
I0
tp1129
sS'March'
p1130
(S'03'
p1131
I5
tp1132
sS'August'
p1133
(S'08'
p1134
I0
tp1135
sg129
(S'05'
p1136
I11
tp1137
sS'January'
p1138
(S'01'
p1139
I4
tp1140
sS'June'
p1141
(S'06'
p1142
I0
tp1143
sS'September'
p1144
(S'09'
p1145
I0
tp1146
sS'April'
p1147
(S'04'
p1148
I12
tp1149
sS'December'
p1150
(S'12'
p1151
I0
tp1152
sS'November'
p1153
(g903
I1
tp1154
sS'July'
p1155
(S'07'
p1156
I0
tp1157
ssV\u9f3b\u8844
p1158
(dp1159
S'February'
p1160
(S'02'
p1161
I0
tp1162
sS'October'
p1163
(S'10'
p1164
I0
tp1165
sS'March'
p1166
(S'03'
p1167
I0
tp1168
sS'August'
p1169
(S'08'
p1170
I0
tp1171
sS'May'
p1172
(S'05'
p1173
I0
tp1174
sS'January'
p1175
(S'01'
p1176
I0
tp1177
sS'June'
p1178
(S'06'
p1179
I0
tp1180
sS'September'
p1181
(S'09'
p1182
I0
tp1183
sS'April'
p1184
(S'04'
p1185
I0
tp1186
sS'December'
p1187
(S'12'
p1188
I0
tp1189
sS'November'
p1190
(S'11'
p1191
I1
tp1192
sS'July'
p1193
(S'07'
p1194
I0
tp1195
ssV\u547c\u5438\u9053\u611f\u67d3
p1196
(dp1197
S'February'
p1198
(S'02'
p1199
I75
tp1200
sS'October'
p1201
(S'10'
p1202
I0
tp1203
sS'March'
p1204
(S'03'
p1205
I262
tp1206
sS'August'
p1207
(S'08'
p1208
I0
tp1209
sS'May'
p1210
(S'05'
p1211
I71
tp1212
sS'December'
p1213
(g739
I82
tp1214
sS'June'
p1215
(S'06'
p1216
I0
tp1217
sS'September'
p1218
(S'09'
p1219
I1
tp1220
sg747
(S'04'
p1221
I188
tp1222
sS'January'
p1223
(g1077
I108
tp1224
sg752
(g753
I50
tp1225
sS'July'
p1226
(S'07'
p1227
I0
tp1228
ssV\u4e4f\u529b
p1229
(dp1230
S'February'
p1231
(S'02'
p1232
I0
tp1233
sS'October'
p1234
(S'10'
p1235
I0
tp1236
sS'March'
p1237
(S'03'
p1238
I0
tp1239
sS'August'
p1240
(S'08'
p1241
I0
tp1242
sS'May'
p1243
(S'05'
p1244
I0
tp1245
sS'January'
p1246
(S'01'
p1247
I0
tp1248
sS'June'
p1249
(S'06'
p1250
I0
tp1251
sS'September'
p1252
(S'09'
p1253
I0
tp1254
sS'April'
p1255
(S'04'
p1256
I1
tp1257
sS'December'
p1258
(S'12'
p1259
I0
tp1260
sS'July'
p1261
(S'07'
p1262
I0
tp1263
sS'November'
p1264
(S'11'
p1265
I0
tp1266
ssV\u5598\u606f\u6027\u652f\u6c14\u7ba1\u708e
p1267
(dp1268
S'February'
p1269
(S'02'
p1270
I1
tp1271
sS'October'
p1272
(S'10'
p1273
I0
tp1274
sS'March'
p1275
(S'03'
p1276
I0
tp1277
sS'August'
p1278
(S'08'
p1279
I0
tp1280
sg1210
(S'05'
p1281
I3
tp1282
sS'December'
p1283
(S'12'
p1284
I4
tp1285
sS'June'
p1286
(S'06'
p1287
I0
tp1288
sS'September'
p1289
(S'09'
p1290
I0
tp1291
sg1255
(S'04'
p1292
I4
tp1293
sS'January'
p1294
(S'01'
p1295
I1
tp1296
sS'November'
p1297
(S'11'
p1298
I1
tp1299
sS'July'
p1300
(S'07'
p1301
I0
tp1302
ssV\u5e7d\u95e8\u87ba\u65cb\u6746\u83cc\u611f\u67d3
p1303
(dp1304
S'February'
p1305
(S'02'
p1306
I0
tp1307
sS'October'
p1308
(S'10'
p1309
I0
tp1310
sS'March'
p1311
(S'03'
p1312
I0
tp1313
sS'August'
p1314
(S'08'
p1315
I0
tp1316
sS'May'
p1317
(S'05'
p1318
I2
tp1319
sS'January'
p1320
(S'01'
p1321
I0
tp1322
sS'June'
p1323
(S'06'
p1324
I0
tp1325
sS'September'
p1326
(S'09'
p1327
I0
tp1328
sS'April'
p1329
(S'04'
p1330
I0
tp1331
sS'December'
p1332
(S'12'
p1333
I0
tp1334
sS'July'
p1335
(S'07'
p1336
I0
tp1337
sS'November'
p1338
(S'11'
p1339
I0
tp1340
ssV\u8179\u8154\u79ef\u6db2
p1341
(dp1342
S'February'
p1343
(S'02'
p1344
I0
tp1345
sS'October'
p1346
(S'10'
p1347
I0
tp1348
sS'March'
p1349
(S'03'
p1350
I1
tp1351
sS'August'
p1352
(S'08'
p1353
I0
tp1354
sS'May'
p1355
(S'05'
p1356
I0
tp1357
sS'January'
p1358
(S'01'
p1359
I0
tp1360
sS'June'
p1361
(S'06'
p1362
I0
tp1363
sS'September'
p1364
(S'09'
p1365
I0
tp1366
sS'April'
p1367
(S'04'
p1368
I0
tp1369
sS'December'
p1370
(S'12'
p1371
I0
tp1372
sS'July'
p1373
(S'07'
p1374
I0
tp1375
sS'November'
p1376
(S'11'
p1377
I0
tp1378
ssV\u6025\u6027\u7ec6\u83cc\u611f\u67d3
p1379
(dp1380
S'February'
p1381
(S'02'
p1382
I0
tp1383
sS'October'
p1384
(S'10'
p1385
I0
tp1386
sS'March'
p1387
(S'03'
p1388
I0
tp1389
sS'August'
p1390
(S'08'
p1391
I0
tp1392
sS'May'
p1393
(S'05'
p1394
I0
tp1395
sS'January'
p1396
(S'01'
p1397
I0
tp1398
sS'June'
p1399
(S'06'
p1400
I0
tp1401
sS'September'
p1402
(S'09'
p1403
I0
tp1404
sS'April'
p1405
(S'04'
p1406
I0
tp1407
sS'December'
p1408
(S'12'
p1409
I0
tp1410
sS'November'
p1411
(S'11'
p1412
I1
tp1413
sS'July'
p1414
(S'07'
p1415
I0
tp1416
ssV\u5934\u75db
p1417
(dp1418
S'February'
p1419
(S'02'
p1420
I0
tp1421
sS'October'
p1422
(S'10'
p1423
I0
tp1424
sS'March'
p1425
(S'03'
p1426
I1
tp1427
sS'August'
p1428
(S'08'
p1429
I0
tp1430
sS'May'
p1431
(S'05'
p1432
I1
tp1433
sS'January'
p1434
(S'01'
p1435
I0
tp1436
sS'June'
p1437
(S'06'
p1438
I0
tp1439
sS'September'
p1440
(S'09'
p1441
I0
tp1442
sS'April'
p1443
(S'04'
p1444
I0
tp1445
sS'December'
p1446
(S'12'
p1447
I0
tp1448
sS'July'
p1449
(S'07'
p1450
I0
tp1451
sS'November'
p1452
(S'11'
p1453
I0
tp1454
ssV\u652f\u539f\u4f53\u611f\u67d3
p1455
(dp1456
S'February'
p1457
(S'02'
p1458
I1
tp1459
sS'October'
p1460
(S'10'
p1461
I0
tp1462
sS'March'
p1463
(S'03'
p1464
I0
tp1465
sS'August'
p1466
(S'08'
p1467
I0
tp1468
sS'May'
p1469
(S'05'
p1470
I0
tp1471
sS'January'
p1472
(S'01'
p1473
I0
tp1474
sS'June'
p1475
(S'06'
p1476
I0
tp1477
sS'September'
p1478
(S'09'
p1479
I0
tp1480
sS'April'
p1481
(S'04'
p1482
I0
tp1483
sS'December'
p1484
(S'12'
p1485
I0
tp1486
sS'July'
p1487
(S'07'
p1488
I0
tp1489
sS'November'
p1490
(S'11'
p1491
I0
tp1492
ssV\u5934\u6655
p1493
(dp1494
S'February'
p1495
(S'02'
p1496
I0
tp1497
sS'October'
p1498
(S'10'
p1499
I0
tp1500
sS'March'
p1501
(S'03'
p1502
I0
tp1503
sS'August'
p1504
(S'08'
p1505
I0
tp1506
sg1431
(g1432
I1
tp1507
sS'December'
p1508
(S'12'
p1509
I1
tp1510
sS'June'
p1511
(S'06'
p1512
I0
tp1513
sS'September'
p1514
(S'09'
p1515
I0
tp1516
sS'April'
p1517
(S'04'
p1518
I1
tp1519
sS'January'
p1520
(S'01'
p1521
I0
tp1522
sS'July'
p1523
(S'07'
p1524
I0
tp1525
sS'November'
p1526
(S'11'
p1527
I0
tp1528
ssV\u6dcb\u5df4\u7ed3\u708e
p1529
(dp1530
g1457
(g1458
I1
tp1531
sS'October'
p1532
(S'10'
p1533
I0
tp1534
sS'March'
p1535
(S'03'
p1536
I2
tp1537
sS'August'
p1538
(S'08'
p1539
I0
tp1540
sS'May'
p1541
(S'05'
p1542
I0
tp1543
sS'January'
p1544
(S'01'
p1545
I0
tp1546
sS'June'
p1547
(S'06'
p1548
I0
tp1549
sS'September'
p1550
(S'09'
p1551
I0
tp1552
sS'April'
p1553
(S'04'
p1554
I1
tp1555
sS'December'
p1556
(S'12'
p1557
I0
tp1558
sS'July'
p1559
(S'07'
p1560
I0
tp1561
sS'November'
p1562
(S'11'
p1563
I0
tp1564
ssV\u6025\u6027\u4e2d\u8033\u708e
p1565
(dp1566
S'February'
p1567
(S'02'
p1568
I0
tp1569
sS'October'
p1570
(S'10'
p1571
I0
tp1572
sS'March'
p1573
(S'03'
p1574
I0
tp1575
sS'August'
p1576
(S'08'
p1577
I0
tp1578
sS'May'
p1579
(S'05'
p1580
I0
tp1581
sS'December'
p1582
(S'12'
p1583
I2
tp1584
sS'June'
p1585
(S'06'
p1586
I0
tp1587
sS'September'
p1588
(S'09'
p1589
I0
tp1590
sS'April'
p1591
(S'04'
p1592
I0
tp1593
sS'January'
p1594
(S'01'
p1595
I0
tp1596
sS'July'
p1597
(S'07'
p1598
I0
tp1599
sS'November'
p1600
(S'11'
p1601
I0
tp1602
ssV\u8179\u6cfb
p1603
(dp1604
S'February'
p1605
(S'02'
p1606
I0
tp1607
sS'October'
p1608
(S'10'
p1609
I0
tp1610
sS'March'
p1611
(S'03'
p1612
I4
tp1613
sS'August'
p1614
(S'08'
p1615
I0
tp1616
sS'May'
p1617
(S'05'
p1618
I4
tp1619
sS'January'
p1620
(S'01'
p1621
I1
tp1622
sS'June'
p1623
(S'06'
p1624
I0
tp1625
sS'September'
p1626
(S'09'
p1627
I0
tp1628
sS'April'
p1629
(S'04'
p1630
I4
tp1631
sS'December'
p1632
(S'12'
p1633
I1
tp1634
sS'November'
p1635
(S'11'
p1636
I4
tp1637
sS'July'
p1638
(S'07'
p1639
I0
tp1640
ssV\u6076\u5fc3
p1641
(dp1642
S'February'
p1643
(S'02'
p1644
I0
tp1645
sS'October'
p1646
(S'10'
p1647
I0
tp1648
sS'March'
p1649
(S'03'
p1650
I1
tp1651
sS'August'
p1652
(S'08'
p1653
I0
tp1654
sS'May'
p1655
(S'05'
p1656
I0
tp1657
sS'January'
p1658
(S'01'
p1659
I0
tp1660
sS'June'
p1661
(S'06'
p1662
I0
tp1663
sS'September'
p1664
(S'09'
p1665
I0
tp1666
sS'April'
p1667
(S'04'
p1668
I0
tp1669
sS'December'
p1670
(S'12'
p1671
I0
tp1672
sS'July'
p1673
(S'07'
p1674
I0
tp1675
sS'November'
p1676
(S'11'
p1677
I0
tp1678
ssV\u6d41\u884c\u6027\u611f\u5192
p1679
(dp1680
S'February'
p1681
(S'02'
p1682
I2
tp1683
sS'October'
p1684
(S'10'
p1685
I0
tp1686
sg915
(S'03'
p1687
I3
tp1688
sS'August'
p1689
(S'08'
p1690
I0
tp1691
sS'May'
p1692
(S'05'
p1693
I0
tp1694
sg1138
(S'01'
p1695
I2
tp1696
sS'June'
p1697
(S'06'
p1698
I0
tp1699
sS'September'
p1700
(S'09'
p1701
I0
tp1702
sS'April'
p1703
(S'04'
p1704
I0
tp1705
sS'December'
p1706
(S'12'
p1707
I0
tp1708
sS'July'
p1709
(S'07'
p1710
I0
tp1711
sS'November'
p1712
(S'11'
p1713
I0
tp1714
ssV\u5589\u708e
p1715
(dp1716
S'February'
p1717
(S'02'
p1718
I5
tp1719
sS'October'
p1720
(S'10'
p1721
I0
tp1722
sS'March'
p1723
(S'03'
p1724
I2
tp1725
sS'August'
p1726
(S'08'
p1727
I0
tp1728
sS'May'
p1729
(S'05'
p1730
I1
tp1731
sS'January'
p1732
(S'01'
p1733
I3
tp1734
sS'June'
p1735
(S'06'
p1736
I0
tp1737
sS'September'
p1738
(S'09'
p1739
I0
tp1740
sS'April'
p1741
(S'04'
p1742
I2
tp1743
sS'December'
p1744
(S'12'
p1745
I1
tp1746
sg937
(S'11'
p1747
I2
tp1748
sS'July'
p1749
(S'07'
p1750
I0
tp1751
ssV\u80c3\u75c9\u631b
p1752
(dp1753
S'February'
p1754
(S'02'
p1755
I0
tp1756
sS'October'
p1757
(S'10'
p1758
I0
tp1759
sg1349
(S'03'
p1760
I4
tp1761
sS'August'
p1762
(S'08'
p1763
I0
tp1764
sS'May'
p1765
(S'05'
p1766
I0
tp1767
sS'January'
p1768
(S'01'
p1769
I0
tp1770
sS'June'
p1771
(S'06'
p1772
I0
tp1773
sS'September'
p1774
(S'09'
p1775
I0
tp1776
sS'April'
p1777
(S'04'
p1778
I0
tp1779
sS'December'
p1780
(S'12'
p1781
I0
tp1782
sS'July'
p1783
(S'07'
p1784
I0
tp1785
sS'November'
p1786
(S'11'
p1787
I0
tp1788
ssV\u80c3\u80a0\u529f\u80fd\u7d0a\u4e71
p1789
(dp1790
g1124
(S'02'
p1791
I13
tp1792
sS'October'
p1793
(S'10'
p1794
I0
tp1795
sS'March'
p1796
(S'03'
p1797
I18
tp1798
sS'August'
p1799
(S'08'
p1800
I0
tp1801
sS'May'
p1802
(S'05'
p1803
I12
tp1804
sS'December'
p1805
(S'12'
p1806
I11
tp1807
sS'June'
p1808
(S'06'
p1809
I0
tp1810
sS'September'
p1811
(S'09'
p1812
I0
tp1813
sS'April'
p1814
(S'04'
p1815
I32
tp1816
sS'January'
p1817
(S'01'
p1818
I3
tp1819
sS'November'
p1820
(S'11'
p1821
I2
tp1822
sS'July'
p1823
(S'07'
p1824
I0
tp1825
ssV\u6ccc\u5c3f\u9053\u611f\u67d3
p1826
(dp1827
S'February'
p1828
(S'02'
p1829
I0
tp1830
sS'October'
p1831
(S'10'
p1832
I0
tp1833
sS'March'
p1834
(S'03'
p1835
I0
tp1836
sS'August'
p1837
(S'08'
p1838
I0
tp1839
sS'May'
p1840
(S'05'
p1841
I2
tp1842
sS'January'
p1843
(S'01'
p1844
I0
tp1845
sS'June'
p1846
(S'06'
p1847
I0
tp1848
sS'September'
p1849
(S'09'
p1850
I0
tp1851
sS'April'
p1852
(S'04'
p1853
I0
tp1854
sS'December'
p1855
(S'12'
p1856
I0
tp1857
sS'July'
p1858
(S'07'
p1859
I0
tp1860
sS'November'
p1861
(S'11'
p1862
I0
tp1863
ssV\u6d88\u5316\u4e0d\u826f
p1864
(dp1865
S'February'
p1866
(S'02'
p1867
I0
tp1868
sS'October'
p1869
(S'10'
p1870
I0
tp1871
sS'March'
p1872
(S'03'
p1873
I2
tp1874
sS'August'
p1875
(S'08'
p1876
I0
tp1877
sS'May'
p1878
(g1318
I1
tp1879
sS'January'
p1880
(S'01'
p1881
I0
tp1882
sS'June'
p1883
(S'06'
p1884
I0
tp1885
sS'September'
p1886
(S'09'
p1887
I0
tp1888
sS'April'
p1889
(S'04'
p1890
I1
tp1891
sS'December'
p1892
(S'12'
p1893
I1
tp1894
sS'July'
p1895
(S'07'
p1896
I0
tp1897
sS'November'
p1898
(S'11'
p1899
I0
tp1900
ssV\u5316\u8113\u6027\u6241\u6843\u4f53\u708e
p1901
(dp1902
S'February'
p1903
(S'02'
p1904
I1
tp1905
sS'October'
p1906
(S'10'
p1907
I0
tp1908
sS'March'
p1909
(g916
I6
tp1910
sS'August'
p1911
(S'08'
p1912
I0
tp1913
sS'May'
p1914
(S'05'
p1915
I2
tp1916
sS'December'
p1917
(g739
I6
tp1918
sS'June'
p1919
(S'06'
p1920
I0
tp1921
sS'September'
p1922
(S'09'
p1923
I0
tp1924
sS'April'
p1925
(S'04'
p1926
I11
tp1927
sg182
(S'01'
p1928
I2
tp1929
sS'November'
p1930
(S'11'
p1931
I1
tp1932
sS'July'
p1933
(S'07'
p1934
I0
tp1935
ssV\u4f20\u67d3\u6027\u5355\u6838\u7ec6\u80de\u589e\u591a\u75c7
p1936
(dp1937
S'February'
p1938
(S'02'
p1939
I0
tp1940
sS'October'
p1941
(S'10'
p1942
I0
tp1943
sS'March'
p1944
(S'03'
p1945
I1
tp1946
sS'August'
p1947
(S'08'
p1948
I0
tp1949
sS'May'
p1950
(S'05'
p1951
I0
tp1952
sS'January'
p1953
(S'01'
p1954
I0
tp1955
sS'June'
p1956
(S'06'
p1957
I0
tp1958
sS'September'
p1959
(S'09'
p1960
I0
tp1961
sS'April'
p1962
(S'04'
p1963
I0
tp1964
sS'December'
p1965
(S'12'
p1966
I0
tp1967
sg450
(S'11'
p1968
I1
tp1969
sS'July'
p1970
(S'07'
p1971
I0
tp1972
ssV\u80f8\u8154\u79ef\u6db2
p1973
(dp1974
S'February'
p1975
(S'02'
p1976
I0
tp1977
sS'October'
p1978
(S'10'
p1979
I0
tp1980
sS'March'
p1981
(g162
I1
tp1982
sS'August'
p1983
(S'08'
p1984
I0
tp1985
sS'May'
p1986
(S'05'
p1987
I0
tp1988
sS'January'
p1989
(S'01'
p1990
I1
tp1991
sS'June'
p1992
(S'06'
p1993
I0
tp1994
sS'September'
p1995
(S'09'
p1996
I0
tp1997
sS'April'
p1998
(S'04'
p1999
I0
tp2000
sS'December'
p2001
(S'12'
p2002
I0
tp2003
sS'November'
p2004
(S'11'
p2005
I1
tp2006
sS'July'
p2007
(S'07'
p2008
I0
tp2009
ssV\u94fe\u7403\u83cc\u611f\u67d3
p2010
(dp2011
S'February'
p2012
(S'02'
p2013
I0
tp2014
sS'October'
p2015
(S'10'
p2016
I0
tp2017
sS'March'
p2018
(S'03'
p2019
I0
tp2020
sS'August'
p2021
(S'08'
p2022
I0
tp2023
sS'May'
p2024
(S'05'
p2025
I1
tp2026
sg923
(g714
I2
tp2027
sS'June'
p2028
(S'06'
p2029
I0
tp2030
sS'September'
p2031
(S'09'
p2032
I0
tp2033
sg931
(S'04'
p2034
I1
tp2035
sS'December'
p2036
(S'12'
p2037
I0
tp2038
sS'July'
p2039
(S'07'
p2040
I0
tp2041
sS'November'
p2042
(S'11'
p2043
I0
tp2044
ssV\u6025\u6027\u7ed3\u819c\u708e
p2045
(dp2046
S'February'
p2047
(S'02'
p2048
I1
tp2049
sS'October'
p2050
(S'10'
p2051
I0
tp2052
sS'March'
p2053
(S'03'
p2054
I0
tp2055
sS'August'
p2056
(S'08'
p2057
I0
tp2058
sS'May'
p2059
(S'05'
p2060
I0
tp2061
sS'January'
p2062
(S'01'
p2063
I0
tp2064
sS'June'
p2065
(S'06'
p2066
I0
tp2067
sS'September'
p2068
(S'09'
p2069
I0
tp2070
sS'April'
p2071
(S'04'
p2072
I0
tp2073
sS'December'
p2074
(S'12'
p2075
I0
tp2076
sS'July'
p2077
(S'07'
p2078
I0
tp2079
sS'November'
p2080
(S'11'
p2081
I0
tp2082
ssV\u652f\u6c14\u7ba1\u5468\u56f4\u708e
p2083
(dp2084
g1457
(g1458
I1
tp2085
sS'October'
p2086
(S'10'
p2087
I0
tp2088
sS'March'
p2089
(S'03'
p2090
I4
tp2091
sS'August'
p2092
(S'08'
p2093
I0
tp2094
sS'May'
p2095
(S'05'
p2096
I2
tp2097
sS'December'
p2098
(S'12'
p2099
I4
tp2100
sS'June'
p2101
(S'06'
p2102
I0
tp2103
sS'September'
p2104
(S'09'
p2105
I0
tp2106
sS'April'
p2107
(S'04'
p2108
I0
tp2109
sS'January'
p2110
(S'01'
p2111
I8
tp2112
sS'November'
p2113
(S'11'
p2114
I2
tp2115
sS'July'
p2116
(S'07'
p2117
I0
tp2118
ssV\u4fbf\u79d8
p2119
(dp2120
S'February'
p2121
(S'02'
p2122
I0
tp2123
sS'October'
p2124
(S'10'
p2125
I0
tp2126
sS'March'
p2127
(S'03'
p2128
I0
tp2129
sS'August'
p2130
(S'08'
p2131
I0
tp2132
sS'May'
p2133
(S'05'
p2134
I1
tp2135
sS'January'
p2136
(S'01'
p2137
I0
tp2138
sS'June'
p2139
(S'06'
p2140
I0
tp2141
sS'September'
p2142
(S'09'
p2143
I0
tp2144
sS'April'
p2145
(S'04'
p2146
I0
tp2147
sS'December'
p2148
(S'12'
p2149
I0
tp2150
sS'July'
p2151
(S'07'
p2152
I0
tp2153
sS'November'
p2154
(S'11'
p2155
I0
tp2156
ssV\u80a0\u708e
p2157
(dp2158
S'February'
p2159
(S'02'
p2160
I0
tp2161
sS'October'
p2162
(S'10'
p2163
I0
tp2164
sS'March'
p2165
(S'03'
p2166
I3
tp2167
sS'August'
p2168
(S'08'
p2169
I0
tp2170
sS'May'
p2171
(S'05'
p2172
I1
tp2173
sS'December'
p2174
(S'12'
p2175
I2
tp2176
sS'June'
p2177
(S'06'
p2178
I0
tp2179
sS'September'
p2180
(S'09'
p2181
I0
tp2182
sS'April'
p2183
(S'04'
p2184
I0
tp2185
sS'January'
p2186
(S'01'
p2187
I1
tp2188
sS'November'
p2189
(S'11'
p2190
I2
tp2191
sS'July'
p2192
(S'07'
p2193
I0
tp2194
ssV\u5c3f\u9891
p2195
(dp2196
g610
(g611
I1
tp2197
sS'October'
p2198
(S'10'
p2199
I0
tp2200
sS'March'
p2201
(S'03'
p2202
I0
tp2203
sS'August'
p2204
(S'08'
p2205
I0
tp2206
sS'May'
p2207
(S'05'
p2208
I1
tp2209
sS'January'
p2210
(S'01'
p2211
I1
tp2212
sS'June'
p2213
(S'06'
p2214
I0
tp2215
sS'September'
p2216
(S'09'
p2217
I0
tp2218
sS'April'
p2219
(S'04'
p2220
I0
tp2221
sS'December'
p2222
(S'12'
p2223
I0
tp2224
sS'July'
p2225
(S'07'
p2226
I0
tp2227
sS'November'
p2228
(S'11'
p2229
I0
tp2230
ssV\u53e3\u8154\u75b1\u75b9
p2231
(dp2232
S'February'
p2233
(S'02'
p2234
I0
tp2235
sS'October'
p2236
(S'10'
p2237
I0
tp2238
sS'March'
p2239
(S'03'
p2240
I0
tp2241
sS'August'
p2242
(S'08'
p2243
I0
tp2244
sS'May'
p2245
(S'05'
p2246
I1
tp2247
sS'January'
p2248
(S'01'
p2249
I0
tp2250
sS'June'
p2251
(S'06'
p2252
I0
tp2253
sS'September'
p2254
(S'09'
p2255
I0
tp2256
sS'April'
p2257
(S'04'
p2258
I0
tp2259
sS'December'
p2260
(S'12'
p2261
I0
tp2262
sS'July'
p2263
(S'07'
p2264
I0
tp2265
sS'November'
p2266
(S'11'
p2267
I0
tp2268
ssV\u4e59\u578b\u6d41\u611f
p2269
(dp2270
S'February'
p2271
(S'02'
p2272
I0
tp2273
sS'October'
p2274
(S'10'
p2275
I0
tp2276
sS'March'
p2277
(S'03'
p2278
I0
tp2279
sS'August'
p2280
(S'08'
p2281
I0
tp2282
sS'May'
p2283
(S'05'
p2284
I0
tp2285
sS'December'
p2286
(S'12'
p2287
I1
tp2288
sS'June'
p2289
(S'06'
p2290
I0
tp2291
sS'September'
p2292
(S'09'
p2293
I0
tp2294
sS'April'
p2295
(S'04'
p2296
I0
tp2297
sS'January'
p2298
(S'01'
p2299
I0
tp2300
sS'July'
p2301
(S'07'
p2302
I0
tp2303
sS'November'
p2304
(S'11'
p2305
I0
tp2306
ssV\u8179\u75db
p2307
(dp2308
S'February'
p2309
(g421
I4
tp2310
sS'October'
p2311
(S'10'
p2312
I0
tp2313
sg1349
(S'03'
p2314
I19
tp2315
sS'August'
p2316
(S'08'
p2317
I0
tp2318
sg736
(g130
I21
tp2319
sg1213
(g600
I7
tp2320
sS'June'
p2321
(S'06'
p2322
I0
tp2323
sg138
(S'09'
p2324
I1
tp2325
sS'April'
p2326
(g1221
I21
tp2327
sS'January'
p2328
(S'01'
p2329
I4
tp2330
sS'November'
p2331
(S'11'
p2332
I2
tp2333
sS'July'
p2334
(S'07'
p2335
I0
tp2336
ssV\u8fc7\u654f\u6027\u7d2b\u765c
p2337
(dp2338
S'February'
p2339
(S'02'
p2340
I0
tp2341
sS'October'
p2342
(S'10'
p2343
I0
tp2344
sS'March'
p2345
(S'03'
p2346
I0
tp2347
sS'August'
p2348
(S'08'
p2349
I0
tp2350
sS'May'
p2351
(S'05'
p2352
I0
tp2353
sS'January'
p2354
(S'01'
p2355
I0
tp2356
sS'June'
p2357
(S'06'
p2358
I0
tp2359
sS'September'
p2360
(S'09'
p2361
I0
tp2362
sS'April'
p2363
(S'04'
p2364
I1
tp2365
sS'December'
p2366
(S'12'
p2367
I0
tp2368
sS'July'
p2369
(S'07'
p2370
I0
tp2371
sS'November'
p2372
(S'11'
p2373
I0
tp2374
ssV\u75b9\u6027\u54bd\u5ce1\u708e
p2375
(dp2376
S'February'
p2377
(S'02'
p2378
I0
tp2379
sS'October'
p2380
(S'10'
p2381
I0
tp2382
sS'March'
p2383
(S'03'
p2384
I0
tp2385
sS'August'
p2386
(S'08'
p2387
I0
tp2388
sS'May'
p2389
(S'05'
p2390
I1
tp2391
sS'January'
p2392
(S'01'
p2393
I0
tp2394
sS'June'
p2395
(S'06'
p2396
I0
tp2397
sS'September'
p2398
(S'09'
p2399
I0
tp2400
sS'April'
p2401
(S'04'
p2402
I0
tp2403
sS'December'
p2404
(S'12'
p2405
I0
tp2406
sS'July'
p2407
(S'07'
p2408
I0
tp2409
sS'November'
p2410
(S'11'
p2411
I0
tp2412
ssV\u6025\u6027\u6241\u6843\u4f53\u708e
p2413
(dp2414
S'February'
p2415
(S'02'
p2416
I0
tp2417
sS'October'
p2418
(S'10'
p2419
I0
tp2420
sS'March'
p2421
(g427
I4
tp2422
sS'August'
p2423
(S'08'
p2424
I0
tp2425
sS'May'
p2426
(S'05'
p2427
I0
tp2428
sS'December'
p2429
(S'12'
p2430
I14
tp2431
sS'June'
p2432
(S'06'
p2433
I0
tp2434
sS'September'
p2435
(S'09'
p2436
I0
tp2437
sS'April'
p2438
(S'04'
p2439
I2
tp2440
sS'January'
p2441
(S'01'
p2442
I5
tp2443
sS'November'
p2444
(S'11'
p2445
I4
tp2446
sS'July'
p2447
(S'07'
p2448
I0
tp2449
ssVEB\u75c5\u6bd2\u611f\u67d3
p2450
(dp2451
S'February'
p2452
(S'02'
p2453
I0
tp2454
sS'October'
p2455
(S'10'
p2456
I0
tp2457
sS'March'
p2458
(S'03'
p2459
I1
tp2460
sS'August'
p2461
(S'08'
p2462
I0
tp2463
sS'May'
p2464
(S'05'
p2465
I0
tp2466
sS'December'
p2467
(S'12'
p2468
I1
tp2469
sS'June'
p2470
(S'06'
p2471
I0
tp2472
sS'September'
p2473
(S'09'
p2474
I0
tp2475
sS'April'
p2476
(S'04'
p2477
I0
tp2478
sS'January'
p2479
(S'01'
p2480
I0
tp2481
sS'July'
p2482
(S'07'
p2483
I0
tp2484
sS'November'
p2485
(S'11'
p2486
I0
tp2487
ssV\u80c3\u80a0\u578b\u611f\u5192
p2488
(dp2489
S'February'
p2490
(S'02'
p2491
I0
tp2492
sS'October'
p2493
(S'10'
p2494
I0
tp2495
sg1611
(S'03'
p2496
I3
tp2497
sS'August'
p2498
(S'08'
p2499
I0
tp2500
sS'May'
p2501
(S'05'
p2502
I0
tp2503
sS'January'
p2504
(S'01'
p2505
I0
tp2506
sS'June'
p2507
(S'06'
p2508
I0
tp2509
sS'September'
p2510
(S'09'
p2511
I0
tp2512
sS'April'
p2513
(S'04'
p2514
I0
tp2515
sS'December'
p2516
(S'12'
p2517
I0
tp2518
sS'July'
p2519
(S'07'
p2520
I0
tp2521
sS'November'
p2522
(S'11'
p2523
I0
tp2524
ssV\u75c5\u6bd2\u6027\u611f\u67d3
p2525
(dp2526
S'February'
p2527
(S'02'
p2528
I1
tp2529
sS'October'
p2530
(S'10'
p2531
I0
tp2532
sg2089
(S'03'
p2533
I1
tp2534
sS'August'
p2535
(S'08'
p2536
I0
tp2537
sS'May'
p2538
(g2096
I1
tp2539
sS'December'
p2540
(S'12'
p2541
I8
tp2542
sS'June'
p2543
(S'06'
p2544
I0
tp2545
sS'September'
p2546
(S'09'
p2547
I0
tp2548
sS'April'
p2549
(S'04'
p2550
I0
tp2551
sS'January'
p2552
(S'01'
p2553
I2
tp2554
sS'November'
p2555
(S'11'
p2556
I5
tp2557
sS'July'
p2558
(S'07'
p2559
I0
tp2560
ssV\u7c92\u7ec6\u80de\u7f3a\u4e4f\u75c7
p2561
(dp2562
S'February'
p2563
(S'02'
p2564
I0
tp2565
sS'October'
p2566
(S'10'
p2567
I0
tp2568
sg950
(S'03'
p2569
I3
tp2570
sS'August'
p2571
(S'08'
p2572
I0
tp2573
sS'May'
p2574
(S'05'
p2575
I0
tp2576
sS'December'
p2577
(S'12'
p2578
I2
tp2579
sS'June'
p2580
(S'06'
p2581
I0
tp2582
sS'September'
p2583
(S'09'
p2584
I0
tp2585
sS'April'
p2586
(S'04'
p2587
I1
tp2588
sg2552
(g851
I3
tp2589
sS'November'
p2590
(S'11'
p2591
I1
tp2592
sS'July'
p2593
(S'07'
p2594
I0
tp2595
ssV\u9f3b\u708e
p2596
(dp2597
S'February'
p2598
(g2048
I3
tp2599
sS'October'
p2600
(S'10'
p2601
I0
tp2602
sg1204
(S'03'
p2603
I2
tp2604
sS'August'
p2605
(S'08'
p2606
I0
tp2607
sg1729
(g1211
I4
tp2608
sS'January'
p2609
(S'01'
p2610
I1
tp2611
sS'June'
p2612
(S'06'
p2613
I0
tp2614
sS'September'
p2615
(S'09'
p2616
I0
tp2617
sS'April'
p2618
(S'04'
p2619
I2
tp2620
sS'December'
p2621
(S'12'
p2622
I0
tp2623
sS'November'
p2624
(S'11'
p2625
I2
tp2626
sS'July'
p2627
(S'07'
p2628
I0
tp2629
ss.