(lp0
S'#EA0000'
p1
aS'#FF359A'
p2
aS'#FF00FF'
p3
aS'#9F35FF'
p4
aS'#FF0000'
p5
aS'#FF60AF'
p6
aS'#FF44FF'
p7
aS'#B15BFF'
p8
aS'#FF2D2D'
p9
aS'#FF79BC'
p10
aS'#FF77FF'
p11
aS'#BE77FF'
p12
aS'#FF5151'
p13
aS'#FF95CA'
p14
aS'#FF8EFF'
p15
aS'#CA8EFF'
p16
aS'#ff7575'
p17
aS'#ffaad5'
p18
aS'#ffa6ff'
p19
aS'#d3a4ff'
p20
aS'#FF9797'
p21
aS'#FFC1E0'
p22
aS'#FFBFFF'
p23
aS'#DCB5FF'
p24
aS'#FFB5B5'
p25
aS'#FFD9EC'
p26
aS'#FFD0FF'
p27
aS'#E6CAFF'
p28
aS'#FFD2D2'
p29
aS'#FFECF5'
p30
aS'#FFE6FF'
p31
aS'#F1E1FF'
p32
aS'#7D7DFF'
p33
aS'#46A3FF'
p34
aS'#4DFFFF'
p35
aS'#4EFEB3'
p36
aS'#9393FF'
p37
aS'#66B3FF'
p38
aS'#80FFFF'
p39
aS'#7AFEC6'
p40
aS'#AAAAFF'
p41
aS'#84C1FF'
p42
aS'#A6FFFF'
p43
aS'#96FED1'
p44
aS'#B9B9FF'
p45
aS'#97CBFF'
p46
aS'#BBFFFF'
p47
aS'#ADFEDC'
p48
aS'#CECEFF'
p49
aS'#ACD6FF'
p50
aS'#CAFFFF'
p51
aS'#C1FFE4'
p52
aS'#DDDDFF'
p53
aS'#C4E1FF'
p54
aS'#D9FFFF'
p55
aS'#D7FFEE'
p56
aS'#ECECFF'
p57
aS'#D2E9FF'
p58
aS'#ECFFFF'
p59
aS'#E8FFF5'
p60
aS'#D3FF93'
p61
aS'#FFFFAA'
p62
aS'#FFED97'
p63
aS'#FFD1A4'
p64
aS'#FFBD9D'
p65
aS'#DEFFAC'
p66
aS'#FFFFB9'
p67
aS'#FFF0AC'
p68
aS'#FFDCB9'
p69
aS'#FFCBB3'
p70
aS'#E8FFC4'
p71
aS'#FFFFCE'
p72
aS'#FFF4C1'
p73
aS'#FFE4CA'
p74
aS'#FFDAC8'
p75
aS'#EFFFD7'
p76
aS'#FFFFDF'
p77
aS'#FFF8D7'
p78
aS'#FFEEDD'
p79
aS'#FFE6D9'
p80
a.