(dp0
V\u559c\u6076
p1
(dp2
V\u75c7\u72b6
p3
(lp4
V\u559c\u6e29
p5
aV\u62d2\u6309
p6
aV\u559c\u6309
p7
asV\u996e\u98df
p8
(lp9
V\u4e0d\u6b32\u51b7\u98df
p10
aV\u538c\u98df\u6cb9\u817b
p11
aV\u559c\u98df\u80a5\u7518
p12
aV\u4e0d\u6b32\u9152\u8f9b
p13
aV\u559c\u98df\u51b7\u98df
p14
aV\u559c\u996e\u9152
p15
assV\u56e0\u7d20
p16
(dp17
V\u8bf1\u56e0
p18
(lp19
V\u6c34\u571f\u4e0d\u670d
p20
aV\uff08\u6d41\uff09\u4ea7\u540e
p21
aV\u996e\u98df\u4e0d\u614e
p22
aV\u5176\u4ed6\u672f\u540e\u53ca\u5916\u4f24
p23
aV\u80c6\u56ca\u5207\u9664\u672f\u540e
p24
aV\u611f\u5192
p25
aV\u7ecf\u671f
p26
aV\u80a0\u9053\u672f\u540e
p27
aV\u5316\u7597\u540e
p28
aV\u83cc\u7fa4\u5931\u8c03
p29
aV\u53d7\u5bd2
p30
aV\u80c3\u53ca\u98df\u7ba1\u624b\u672f\u540e
p31
aV\u52b3\u7d2f
p32
aV\u60c5\u5fd7\u56e0\u7d20
p33
asV\u8fdb\u98df
p34
(lp35
V\u8fdb\u98df\u6cb9\u817b
p36
aV\u8fdb\u98df\u6d77\u4ea7\u54c1
p37
aV\u996e\u9152
p38
aV\u8fdb\u98df\u4e0d\u6d01
p39
aV\u8fdb\u98df\u852c\u83dc
p40
aV\u8fc7\u9971
p41
aV\u8fdb\u98df\u751f\u51b7
p42
aV\u591a\u98df\u8695\u8c46
p43
aV\u8fdb\u98df\u8f9b\u8fa3
p44
aV\u8fdb\u98df\u4e0d\u614e
p45
asV\u5176\u4ed6
p46
(lp47
V\u8d77\u5c45\u4e0d\u614e
p48
aV\u60c5\u5fd7\u4e0d\u7545
p49
aV\u79cb\u51ac
p50
aV\u60c5\u5fd7\u6ce2\u52a8
p51
aV\u53d7\u5bd2
p52
aV\u7d27\u5f20
p53
aV\u60c5\u5fd7\u56e0\u7d20
p54
aV\u60b2\u4f24
p55
aV\u6291\u90c1
p56
aV\u52b3\u7d2f
p57
aV\u590f\u5929
p58
aV\u6050\u60e7
p59
aV\u607c\u6012
p60
aV\u6fc0\u52a8
p61
aV\u5931\u7720
p62
aV\u5fe7\u601d
p63
assV\u5927\u4fbf
p64
(dp65
V\u4fbf\u524d\u611f\u89c9
p66
(lp67
V\u4fbf\u524d\u4e0b\u5760
p68
aV\u4fbf\u524d\u80a0\u9e23
p69
aV\u4fbf\u524d\u8179\u75db
p70
aV\u4fbf\u524d\u65e0\u8179\u75db
p71
aV\u4fbf\u524d\u8179\u80c0
p72
asV\u5927\u4fbf\u7c98\u6db2
p73
(lp74
V\u9ec4\u7c98
p75
aV\u8d64\u767d\u7c98
p76
aV\u7ea2\u7c98
p77
aV\u767d\u7c98
p78
aV\u5b8c\u8c37\u4e0d\u5316
p79
aV\u65e0\u5b8c\u8c37\u4e0d\u5316
p80
aV\u7c98\u51bb
p81
aV\u7c98\u6db2\u91cf\u5c11
p82
aV\u7c98\u6db2
p83
aV\u65e0\u7c98\u6db2\u7c98\u51bb
p84
aV\u7c98\u6db2\u91cf\u591a
p85
asV\u989c\u8272\u6c14\u5473
p86
(lp87
V\u8165\u81ed
p88
aV\u5927\u4fbf\u91cf\u5c11
p89
aV\u5927\u4fbf\u8910
p90
aV\u5927\u4fbf\u91cf\u591a
p91
aV\u81ed\u5982\u8d25\u5375
p92
aV\u81ed\u79fd
p93
aV\u5927\u4fbf\u9ec4
p94
aV\u65e0\u81ed
p95
aV\u5927\u4fbf\u6de1
p96
aV\u8150\u81ed
p97
asV\u5176\u4ed6\u7279\u70b9
p98
(lp99
V\u8840
p100
aV\u6ce1\u6cab
p101
aV\u6591\u5757\u788e\u5c51
p102
aV\u5047\u819c
p103
aV\u80f6\u72b6\u7269
p104
asV\u5927\u4fbf\u8d28\u5730
p105
(lp106
V\u6e8f\u7ed3\u4ea4\u66ff
p107
aV\u6c34\u6837
p108
aV\u7a00\u6e8f
p109
aV\u7a20\u6216\u6210\u5f62
p110
aV\u7c98\u817b
p111
aV\u5148\u5e72\u540e\u6e8f
p112
asV\u5176\u4ed6\u611f\u89c9
p113
(lp114
V\u91cc\u6025
p115
aV\u5927\u4fbf\u968f\u5c0f\u4fbf\u6392\u51fa
p116
aV\u540e\u91cd
p117
aV\u91cc\u6025\u540e\u91cd
p118
aV\u65e0\u91cc\u6025\u540e\u91cd
p119
aV\u4fbf\u540e\u4e0d\u5c3d\u611f
p120
aV\u5931\u6c14\u65f6\u5927\u4fbf\u6392\u51fa
p121
asV\u4fbf\u540e\u611f\u89c9
p122
(lp123
V\u8179\u75db\u7f13\u89e3\u8179
p124
aV\u707c\u70ed
p125
aV\u7a0d\u51cf
p126
aV\u6d88\u5931
p127
aV\u4fbf\u610f\u6025\u8feb
p128
aV\u7f13\u89e3
p129
aV\u65e0\u707c\u70ed
p130
aV\u6392\u4fbf\u4e0d\u723d
p131
aV\u4e0d\u7f13\u89e3
p132
aV\u4fbf\u540e\u4e4f\u529b
p133
assV\u75bc\u75db
p134
(dp135
V\u75bc\u75db\u6027\u8d28
p136
(lp137
V\u7ede\u75db
p138
aV\u56fa\u5b9a\u75db
p139
aV\u51b7\u75db
p140
aV\u523a\u75db
p141
aV\u5267\u75db
p142
aV\u7a9c\u75db
p143
aV\u7a7a\u75db
p144
aV\u5fae\u75db
p145
aV\u9690\u75db
p146
aV\u80c0\u75db
p147
aV\u95f7\u75db
p148
asV\u75bc\u75db\u90e8\u4f4d
p149
(lp150
V\u4e0a\u8179
p151
aV\u5c11\u8179
p152
aV\u8110\u8179
p153
aV\u80f8\u75db
p154
aV\u8118\u8179
p155
aV\u5c0f\u8179
p156
aV\u80c1\u75db
p157
assV\u7279\u70b9
p158
(dp159
V\u53d1\u4f5c\u65f6\u95f4
p160
(lp161
V\u4e0a\u5348\u53d1\u4f5c
p162
aV\u4e94\u66f4\u53d1\u4f5c
p163
aV\u54b3\u55fd\u65f6\u53d1\u4f5c
p164
aV\u996d\u540e\u53d1\u4f5c
p165
aV\u590f\u5b63\u53d1\u4f5c
p166
aV\u591c\u95f4\u53d1\u4f5c
p167
aV\u6668\u8d77\u53d1\u4f5c
p168
aV\u7ecf\u671f\u53d1\u4f5c
p169
aV\u51ac\u5b63\u53d1\u4f5c
p170
aV\u996e\u6c34\u540e\u53d1\u4f5c
p171
assV\u7cbe\u795e\u60c5\u5fd7
p172
(dp173
V\u60c5\u5fd7
p174
(lp175
V\u6613\u6fc0\u52a8
p176
aV\u7126\u8651
p177
aV\u80c6\u602f\u6613\u60ca
p178
aV\u6613\u6012
p179
aV\u6025\u8e81
p180
aV\u5fc3\u70e6
p181
aV\u6291\u90c1
p182
aV\u5fe7\u90c1
p183
aV\u7d27\u5f20
p184
asV\u7cbe\u795e
p185
(lp186
V\u7cbe\u795e\u5dee
p187
aV\u795e\u660f
p188
aV\u4e4f\u529b
p189
aV\u65e0\u5fc3\u70e6
p190
aV\u5931\u7720\u591a\u68a6
p191
aV\u61d2\u8a00
p192
aV\u6668\u8d77\u6076\u5fc3
p193
aV\u6613\u611f\u5192
p194
aV\u5065\u5fd8
p195
aV\u5608\u6742
p196
aV\u65e0\u5931\u7720
p197
aV\u7cbe\u795e\u53ef
p198
assV\u820c\u5934
p199
(dp200
V\u820c\u82d4\u6027\u8d28
p201
(lp202
V\u820c\u6da6
p203
aV\u82d4\u4e2d\u817b
p204
aV\u82d4\u539a
p205
aV\u82d4\u817b
p206
aV\u82d4\u6839\u817b
p207
aV\u82d4\u5c11
p208
aV\u82d4\u4e0d\u817b
p209
aV\u82d4\u57a2\u6d4a
p210
aV\u820c\u5e72
p211
aV\u820c\u6ed1
p212
aV\u82d4\u7c98\u817b
p213
aV\u82d4\u8584
p214
aV\u82d4\u5265
p215
aV\u82d4\u65e0
p216
asV\u820c\u82d4\u989c\u8272
p217
(lp218
V\u82d4\u6de1\u9ec4
p219
aV\u82d4\u6839\u9ec4
p220
aV\u82d4\u9ec4
p221
aV\u82d4\u767d
p222
aV\u82d4\u4e2d\u9ec4
p223
asV\u820c\u8d28\u989c\u8272
p224
(lp225
V\u820c\u7ea2
p226
aV\u820c\u6de1
p227
aV\u820c\u7600\u70b9\u7600\u6591
p228
aV\u820c\u7d2b
p229
aV\u820c\u6697
p230
aV\u820c\u9752
p231
aV\u820c\u8fb9\u7ea2
p232
aV\u820c\u5c16\u7ea2
p233
aV\u820c\u7edb
p234
asV\u820c\u4f53
p235
(lp236
V\u820c\u7626
p237
aV\u9f7f\u75d5
p238
aV\u88c2\u7eb9
p239
aV\u820c\u80d6
p240
aV\u820c\u5ae9
p241
aV\u820c\u786c
p242
asV\u820c\u4e0b\u7edc\u8109
p243
(lp244
V\u6de1\u7d2b
p245
aV\u66f2\u5f20
p246
aV\u7ec6\u77ed
p247
aV\u7ec6\u957f
p248
assV\u996e\u98df
p249
(dp250
V\u98df\u91cf
p251
(lp252
V\u996e\u98df\u6b63\u5e38
p253
aV\u538c\u98df
p254
aV\u7eb3\u5446
p255
aV\u591a\u98df\u6613\u9965
p256
asV\u996e\u6c34
p257
(lp258
V\u70e6\u6e34
p259
aV\u6b32\u51b7\u996e
p260
aV\u996e\u6c34\u5373\u5410
p261
aV\u4e0d\u6b32\u996e
p262
aV\u996e\u6c34\u6b63\u5e38
p263
aV\u53e3\u5e72\u591c\u751a
p264
aV\u6b32\u996e
p265
aV\u6b32\u70ed\u996e
p266
aV\u6668\u8d77\u53e3\u6e34
p267
aV\u53e3\u6e34
p268
assV\u8109\u8c61
p269
(dp270
V\u8109\u8c61\u4e8c
p271
(lp272
V\u65e0\u529b
p273
aV\u6709\u529b
p274
aV\u7ec6
p275
aV\u6ed1
p276
aV\u865a
p277
aV\u8fdf
p278
aV\u6fe1
p279
aV\u5927
p280
aV\u8f6f
p281
aV\u6d6e
p282
aV\u6570
p283
aV\u65e0\u795e
p284
asV\u8109\u8c61\u4e00
p285
(lp286
V\u6c89
p287
aV\u5c0f
p288
aV\u7f13
p289
aV\u5b9e
p290
aV\u82a4
p291
aV\u7d27
p292
aV\u5f26
p293
aV\u6da9
p294
aV\u6d2a
p295
aV\u5fae
p296
aV\u5f31
p297
assV\u751f\u7406
p298
(dp299
V\u7537\u6027
p300
(lp301
V\u9633\u75ff
p302
aV\u65e9\u6cc4
p303
aV\u9057\u7cbe
p304
aV\u6ed1\u7cbe
p305
aV\u6027\u6b32\u4f4e\u4e0b
p306
asV\u5973\u6027
p307
(lp308
V\u6708\u7ecf\u91cf\u591a
p309
aV\u6708\u7ecf\u91cf\u5c11
p310
aV\u7ecf\u91cf\u6b63\u5e38
p311
aV\u6708\u7ecf\u8d28\u7a00
p312
aV\u6708\u7ecf\u8272\u9ed1\u6216\u6709
p313
aV\u7ecf\u8fdf
p314
aV\u6708\u7ecf\u4e0d\u8c03
p315
aV\u6708\u7ecf\u8d28\u7a00\u6216\u8272
p316
aV\u6708\u7ecf\u8272\u9ed1
p317
aV\u6708\u7ecf\u8d85\u524d
p318
aV\u4e73\u6c41\u5c11
p319
aV\u4e73\u623f\u80c0\u75db
p320
assV\u4f53\u5f81
p321
(dp322
V\u8179\u90e8
p323
(lp324
V\u8179\u51b7
p325
aV\u8118\u8179\u4e0d\u9002
p326
aV\u8179\u90e8\u75de\u6ee1
p327
aV\u5c0f\u8179\u4e0d\u9002
p328
aV\u8179\u80c0
p329
aV\u65e0\u8179\u80c0
p330
aV\u5c0f\u8179\u4e0b\u5760
p331
aV\u5c11\u8179\u4e0b\u5760
p332
aV\u8110\u8179\u4e0d\u9002
p333
aV\u8179\u90e8\u4e0b\u5760
p334
aV\u5c11\u8179\u80c0\u95f7
p335
aV\u8118\u8179\u75de\u6ee1
p336
aV\u8118\u8179\u80c0\u6ee1
p337
aV\u8179\u5927
p338
aV\u8179\u90e8\u4e0d\u9002
p339
asV\u5934\u75c7\u72b6
p340
(lp341
V\u5934\u75db
p342
aV\u5934\u6655
p343
aV\u7729\u6655
p344
aV\u5934\u660f
p345
aV\u5934\u91cd
p346
aV\u5934\u80c0
p347
aV\u5934\u9876\u95f7\u80c0
p348
asV\u53e3\u820c
p349
(lp350
V\u53e3\u820c\u7cdc\u70c2
p351
aV\u53e3\u5507\u8272\u6de1
p352
aV\u5507\u8272\u6666\u6697
p353
aV\u53e3\u5507\u9752\u7d2b
p354
aV\u5507\u8d64
p355
aV\u53e3\u5507\u5e72\u71e5
p356
aV\u6cdb\u5410\u6e05\u6c34\u6d8e\u6cab
p357
aV\u6d41\u6d8e
p358
aV\u6cdb\u5410\u6e05\u6c34
p359
aV\u58f0\u91cd
p360
aV\u58f0\u4f4e
p361
aV\u58f0\u9ad8
p362
aV\u53e3\u4e2d\u7c98\u817b
p363
aV\u53e3\u81ed
p364
aV\u53e3\u6de1
p365
aV\u53e3\u82e6
p366
aV\u53e3\u8165
p367
aV\u53e3\u751c
p368
asV\u5168\u8eab\u75c7\u72b6
p369
(lp370
V\u754f\u5bd2
p371
aV\u5bd2\u6218
p372
aV\u6d6e\u80bf
p373
aV\u8eab\u75d2
p374
aV\u65e0\u8eab\u9ec4
p375
aV\u65e0\u6d6e\u80bf
p376
aV\u8eab\u9ec4
p377
aV\u6d88\u7626
p378
aV\u4f53\u5f31
p379
aV\u8eab\u91cd
p380
aV\u4f53\u578b\u6b63\u5e38
p381
aV\u6076\u5bd2
p382
aV\u65e0\u6076\u5bd2
p383
aV\u80a5\u80d6
p384
asV\u80f8\u8170\u80c1
p385
(lp386
V\u8170\u51b7
p387
aV\u80f8\u90e8\u75de\u6ee1
p388
aV\u4e73\u623f\u80c0\u75db
p389
aV\u80f8\u95f7
p390
aV\u8170\u9178
p391
aV\u8170\u819d\u9178\u8f6f
p392
aV\u80c1\u80c0
p393
aV\u80f8\u80c1\u80c0\u6ee1
p394
asV\u9762\u8272
p395
(lp396
V\u9762\u9ec4
p397
aV\u9762\u8272\u7d2b\u6697
p398
aV\u9762\u9752
p399
aV\u9762\u7ea2
p400
aV\u9762\u8272\u82cd\u767d
p401
aV\u9762\u90e8\u6d6e\u80bf
p402
aV\u9762\u8272\u6f6e\u7ea2
p403
aV\u9762\u9ed1
p404
aV\u9762\u8272\u840e\u9ec4
p405
aV\u9762\u8272\u604d\u767d
p406
aV\u9762\u8272\u865a\u6d6e
p407
aV\u9762\u767d
p408
aV\u9762\u8272\u6666\u6697
p409
aV\u9762\u8272\u65e0\u534e
p410
asV\u808c\u80a4\u56db\u80a2
p411
(lp412
V\u80a2\u4f53\u6d6e\u80bf
p413
aV\u80a2\u4f53\u9ebb\u6728
p414
aV\u65e0\u5f62\u5bd2\u80a2
p415
aV\u80a2\u4f53\u9178\u75db
p416
aV\u62bd\u6410
p417
aV\u5f62\u5bd2\u80a2\u51b7
p418
aV\u808c\u80a4\u7532\u9519
p419
aV\u808c\u80a4\u4e0d\u534e
p420
aV\u808c\u80a4\u5e72\u71e5
p421
aV\u8131\u53d1
p422
aV\u6bdb\u53d1\u4e0d\u8363
p423
aV\u722a\u7532\u65e0\u534e
p424
asV\u773c\u5589
p425
(lp426
V\u76ee\u9ec4
p427
aV\u76ee\u7729
p428
aV\u773c\u7a9d\u51f9\u9677
p429
aV\u4e24\u76ee\u65e0\u795e
p430
aV\u65e0\u76ee\u9ec4
p431
aV\u76ee\u660f
p432
aV\u773c\u7751\u80bf\u80c0
p433
aV\u75f0\u7a20
p434
aV\u5c11\u75f0\u6216\u65e0
p435
aV\u75f0\u591a
p436
aV\u75f0\u767d
p437
aV\u54bd\u5589\u5f02\u7269
p438
aV\u6d41\u6d95
p439
aV\u54bd\u5e72
p440
assV\u4e00\u822c\u75c7\u72b6
p441
(dp442
V\u5c0f\u4fbf
p443
(lp444
V\u5c0f\u4fbf\u4e0d\u5229
p445
aV\u591a\u5c3f
p446
aV\u591c\u5c3f\u591a
p447
aV\u5c0f\u4fbf\u6b63\u5e38
p448
aV\u5c0f\u4fbf\u6e05
p449
aV\u5c3f\u70ed
p450
aV\u65e0\u5c3f\u75db
p451
aV\u5c3f\u5931\u7981
p452
aV\u5c3f\u6d4a
p453
aV\u5c0f\u4fbf\u77ed\u5c11
p454
aV\u5c3f\u9ec4\u8d64
p455
aV\u5c3f\u9891\u5c3f\u6025
p456
asV\u5176\u4ed6\u75c7\u72b6
p457
(lp458
V\u6076\u9732\u5c11\u8bb8
p459
aV\u5584\u592a\u606f
p460
aV\u541e\u9178
p461
aV\u80c1\u808b\u75de\u95f7
p462
aV\u5443\u9006
p463
aV\u8131\u809b
p464
aV\u55f3\u8150
p465
aV\u5fc3\u60b8
p466
aV\u6076\u98ce
p467
aV\u9047\u5bd2
p468
aV\u809b\u95e8\u6f6e\u6e7f
p469
aV\u5e26\u4e0b\u591a
p470
aV\u6014\u5fe1
p471
aV\u4f53\u58ee
p472
aV\u9f3b\u8844
p473
aV\u55dc\u7761
p474
aV\u75c9\u631b
p475
aV\u9879\u5f3a
p476
aV\u9f7f\u8844
p477
aV\u8a00\u8bed\u91cd\u590d
p478
aV\u9634\u51b7
p479
asV\u5e38\u89c1
p480
(lp481
V\u6d41\u6d95
p482
aV\u54bd\u5e72
p483
aV\u6076\u5fc3\u5455\u5410
p484
aV\u65e0\u6076\u5fc3\u5455\u5410
p485
aV\u53d1\u70ed
p486
aV\u6613\u611f\u5192
p487
asV\u75bc\u75db
p488
(lp489
V\u5173\u8282\u75bc\u75db
p490
aV\u80a2\u4f53\u75bc\u75db
p491
aV\u8179\u75db
p492
aV\u820c\u75db
p493
aV\u8db3\u75db
p494
aV\u8eab\u75db
p495
aV\u9888\u75db
p496
aV\u65e0\u5c3f\u75db
p497
aV\u65e0\u8179\u75db
p498
aV\u8170\u75db
p499
asV\u53d1\u70ed\u7b49
p500
(lp501
V\u5c3a\u80a4\u707c\u70ed
p502
aV\u8eab\u70ed\u4e0d\u626c
p503
aV\u4e94\u5fc3\u70e6\u70ed
p504
aV\u8110\u8179\u707c\u70ed
p505
aV\u53d1\u70ed
p506
aV\u70e6\u70ed
p507
aV\u80f8\u90e8\u70d8\u70ed
p508
aV\u4f4e\u70ed
p509
aV\u80c3\u8118\u707c\u70ed
p510
aV\u65e0\u53d1\u70ed
p511
asV\u6c14
p512
(lp513
V\u5c11\u6c14
p514
aV\u5931\u6c14\u4e0d\u7545
p515
aV\u6c14\u5598
p516
aV\u6c14\u7c97
p517
aV\u6c14\u4fc3
p518
aV\u65e0\u5931\u6c14
p519
aV\u6c14\u7a9c
p520
aV\u5931\u6c14
p521
aV\u6c14\u77ed
p522
aV\u5931\u6c14\u5219\u8212
p523
aV\u55f3\u6c14\u5219\u8212
p524
aV\u55f3\u6c14
p525
asV\u51fa\u6c57
p526
(lp527
V\u591a\u6c57
p528
aV\u624b\u5fc3\u6c57\u51fa
p529
aV\u65e0\u6c57
p530
aV\u81ea\u6c57
p531
aV\u65e0\u76d7\u6c57
p532
aV\u5934\u6c57
p533
aV\u75db\u65f6\u6c57\u51fa
p534
asV\u8033\u9f3b\u80a0\u80c3
p535
(lp536
V\u80a0\u9e23
p537
aV\u80c3\u4e2d\u6c34\u58f0
p538
aV\u65e0\u80a0\u9e23
p539
aV\u8033\u9e23
p540
aV\u54b3\u58f0\u91cd\u6d4a
p541
aV\u54b3\u55fd
p542
aV\u9f3b\u585e
p543
aV\u58f0\u91cd
p544
aV\u58f0\u4f4e
p545
aV\u58f0\u9ad8
p546
ass.