(dp0
V\u810f\u5668
p1
(dp2
V\u80a0\u80c3
p3
(lp4
V\u80a0\u9e23
p5
aV\u8118\u95f7
p6
assV\u5927\u4fbf
p7
(dp8
V\u5176\u5b83
p9
(lp10
V\u6cc4\u6cfb
p11
asV\u4f34\u968f\u75c7\u72b6
p12
(lp13
V\u6cfb\u540e\u75db\u51cf
p14
asV\u4fbf\u8d28\u5f02\u5e38
p15
(lp16
V\u5927\u4fbf\u6e8f\u6cc4
p17
aV\u5927\u4fbf\u79d8\u7ed3
p18
aV\u5927\u4fbf\u5e72\u7a00\u4e0d\u8c03
p19
aV\u5927\u4fbf\u7c98\u6ede\u4e0d\u723d
p20
aV\u5927\u4fbf\u5b8c\u8c37\u4e0d\u5316
p21
aV\u4e0b\u75e2\u8113\u8840
p22
aV\u4fbf\u8840
p23
aV\u5927\u4fbf\u6392\u866b
p24
aV\u7caa\u8d28\u6e05\u51b7
p25
aV\u70ed\u7ed3\u65c1\u6d41
p26
asV\u989c\u8272\u5f02\u5e38
p27
(lp28
V\u5927\u4fbf\u8272\u9ed1\u5982\u6f06
p29
aV\u8272\u9ec4
p30
asV\u6c14\u5473\u5f02\u5e38
p31
(lp32
V\u4fbf\u81ed\u5982\u8d25\u5375
p33
asV\u6392\u4fbf\u611f\u5f02\u5e38
p34
(lp35
V\u5927\u4fbf\u5931\u7981
p36
aV\u6cfb\u4e0b\u4e0d\u723d
p37
aV\u91cc\u6025\u540e\u91cd
p38
aV\u809b\u95e8\u6c14\u5760
p39
asV\u4fbf\u6b21\u5f02\u5e38
p40
(lp41
V\u6570\u65e5\u4e00\u884c
p42
aV\u4e45\u6cc4\u4e0d\u6b62
p43
assV\u751f\u6b96
p44
(dp45
V\u7537\u6027\u751f\u6b96\u75be\u75c5
p46
(lp47
V\u9057\u7cbe
p48
aV\u6ed1\u7cbe
p49
aV\u65e9\u6cc4
p50
aV\u7cbe\u5c11\u4e0d\u80b2
p51
aV\u9633\u75ff
p52
aV\u7cbe\u51b7
p53
aV\u9634\u90e8\u7619\u75d2
p54
aV\u9634\u56ca\u6e7f\u75b9
p55
aV\u6027\u6b32\u51cf\u9000
p56
aV\u6027\u673a\u80fd\u4f4e\u4e0b
p57
asV\u5973\u6027\u751f\u6b96\u75c5
p58
(lp59
V\u80ce\u52a8\u6613\u6ed1
p60
aV\u9634\u56ca\u6e7f\u75b9
p61
assV\u820c\u8d28
p62
(dp63
V\u820c\u8272
p64
(lp65
V\u820c\u6de1\u7ea2
p66
aV\u820c\u7edb
p67
aV\u820c\u7ea2
p68
aV\u820c\u9752\u7d2b
p69
aV\u820c\u6de1\u767d
p70
asV\u820c\u5f62
p71
(lp72
V\u820c\u6de1\u80d6
p73
aV\u820c\u6709\u8292\u523a
p74
aV\u7126\u9ed1\u8d77\u523a
p75
aV\u820c\u6709\u9f7f\u75d5\u53e3\u820c\u751f\u75ae
p76
asV\u820c\u6001
p77
(lp78
V\u820c\u5f3a\u4e0d\u8bed
p79
aV\u820c\u539a
p80
assV\u624b\u8db3
p81
(dp82
V\u59ff\u6001
p83
(lp84
V\u624b\u8db3\u8815\u52a8
p85
aV\u624b\u8db3\u9707\u98a4\u3001\u9707\u98a4
p86
aV\u624b\u8db3\u62bd\u6410
p87
aV\u62d8\u631b
p88
asV\u6c57
p89
(lp90
V\u624b\u8db3\u6fc8\u7136\u6c57\u51fa
p91
assV\u5468\u8eab
p92
(dp93
V\u611f\u89c9\u5f02\u5e38
p94
(lp95
V\u795e\u75b2\u4e4f\u529b
p96
aV\u5934\u8eab\u56f0\u91cd
p97
aV\u8eab\u91cd\u56f0\u5026
p98
assV\u751f\u957f\u53d1\u80b2
p99
(dp100
V\u5c0f\u513f\u751f\u957f\u53d1\u80b2
p101
(lp102
V\u53d1\u80b2\u8fdf\u7f13
p103
aV\u56df\u95e8\u8fdf\u95ed
p104
aV\u9aa8\u9abc\u75ff\u8f6f
p105
aV\u667a\u529b\u4f4e\u4e0b
p106
aV\u4e24\u8db3\u75ff\u8f6f
p107
asV\u6210\u4eba\u751f\u957f\u53d1\u80b2
p108
(lp109
V\u6210\u4eba\u65e9\u8870
p110
aV\u52a8\u4f5c\u8fdf\u949d
p111
assV\u6c14
p112
(dp113
V\u6c14\u5598
p114
(lp115
V\u547c\u5438\u5fae\u5f31
p116
assV\u996e\u98df
p117
(dp118
V\u98df\u91cf
p119
(lp120
V\u98df\u5c11
p121
aV\u7eb3\u5c11
p122
asV\u98df\u6b32
p123
(lp124
V\u98df\u6b32\u51cf\u9000
p125
aV\u98df\u6b32\u4e0d\u632f
p126
aV\u538c\u98df
p127
aV\u9965\u4e0d\u6b32\u98df
p128
aV\u98df\u4e0d\u4e0b
p129
aV\u7eb3\u5446
p130
aV\u504f\u55dc\u98df\u7269
p131
aV\u55dc\u98df\u5f02\u7269
p132
asV\u53e3\u6e34
p133
(lp134
V\u6e34\u4e0d\u591a\u996e
p135
aV\u6e34\u6b32\u996e\u6c34
p136
assV\u5bd2\u70ed
p137
(dp138
V\u611f\u89c9\u5f02\u5e38
p139
(lp140
V\u5f97\u6e29\u75db\u51cf
p141
aV\u6e34\u6b32\u996e\u51b7
p142
assV\u82d4\u8c61
p143
(dp144
V\u82d4\u8272
p145
(lp146
V\u82d4\u767d
p147
aV\u82d4\u9ec4
p148
aV\u82d4\u9ed1
p149
aV\u82d4\u6de1
p150
aV\u82d4\u7126
p151
asV\u82d4\u8d28
p152
(lp153
V\u82d4\u6ed1
p154
aV\u82d4\u5c11
p155
aV\u82d4\u539a
p156
aV\u82d4\u817b
p157
aV\u82d4\u71e5
p158
aV\u82d4\u88c2
p159
aV\u82d4\u8584
p160
aV\u82d4\u6da6
p161
aV\u82d4\u523a
p162
assV\u5598\u606f
p163
(dp164
V\u5598\u75c7
p165
(lp166
V\u54b3\u5598
p167
aV\u5598\u606f
p168
aV\u52a8\u5219\u5598\u606f
p169
assV\u54b3\u55fd
p170
(dp171
V\u4f34\u968f\u75c7\u72b6
p172
(lp173
V\u75f0\u9e23
p174
aV\u75f0\u4e2d\u5e26\u8840
p175
aV\u54b3\u8840
p176
asV\u75f0\u8272
p177
(lp178
V\u75f0\u9ec4
p179
asV\u75f0\u8d28
p180
(lp181
V\u75f0\u9ec4\u7a20\u7c98
p182
aV\u75f0\u6e05
p183
asV\u75f0\u91cf
p184
(lp185
V\u75f0\u591a
p186
aV\u75f0\u6e05\u7a00
p187
aV\u5c11\u75f0
p188
asV\u54b3\u55fd
p189
(lp190
V\u5e72\u54b3
p191
aV\u54af\u75f0
p192
aV\u4e45\u54b3\u4e0d\u6b62
p193
aV\u54b3\u8840
p194
aV\u54b3\u55fd\u9635\u4f5c
p195
assV\u5455\u5410
p196
(dp197
V\u5455\u5410\u7269
p198
(lp199
V\u5455\u5410\u86d4\u866b
p200
aV\u5455\u5410\u6e05\u6d8e
p201
assV\u4e00\u822c
p202
(dp203
V\u808c\u80a4
p204
(lp205
V\u808c\u8089\u77a4\u52a8
p206
aV\u808c\u80a4\u75ae\u75a1
p207
aV\u76ae\u80a4\u5e72\u71e5\u751a\u67af\u762a
p208
aV\u76ae\u80a4\u53d1\u75d2
p209
aV\u9c9c\u5982\u6854\u8272
p210
aV\u808c\u80a4\u75ae\u75a1
p211
aV\u6666\u6697\u4e0d\u6cfd
p212
aV\u8eab\u9ec4
p213
assV\u5934
p214
(dp215
V\u95ee\u9888\u9879
p216
(lp217
V\u9879\u5f3a
p218
aV\u9888\u9879\u5f3a\u76f4
p219
asV\u611f\u89c9\u5f02\u5e38
p220
(lp221
V\u7729\u6655
p222
asV\u671b\u8bca\u5934
p223
(lp224
V\ufeff\u5934\u6447
p225
asV\u95ee\u8bca\u5934
p226
(lp227
V\u5934\u6655
p228
aV\u5934\u80c0
p229
assV\u53e3\u5507\u9f7f
p230
(dp231
V\u53e3\u5473
p232
(lp233
V\u53e3\u6de1\u4e0d\u6e34
p234
aV\u53e3\u82e6
p235
aV\u53e3\u817b
p236
aV\u53e3\u81ed
p237
aV\u53e3\u6cdb\u6e05\u6c34
p238
asV\u53e3\u5507\u8272\u6cfd
p239
(lp240
V\u53e3\u5507\u9752\u7d2b
p241
asV\u7259\u9f7f
p242
(lp243
V\u53d1\u8131\u9f7f\u6447
p244
aV\u9f7f\u677e\u53d1\u8131
p245
aV\u7761\u4e2d\u9f58\u9f7f
p246
aV\u7259\u5173\u7d27\u95ed
p247
asV\u53e3\u6e34\u4e0e\u996e\u6c34
p248
(lp249
V\u53e3\u5e72
p250
aV\u53e3\u6e34
p251
asV\u53e3\u5507\u5f62\u6001
p252
(lp253
V\u5507\u88c2
p254
aV\u53e3\u773c\u558e\u659c
p255
aV\u53e3\u5410\u6d8e\u6cab
p256
aV\u53e3\u4e2d\u5982\u732a\u7f8a\u53eb\u58f0
p257
assV\u80a2\u4f53
p258
(dp259
V\u611f\u89c9\u5f02\u5e38
p260
(lp261
V\u80a2\u51b7
p262
aV\u56db\u80a2\u53a5\u51b7
p263
aV\u5f62\u5bd2\u80a2\u51b7
p264
aV\u8170\u819d\u9178\u8f6f
p265
aV\u80a2\u4f53\u9ebb\u6728
p266
aV\u80a2\u51b7\u4e0d\u6e29
p267
aV\u80a2\u4f53\u5026\u6020
p268
aV\u80a2\u4f53\u6c89\u91cd\u56f0\u5026
p269
aV\u80a2\u4f53\u56f0\u91cd
p270
aV\u8170\u819d\u9178\u51b7
p271
aV\u56db\u80a2\u6b20\u6e29
p272
aV\u5f62\u5bd2\u80a2\u51c9
p273
aV\u80a2\u4f53\u4e0d\u6e29
p274
asV\u59ff\u6001
p275
(lp276
V\u80a2\u4f53\u9707\u98a4
p277
aV\u56db\u80a2\u62bd\u6410
p278
aV\u80a2\u53a5
p279
aV\u7608\u75ad
p280
aV\u6b65\u5c65\u4e0d\u6b63
p281
aV\u5173\u8282\u62d8\u6025\u4e0d\u5229
p282
assV\u8109\u8c61
p283
(dp284
V\u6d6e\u8109
p285
(lp286
V\u8109\u6d6e
p287
aV\u8109\u6d2a
p288
aV\u8109\u6fe1
p289
asV\u5176\u5b83
p290
(lp291
V\u8109\u5927
p292
aV\u8109\u6709
p293
aV\u8109\u65e0
p294
aV\u8109\u4e24
p295
aV\u8109\u5bf8
p296
aV\u8109\u72ec
p297
asV\u865a\u8109
p298
(lp299
V\u8109\u7ec6
p300
aV\u8109\u865a
p301
aV\u8109\u5fae
p302
aV\u8109\u4ee3
p303
asV\u6c89\u8109
p304
(lp305
V\u8109\u6c89
p306
aV\u8109\u5f31
p307
asV\u5b9e\u8109
p308
(lp309
V\u8109\u5f26
p310
aV\u8109\u6ed1
p311
aV\u8109\u7d27
p312
aV\u8109\u5b9e
p313
aV\u8109\u529b
p314
asV\u8fdf\u8109
p315
(lp316
V\u8109\u6da9
p317
aV\u8109\u7ed3
p318
aV\u8109\u7f13
p319
aV\u8109\u8fdf
p320
asV\u6570\u8109
p321
(lp322
V\u8109\u6570
p323
assV\u5973\u6027
p324
(dp325
V\u7ecf\u91cf
p326
(lp327
V\u6708\u7ecf\u91cf\u5c11
p328
aV\u6708\u7ecf\u4e0d\u5c3d
p329
aV\u6708\u7ecf\u91cf\u591a
p330
aV\u6708\u7ecf\u6e05\u7a00
p331
aV\u95ed\u7ecf
p332
aV\u5d29\u6f0f
p333
asV\u5916\u90e8\u611f\u89c9\u5f02\u5e38
p334
(lp335
V\u9634\u90e8\u7619\u75d2
p336
asV\u5e26\u4e0b
p337
(lp338
V\u767d\u5e26\u91cf\u591a
p339
aV\u5e26\u4e0b\u8272\u9ec4\u79fd\u81ed
p340
aV\u5e26\u4e0b\u91cf\u591a
p341
asV\u5987\u5973\u598a\u5a20
p342
(lp343
V\u5bab\u5bd2\u4e0d\u5b55
p344
asV\u7ecf\u8272
p345
(lp346
V\u6708\u7ecf\u8272\u6de1
p347
assV\u8179\u90e8
p348
(dp349
V\u8179\u90e8\u611f\u89c9\u5f02\u5e38
p350
(lp351
V\u8179\u80c0
p352
aV\u8179\u75db
p353
aV\u8179\u6cfb
p354
aV\u5c11\u8179\u51b7
p355
aV\u5e72\u5455\u5443\u9006
p356
aV\u5410\u540e\u75db\u7f13
p357
aV\u80c3\u8118\u5608\u6742
p358
assV\u611f\u89c9\u5f02\u5e38
p359
(dp360
V\u5bd2\u70ed
p361
(lp362
V\u9047\u5bd2\u52a0\u5267
p363
aV\u6076\u5bd2
p364
aV\u8eab\u70ed
p365
aV\u5f97\u6e29\u5219\u51cf
p366
asV\u80f8\u90e8
p367
(lp368
V\u501a\u606f\u4e0d\u5f97\u5e73\u5367
p369
aV\u6014\u5fe1
p370
aV\u5fc3\u60b8\u6014\u5fe1
p371
aV\u80c1\u80c0
p372
aV\u80c1\u4e0b\u7665\u5757
p373
aV\u80f8\u95f7
p374
aV\u80f8\u75db
p375
aV\u80f8\u80c1\u95f7\u80c0
p376
aV\u6c14\u77ed
p377
aV\u6c14\u7c97
p378
aV\u6c14\u4e0a\u649e\u5fc3
p379
aV\u5fc3\u60b8\u6014\u5fe1
p380
aV\u80c1\u80c0
p381
aV\u80c1\u4e0b\u7665\u5757
p382
aV\u80f8\u95f7
p383
aV\u80f8\u75db
p384
asV\u5934\u9885\u624b\u8db3
p385
(lp386
V\u9192\u540e\u5982\u5e38\u4eba
p387
aV\u624b\u8db3\u5fc3\u70ed
p388
aV\u624b\u8db3\u9ebb\u6728
p389
aV\u7729\u6655
p390
aV\u5065\u5fd8
p391
assV\u795e\u5fd7
p392
(dp393
V\u7761\u7720
p394
(lp395
V\u5931\u7720
p396
aV\u591a\u68a6
p397
asV\u795e\u5fd7\u5f02\u5e38
p398
(lp399
V\u795e\u660f\u8c35\u8bed
p400
aV\u7cbe\u795e\u6291\u90c1
p401
aV\u795e\u5fd7\u75f4\u5446
p402
aV\u5982\u72c2\u53d1\u72c2
p403
aV\u895c\u8bed
p404
aV\u610f\u8bc6\u6a21\u7cca
p405
assV\u5c0f\u4fbf
p406
(dp407
V\u5c3f\u91cf\u5f02\u5e38
p408
(lp409
V\u5c0f\u4fbf\u6e05
p410
aV\u5c0f\u4fbf\u957f
p411
aV\u5c0f\u4fbf\u77ed
p412
aV\u5c0f\u4fbf\u5c11
p413
aV\u5c0f\u4fbf\u591a
p414
asV\u5c3f\u8d28\u5f02\u5e38
p415
(lp416
V\u5c3f\u8840
p417
aV\u5c0f\u4fbf\u6d51\u6d4a
p418
asV\u989c\u8272\u5f02\u5e38
p419
(lp420
V\u5c0f\u4fbf\u9ec4
p421
asV\u5c3f\u6b21\u5f02\u5e38
p422
(lp423
V\u5c3f\u9891
p424
asV\u6392\u5c3f\u611f\u5f02\u5e38
p425
(lp426
V\u5c3f\u9053\u707c\u75db
p427
aV\u5c3f\u6025
p428
aV\u5c0f\u4fbf\u81ea\u5229
p429
aV\u5c0f\u4fbf\u4e0d\u5229
p430
aV\u9057\u5c3f
p431
aV\u5c0f\u4fbf\u5931\u7981
p432
assV\u559c\u5584
p433
(dp434
V\u95ee\u98df\u6b32
p435
(lp436
V\u6d88\u8c37\u5584\u9965
p437
asV\u611f\u89c9\u5f02\u5e38
p438
(lp439
V\u559c\u51b7\u996e
p440
aV\u559c\u6696
p441
aV\u559c\u6309
p442
aV\u559c\u6e29
p443
assV\u5176\u5b83
p444
(dp445
V\u8840\u75c7
p446
(lp447
V\u6eba\u8840
p448
aV\u9f7f\u8844
p449
aV\u76ae\u4e0b\u51fa\u8840
p450
aV\u5410\u8840
p451
asV\u611f\u89c9\u5f02\u5e38
p452
(lp453
V\u9047\u5bd2\u52a0\u5267
p454
aV\u8eab\u70ed
p455
aV\u5f97\u6e29\u5219\u51cf
p456
aV\u9192\u540e\u5982\u5e38\u4eba
p457
aV\u624b\u8db3\u5fc3\u70ed
p458
aV\u76ae\u80a4\u53d1\u75d2
p459
aV\u501a\u606f\u4e0d\u5f97\u5e73\u5367
p460
aV\u541e\u9178\u5608\u6742
p461
aV\u75bc\u75db\u62d2\u6309
p462
aV\u5fc3\u4e2d\u75bc\u70ed
p463
aV\u8bed\u8a00\u8b07\u6da9
p464
assV\u6c57
p465
(dp466
V\u6c57
p467
(lp468
V\u81ea\u6c57
p469
aV\u76d7\u6c57
p470
aV\u6c57\u5927\u51fa
p471
aV\u51b7\u6c57\u6dcb\u6f13
p472
aV\u65e0\u6c57
p473
assV\u8bed\u8a00\u58f0\u97f3
p474
(dp475
V\u58f0\u97f3
p476
(lp477
V\u8bed\u58f0\u4f4e\u602f
p478
aV\u58f0\u4f4e
p479
aV\u58f0\u97f3\u5636\u54d1
p480
assV\u53d1\u70ed
p481
(dp482
V\u5bd2\u70ed
p483
(lp484
V\u53d1\u70ed
p485
aV\u5916\u611f\u70ed\u75c5
p486
aV\u6f6e\u70ed
p487
aV\u70e6\u70ed
p488
aV\u809b\u95e8\u707c\u70ed
p489
aV\u9ad8\u70ed
p490
aV\u65e5\u6661\u6f6e\u70ed
p491
aV\u9aa8\u84b8\u53d1\u70ed
p492
assV\u8033\u9f3b
p493
(dp494
V\u9f3b
p495
(lp496
V\u9f3b\u8844
p497
aV\u9f3b\u7ffc\u717d\u52a8
p498
aV\u9f3b\u585e
p499
aV\u9f3b\u9e23
p500
aV\u9f3b\u75d2
p501
aV\u9f3b\u6d41\u6e05\u6d95
p502
aV\u9f3b\u717d\u6c14\u707c
p503
asV\u8033
p504
(lp505
V\u8033\u804b
p506
aV\u8033\u9e23\u5982\u8749
p507
assV\u8eab\u4f53
p508
(dp509
V\u5f62\u4f53
p510
(lp511
V\u5f62\u4f53\u6d88\u7626
p512
aV\u8eab\u4f53\u77ee\u5c0f
p513
aV\u4f53\u80d6
p514
aV\u6d6e\u80bf
p515
aV\u6c34\u80bf
p516
aV\u534a\u8eab\u4e0d\u9042
p517
aV\u8eab\u91cd\u56f0\u5026
p518
aV\u80a2\u4f53\u6d6e\u80bf
p519
assV\u9762
p520
(dp521
V\u9762\u8272
p522
(lp523
V\u9762\u9ec4
p524
aV\u9762\u767d
p525
aV\u9762\u65e0\u534e
p526
aV\u9762\u7ea2
p527
aV\u9762\u9752
p528
aV\u9762\u8272\u6666\u6ede
p529
aV\u9762\u9ee7\u9ed1
p530
aV\u4e24\u98a7\u53d1\u7ea2
p531
asV\u9762\u90e8\u611f\u89c9\u5f02\u5e38
p532
(lp533
V\u9762\u90e8\u70d8\u70ed
p534
assV\u75bc\u75db\u90e8\u4f4d
p535
(dp536
V\u8033\u9f3b
p537
(lp538
V\u9470\u51b2\u5534\u9472\u8de8\u68dd\u5a34\u4f7d\u5275
p539
asV\u8179\u90e8
p540
(lp541
V\u9473\u51ad\u527a\u940f\u80a9\u68dd
p542
asV\u76c6\u8154
p543
(lp544
V\u777e\u4e38\u80bf\u80c0\u70ed\u75db
p545
aV\u9634\u90e8\u5760\u80c0\u4f5c\u75db
p546
aV\u9634\u56ca\u6536\u7f29\u5f15\u75db
p547
aV\u75db\u7ecf
p548
asV\u5934\u9879
p549
(lp550
V\u6fb6\u64ae\u300d\u5bee\u8679\u68dd
p551
asV\u8170\u80cc\u8eab\u4f53
p552
(lp553
V\u8170\u75db
p554
aV\u8eab\u4f53\u75bc\u75db
p555
asV\u80f8\u80c1
p556
(lp557
V\u935c\u85c9\u6786\u7efe\u3223\u506a\u9424\u80a9\u68dd
p558
asV\u9f7f\u9f88
p559
(lp560
V\u9417\u6b13\u7de2\u9472\u8de8\u68dd\u5a67\u51aa\u510c
p561
asV\u54bd\u90e8
p562
(lp563
V\u935c\u85c9\u6786\u7efe\u3223\u506a\u9424\u80a9\u68dd
p564
assV\u60c5\u7eea
p565
(dp566
V\u60c5\u5fd7\u5f02\u5e38
p567
(lp568
V\u60c5\u6000\u6291\u90c1
p569
aV\u8868\u60c5\u6de1\u6f20
p570
aV\u6025\u8e81\u6613\u6012
p571
aV\u70e6\u8e81\u4e0d\u5b89
p572
aV\u80c6\u602f\u6613\u60ca
p573
aV\u7729\u6655\u6b32\u4ec6
p574
aV\u5583\u5583\u72ec\u8bed
p575
aV\u4e3e\u6b62\u5931\u5e38
p576
aV\u8bed\u8a00\u4e0d\u6e05
p577
aV\u5584\u592a\u606f
p578
assV\u75bc\u75db
p579
(dp580
V\u75bc\u75db\u6027\u8d28
p581
(lp582
V\u75db\u800c\u62d2\u6309
p583
aV\u75db\u5904\u62d2\u6309
p584
aV\u80c0\u75db
p585
aV\u75db\u5982\u9488\u523a
p586
aV\u75db\u52bf\u82e5\u5288
p587
aV\u707c\u70ed\u75bc\u75db
p588
assV\u76ee
p589
(dp590
V\u671b\u76ee
p591
(lp592
V\u4e24\u76ee\u4e0a\u89c6
p593
aV\u773c\u7403\u6df1\u9677
p594
aV\u767d\u6674\u89c1\u84dd\u6591
p595
asV\u95ee\u76ee
p596
(lp597
V\u76ee\u7729
p598
aV\u89c6\u529b\u51cf\u9000
p599
aV\u591c\u76f2
p600
aV\u773c\u82b1
p601
aV\u76ee\u8d64
p602
aV\u4e24\u76ee\u5e72\u6da9
p603
assV\u6076
p604
(dp605
V\u98df\u6b32
p606
(lp607
V\u6cdb\u6076\u6b32\u5410
p608
aV\u6c14\u5473\u6076\u81ed
p609
aV\u6cdb\u6076\u6b32\u5455
p610
aV\u6076\u5fc3
p611
aV\u5455\u6076
p612
asV\u611f\u89c9\u5f02\u5e38
p613
(lp614
V\u6076\u5bd2
p615
aV\u5fae\u6076\u98ce\u5bd2
p616
aV\u4e0d\u6076\u5bd2
p617
aV\u6076\u70ed
p618
aV\u6076\u98ce
p619
assV\u54bd\u5589
p620
(dp621
V\u611f\u89c9\u5f02\u5e38
p622
(lp623
V\u54bd\u5e72
p624
aV\u5589\u4e2d\u75f0\u9e23
p625
aV\u54bd\u90e8\u5f02\u7269\u611f
p626
ass.