(dp0
Vshsg
p1
V\u751f\u5316\u80be\u529f
p2
sVzskt
p3
V\u81ea\u8eab\u6297\u4f53
p4
sVygwx
p5
V\u4e59\u578b\u809d\u708e\u6807\u5fd7\u4e94\u9879
p6
sVxzqx
p7
V\u8840\u8102\u5168\u9879
p8
sVygjc
p9
V\u4e59\u809d\u68c0\u6d4b
p10
sVshqxzh
p11
V\u751f\u5316\u5168\u9879\u7ec4\u5408
p12
sVnxsx
p13
V\u51dd\u8840\u56db\u9879
p14
sVfslfs
p15
V\u98ce\u6e7f\u7c7b\u98ce\u6e7f
p16
sVtymy
p17
V\u4f53\u6db2\u514d\u75ab
p18
sVjgqt
p19
V\u7532\u529f\u5168\u5957
p20
sVshxz
p21
V\u751f\u5316\u8840\u8102
p22
s.