(dp0
V\u8f7b\u54b3
p1
I0
sV\u5c11\u75f0
p2
I0
sV\u5c3f\u91cf\u4e0d\u5c11
p3
I0
sV\u5c3f\u8272\u6b63\u5e38
p4
I0
sV\u9ad8\u70ed\u4f34\u8179\u6cfb
p5
I0
sV\u8fdb\u98df\u540e\u5373\u5410
p6
I0
sV\u5bd2\u6218
p7
I0
sV\u4e0a\u8179\u75db
p8
I0
sV\u4f4e\u70ed
p9
I0
sV\u5c3f\u9891
p10
I0
sV\u5934\u75db\u52a0\u91cd
p11
I0
sV\u95f4\u65ad\u54b3\u55fd
p12
I0
sV\u54b3\u91cd
p13
I0
sV\u5934\u75db\u6e10\u52a0\u91cd
p14
I0
sV\u5c3f\u91cf\u6b63\u5e38
p15
I0
sV\u5c3f\u75db
p16
I0
sV\u54b3\u55fd
p17
I0
sV\u80f8\u75db
p18
I0
sV\u6709\u75f0
p19
I0
sV\u5c3f\u8272\u9ec4
p20
I0
sV\u54b3\u75f0
p21
I0
sV\u5455\u5410
p22
I0
sV\u54bd\u75db
p23
I0
sV\u6709\u9ec4\u75f0
p24
I0
sV\u70ed\u54b3
p25
I0
sV\u5927\u4fbf\u6b21\u6570\u589e\u591a
p26
I0
sV\u6392\u5c3f\u8d39\u529b
p27
I0
sV\u5c3f\u8272\u6df1
p28
I0
sV\u4f53\u6e29\u4e0d\u964d
p29
I0
sV\u545b\u54b3
p30
I0
sV\u5c0f\u4fbf\u6b63\u5e38
p31
I0
sV\u5410\u5976
p32
I0
sV\u5934\u75db
p33
I0
sV\u95f4\u65ad\u5455\u5410
p34
I0
sV\u201c\u9e21\u9e23\u201d\u6837\u5438\u6c14\u6027\u543c\u58f0
p35
I0
sV\u6ce1\u6cab
p36
I0
sV\u9ec4\u7a00\u6c34\u4fbf
p37
I0
sV\u9635\u53d1\u6027\u54b3\u55fd
p38
I0
sV\u767d\u75f0
p39
I0
sV\u72ac\u5420\u6837
p40
I0
sV\u53cd\u590d\u53d1\u70ed
p41
I0
sV\u53d1\u70ed
p42
I0
sV\u53cd\u590d\u54b3\u55fd
p43
I0
sV\u5c3f\u8272\u4e0d\u9ec4
p44
I0
sV\u58f0\u54b3
p45
I0
sV\u6301\u7eed\u6027\u8179\u75db
p46
I0
sV\u5e72\u54b3
p47
I0
sV\u5c3f\u91cf\u660e\u663e\u589e\u591a
p48
I0
sV\u9ad8\u70ed
p49
I0
sV\u9888\u90e8\u5305\u5757
p50
I0
sV\u8179\u6cfb
p51
I0
sV\u5c3f\u5c11
p52
I0
sV\u754f\u5bd2
p53
I0
sV\u9635\u54b3
p54
I0
sV\u8179\u75db
p55
I0
sV\u591a\u5c3f
p56
I0
sV\ufeff\u4f4e\u70ed
p57
I0
sV\u4e0d\u80fd\u81ea\u4e3b\u6392\u5c3f
p58
I0
sV\u76ae\u75b9
p59
I0
s.