(dp0
V\u8179\u6cfb
p1
(lp2
V\u8179\u6cfb
p3
aV\u9ad8\u70ed\u4f34\u8179\u6cfb
p4
aV\u65e0\u7c98\u6db2
p5
aV\u65e0\u8179\u6cfb
p6
aV\u5927\u4fbf\u6b21\u6570\u589e\u591a
p7
aV\u9ec4\u7a00\u6c34\u4fbf
p8
aV\u6ce1\u6cab
p9
asV\u5c0f\u4fbf\u5f02\u5e38
p10
(lp11
V\u5c3f\u75db
p12
aV\u5c3f\u9891
p13
aV\u5c3f\u5c11
p14
aV\u65e0\u8089\u773c\u8840\u5c3f
p15
aV\u5c3f\u8272\u6df1
p16
aV\u65e0\u5c3f\u9891
p17
aV\u5c3f\u91cf\u660e\u663e\u589e\u591a
p18
aV\u65e0\u591a\u5c3f
p19
aV\u5c3f\u91cf\u6b63\u5e38
p20
aV\u5c3f\u8272\u9ec4
p21
aV\u591a\u5c3f
p22
aV\u4e0d\u80fd\u81ea\u4e3b\u6392\u5c3f
p23
aV\u6392\u5c3f\u8d39\u529b
p24
aV\u65e0\u5c11\u5c3f
p25
aV\u5c3f\u8272\u6b63\u5e38
p26
aV\u65e0\u5c3f\u75db
p27
aV\u5c0f\u4fbf\u6b63\u5e38
p28
aV\u5c3f\u8272\u4e0d\u9ec4
p29
aV\u5c3f\u91cf\u4e0d\u5c11
p30
asV\u5934\u75db
p31
(lp32
V\u5934\u75db
p33
aV\u5934\u75db\u52a0\u91cd
p34
aV\u5934\u75db\u6e10\u52a0\u91cd
p35
aV\u65e0\u5934\u75db
p36
asV\u54b3\u55fd
p37
(lp38
V\u95f4\u65ad\u54b3\u55fd
p39
aV\u54b3\u55fd
p40
aV\u6709\u75f0
p41
aV\u53cd\u590d\u54b3\u55fd
p42
aV\u545b\u54b3
p43
aV\u58f0\u54b3
p44
aV\u8f7b\u54b3
p45
aV\u5e72\u54b3
p46
aV\u65e0\u54b3\u55fd
p47
aV\u65e0\u54b3\u75f0
p48
aV\u65e0\u996e\u6c34\u545b\u54b3
p49
aV\u65e0\u75f0
p50
aV\u54b3\u91cd
p51
aV\u54b3\u75f0
p52
aV\u767d\u75f0
p53
aV\u6709\u9ec4\u75f0
p54
aV\u5c11\u75f0
p55
aV\u70ed\u54b3
p56
aV\u9635\u53d1\u6027\u54b3\u55fd
p57
aV\u9635\u54b3
p58
aV\u72ac\u5420\u6837
p59
aV\u201c\u9e21\u9e23\u201d\u6837\u5438\u6c14\u6027\u543c\u58f0
p60
asV\u9888\u90e8\u5305\u5757
p61
(lp62
V\u9888\u90e8\u5305\u5757
p63
asV\u5455\u5410
p64
(lp65
V\u65e0\u5455\u5410
p66
aV\u5455\u5410
p67
aV\u5410\u5976
p68
aV\u95f4\u65ad\u5455\u5410
p69
aV\u8fdb\u98df\u540e\u5373\u5410
p70
aV\u65e0\u5455\u8840
p71
aV\u65e0\u53cd\u9178
p72
asV\u80f8\u75db
p73
(lp74
V\u80f8\u75db
p75
aV\u65e0\u80f8\u75db
p76
asV\u8179\u75db
p77
(lp78
V\u4e0a\u8179\u75db
p79
aV\u8179\u75db
p80
aV\u65e0\u4e0a\u8179\u75db
p81
aV\u6301\u7eed\u6027\u8179\u75db
p82
aV\u65e0\u8179\u75db
p83
asV\u76ae\u80a4\u75c7\u72b6
p84
(lp85
V\u76ae\u75b9
p86
asV\u54bd\u90e8\u4e0d\u9002
p87
(lp88
V\u54bd\u75db
p89
asV\u53d1\u70ed
p90
(lp91
V\ufeff\u4f4e\u70ed
p92
aV\u53cd\u590d\u53d1\u70ed
p93
aV\u53d1\u70ed
p94
aV\u9ad8\u70ed\u4f34\u8179\u6cfb
p95
aV\u4f4e\u70ed
p96
aV\u5bd2\u6218
p97
aV\u754f\u5bd2
p98
aV\u65e0\u754f\u5bd2
p99
aV\u65e0\u53d1\u70e7
p100
aV\u65e0\u53d1\u70ed
p101
aV\u9ad8\u70ed
p102
aV\u4f53\u6e29\u4e0d\u964d
p103
aV\u65e0\u5bd2\u6218
p104
aV\u65e0\u4f4e\u70ed
p105
as.