(dp0
V\u751f\u5316\u8840\u8102
p1
(dp2
V\u4f4e\u5bc6\u5ea6\u8102\u86cb\u767d\u80c6\u56fa\u9187(mmol/L)
p3
V-3.3
p4
sV\u603b\u80c6\u56fa\u9187(mmol/L)
p5
V-5.18
p6
sV\u8f7d\u8102\u86cb\u767d-B
p7
V40.0-200.0
p8
sVC-\u53cd\u5e94\u86cb\u767d
p9
V
p10
sV\u7518\u6cb9\u4e09\u916f(mmol/L)
p11
V-2.83
p12
sV\u8f7d\u8102\u86cb\u767d-A1
p13
g10
sV\u8840\u6e05\u8102\u86cb\u767d\uff08a\uff09(mg/dl)
p14
V-30.0
p15
sV\u9ad8\u5bc6\u5ea6\u8102\u86cb\u767d\u80c6\u56fa\u9187(mmol/L)
p16
V1-
p17
ssV\u751f\u5316\u80be\u529f
p18
(dp19
V\u94be\uff08\u8840/\u5c3f\u6216\u4f53\u6db2\uff09(mmol/L)
p20
V3.5-5.3
p21
sV\u603b\u9499\uff08\u8840/\u5c3f\uff09(mmol/L)
p22
V2.11-2.52
p23
sV\u6c2f\uff08\u8840/\u5c3f\u6216\u4f53\u6db2\uff09(mmol/L)
p24
V99.0-110.0
p25
sV\u94a0\uff08\u8840/\u5c3f\u6216\u4f53\u6db2\uff09(mmol/L)
p26
V137-147
p27
sV\u808c\u9150(umol/L)
p28
V41.0-73.0
p29
sV\u5c3f\u7d20\u6c2e(mmol/L)
p30
V2.60-7.50
p31
sV\u4e8c\u6c27\u5316\u78b3(mmol/L)
p32
V20.0-31.0
p33
sV\u5c3f\u9178(umol/L)
p34
V155-357
p35
sV\u8840\u6e05\u9541(mmol/L)
p36
V0.70-1.15
p37
sV\u65e0\u673a\u78f7\uff08\u8840/\u5c3f\uff09(mmol/L)
p38
V0.85-1.51
p39
ssV\u51dd\u8840\u56db\u9879
p40
(dp41
V\u7ea4\u7ef4\u86cb\u767d\u539f\u5b9a\u91cf(mg/dl)
p42
V170.0-400.0
p43
sV\u51dd\u8840\u9176\u539f\u65f6\u95f4(s)
p44
V9.6-13.0
p45
sV\u6d3b\u5316\u90e8\u5206\u51dd\u8840\u6d3b\u9176\u65f6\u95f4(s)
p46
V14.0-21.0
p47
sV\u51dd\u8840\u9176\u539f\u6d3b\u52a8\u5ea6(%)
p48
V80.0-120.0
p49
sV\u51dd\u8840\u9176\u65f6\u95f4(s)
p50
V14.0-21.0
p51
ssV\u751f\u5316\u5168\u9879\u7ec4\u5408
p52
(dp53
g3
V-3.3
p54
sVa-\u7f9f\u4e01\u9178\u8131\u6c28\u9176(U/L)
p55
V72-182
p56
sV\u94be\uff08\u8840/\u5c3f\u6216\u4f53\u6db2\uff09(mmol/L)
p57
g21
sV\u4e19\u6c28\u9178\u6c28\u57fa\u8f6c\u79fb\u9176
p58
g10
sV\u524d\u767d\u86cb\u767d(g/L)
p59
V0.18-0.36
p60
sV\u7877\u6027\u78f7\u9178\u9176(U/L)
p61
V35-100
p62
sV\u8840\u7cd6(mmol/L)
p63
V3.9-6.1
p64
sV\u4e8c\u6c27\u5316\u78b3(mmol/L)
p65
g33
sV\u76f4\u63a5\u80c6\u7ea2\u7d20(umol/L)
p66
V0.00-6.80
p67
sV\u8840\u6e05\u603b\u80c6\u6c41\u9178(umol/L)
p68
V0.0-10.0
p69
sV\u4e73\u9178\u8131\u6c28\u9176(U/L)
p70
V120-250
p71
sV\u94a0\uff08\u8840/\u5c3f\u6216\u4f53\u6db2\uff09(mmol/L)
p72
g27
sV\u5929\u51ac\u6c28\u9178\u6c28\u57fa\u8f6c\u79fb\u9176
p73
g10
sV\u5c3f\u7d20\u6c2e(mmol/L)
p74
g31
sV\u5c3f\u9178(umol/L)
p75
g35
sV\u9ad8\u5bc6\u5ea6\u8102\u86cb\u767d\u80c6\u56fa\u9187(mmol/L)
p76
g17
sVg-\u8c37\u6c28\u9170\u8f6c\u80bd\u9176(U/L)
p77
V7-45
p78
sV\u603b\u80c6\u7ea2\u7d20(umol/L)
p79
V5.0-21.0
p80
sV\u603b\u9499\uff08\u8840/\u5c3f\uff09(mmol/L)
p81
g23
sg24
g25
sV\u65e0\u673a\u78f7\uff08\u8840/\u5c3f\uff09(mmol)
p82
g39
sV\u808c\u9178\u6fc0\u9176(U/L)
p83
g8
sV\u767d\u86cb\u767d\u5b9a\u91cf(g/L)
p84
V40.0-55.0
p85
sV\u8840\u6e05\u8102\u86cb\u767d\uff08a\uff09(mg/dl)
p86
V-30.0
p87
sg5
V-5.18
p88
sg28
g29
sV\u603b\u86cb\u767d\u5b9a\u91cf(g/L)
p89
V65.0-85.0
p90
sV\u7518\u6cb9\u4e09\u916f(mmol/L)
p91
V-2.83
p92
ssV\u7532\u529f\u5168\u5957
p93
(dp94
V\u7532\u72b6\u817a\u7403\u86cb\u767d\u6297\u4f53
p95
g10
sV\u8840\u6e05\u603bT3(ng/dl)
p96
V70-180
p97
sV\u7532\u72b6\u817a\u5fae\u7c92\u4f53\u6297\u4f53
p98
g10
sV\u8840\u6e05\u6e38\u79bbT4
p99
g10
sV\u8840\u6e05\u603bT4(ng/dl)
p100
V5-12
p101
sV\u8840\u6e05\u4fc3\u7532\u72b6\u817a\u6fc0\u7d20
p102
g10
sV\u8840\u6e05\u6e38\u79bbT3
p103
g10
ssV\u4f53\u6db2\u514d\u75ab
p104
(dp105
V\u8865\u4f53C3
p106
g10
sV\u514d\u75ab\u7403\u86cb\u767dG
p107
g10
sV\u8865\u4f53C4
p108
g10
sV\u514d\u75ab\u7403\u86cb\u767dA
p109
g10
sV\u514d\u75ab\u7403\u86cb\u767dM
p110
g10
ssV\u81ea\u8eab\u6297\u4f53
p111
(dp112
V\u6297ENA\u6297\u4f53\uff08Sm\u3001RNP\u3001SSA\u3001SSB\u3001JO-1\u3001SCL-7\uff09
p113
g10
sV\u6297dsDNA\u6297\u4f53(IU/ml)
p114
V-12.0
p115
sV\u6297\u6838\u6297\u4f53
p116
V\u9634\u6027
p117
ssV\u4e59\u578b\u809d\u708e\u6807\u5fd7\u4e94\u9879
p118
(dp119
V\u4e59\u578b\u809d\u708e\u75c5\u6bd2e\u6297\u4f53
p120
g117
sV\u4e59\u578b\u809d\u708e\u75c5\u6bd2\u8868\u9762\u6297\u539f
p121
V\u9634\u6027
p122
sV\u4e59\u578b\u809d\u708e\u75c5\u6bd2\u8868\u9762\u6297\u4f53
p123
g10
sV\u4e59\u578b\u809d\u708e\u75c5\u6bd2e\u6297\u539f
p124
V\u9634\u6027
p125
sV\u4e59\u578b\u809d\u708e\u6838\u5fc3\u603b\u6297\u4f53\u6d4b\u5b9a
p126
g10
ssV\u8840\u8102\u5168\u9879
p127
(dp128
g3
V-3.3
p129
sV\u6e38\u79bb\u8102\u80aa\u9178
p130
g10
sg5
V-5.18
p131
sg7
g8
sg9
g10
sg91
V-2.83
p132
sV\u8f7d\u8102\u86cb\u767d-A1
p133
g10
sV\u8840\u6e05\u8102\u86cb\u767d\uff08a\uff09(mg/dl)
p134
V-30.0
p135
sg76
g17
ssV\u98ce\u6e7f\u7c7b\u98ce\u6e7f
p136
(dp137
VC-\u53cd\u5e94\u86cb\u767d
p138
g10
sV\u6297\u94fe\u7403\u83cc\u6eb6\u8840\u7d20\u201cO\u201d\u8bd5\u9a8c
p139
g10
sV\u7c7b\u98ce\u6e7f\u56e0\u5b50
p140
g10
ss.