(dp0
V\u751f\u5316\u8840\u8102
p1
(dp2
V\u4f4e\u5bc6\u5ea6\u8102\u86cb\u767d\u80c6\u56fa\u9187(mmol/L)
p3
V-3.3
p4
sV\u603b\u80c6\u56fa\u9187(mmol/L)
p5
V-5.18
p6
sV\u8f7d\u8102\u86cb\u767d-B
p7
V40.0-200.0
p8
sVC-\u53cd\u5e94\u86cb\u767d
p9
V
p10
sV\u7518\u6cb9\u4e09\u916f(mmol/L)
p11
V-2.83
p12
sV\u8f7d\u8102\u86cb\u767d-A1
p13
g10
sV\u8840\u6e05\u8102\u86cb\u767d\uff08a\uff09
p14
g10
sV\u9ad8\u5bc6\u5ea6\u8102\u86cb\u767d\u80c6\u56fa\u9187(mmol/L)
p15
V1-
p16
ssV\u751f\u5316\u80be\u529f
p17
(dp18
V\u603b\u9499\uff08\u8840/\u5c3f\uff09
p19
g10
sV\u94be\uff08\u8840/\u5c3f\u6216\u4f53\u6db2\uff09(mmol/L)
p20
V3.5-5.3
p21
sV\u6c2f\uff08\u8840/\u5c3f\u6216\u4f53\u6db2\uff09(mmol/L)
p22
V99.0-110.0
p23
sV\u94a0\uff08\u8840/\u5c3f\u6216\u4f53\u6db2\uff09(mmol/L)
p24
V137-147
p25
sV\u8840\u6e05\u9541
p26
g10
sV\u808c\u9150(umol/L)
p27
V41.0-73.0
p28
sV\u5c3f\u7d20\u6c2e(mmol/L)
p29
V2.60-7.50
p30
sV\u4e8c\u6c27\u5316\u78b3(mmol/L)
p31
V20.0-31.0
p32
sV\u65e0\u673a\u78f7\uff08\u8840/\u5c3f\uff09
p33
g10
sV\u5c3f\u9178(umol/L)
p34
V155-357
p35
ssV\u51dd\u8840\u56db\u9879
p36
(dp37
V\u6d3b\u5316\u90e8\u5206\u51dd\u8840\u6d3b\u9176\u65f6\u95f4
p38
g10
sV\u51dd\u8840\u9176\u539f\u65f6\u95f4\u53ca\u6d3b\u52a8\u5ea6
p39
g10
sV\u7ea4\u7ef4\u86cb\u767d\u539f\u5b9a\u91cf
p40
g10
sV\u51dd\u8840\u9176\u51dd\u7ed3\u65f6\u95f4\uff08\u51dd\u8840\u9176\u65f6\u95f4\uff09
p41
g10
ssV\u751f\u5316\u5168\u9879\u7ec4\u5408
p42
(dp43
g3
V-3.3
p44
sVa-\u7f9f\u4e01\u9178\u8131\u6c28\u9176(U/L)
p45
V72-182
p46
sg20
g21
sV\u4e19\u6c28\u9178\u6c28\u57fa\u8f6c\u79fb\u9176
p47
g10
sV\u524d\u767d\u86cb\u767d(g/L)
p48
V0.18-0.36
p49
sV\u7877\u6027\u78f7\u9178\u9176(U/L)
p50
V35-100
p51
sV\u8840\u7cd6(mmol/L)
p52
V3.9-6.1
p53
sg31
g32
sV\u76f4\u63a5\u80c6\u7ea2\u7d20(umol/L)
p54
V0.00-6.80
p55
sg19
g10
sV\u4e73\u9178\u8131\u6c28\u9176(U/L)
p56
V120-250
p57
sg24
g25
sV\u5929\u51ac\u6c28\u9178\u6c28\u57fa\u8f6c\u79fb\u9176
p58
g10
sg29
g30
sg34
g35
sg15
g16
sg33
g10
sVg-\u8c37\u6c28\u9170\u8f6c\u80bd\u9176(U/L)
p59
V7-45
p60
sV\u603b\u80c6\u7ea2\u7d20(umol/L)
p61
V5.0-21.0
p62
sg22
g23
sV\u8840\u6e05\u603b\u80c6\u6c41\u9178
p63
g10
sV\u808c\u9178\u6fc0\u9176(U/L)
p64
g8
sV\u767d\u86cb\u767d\u5b9a\u91cf(g/L)
p65
V40.0-55.0
p66
sg14
g10
sV\u603b\u86cb\u767d\u5b9a\u91cf
p67
g10
sg5
V-5.18
p68
sg27
g28
sg11
V-2.83
p69
ssV\u7532\u529f\u5168\u5957
p70
(dp71
V\u8840\u6e05\u603bT4
p72
g10
sV\u8840\u6e05\u603bT3
p73
g10
sV\u7532\u72b6\u817a\u7403\u86cb\u767d\u6297\u4f53
p74
g10
sV\u7532\u72b6\u817a\u5fae\u7c92\u4f53\u6297\u4f53
p75
g10
sV\u8840\u6e05\u6e38\u79bbT4
p76
g10
sV\u8840\u6e05\u4fc3\u7532\u72b6\u817a\u6fc0\u7d20
p77
g10
sV\u8840\u6e05\u6e38\u79bbT3
p78
g10
ssV\u4f53\u6db2\u514d\u75ab
p79
(dp80
V\u8865\u4f53C3
p81
g10
sV\u514d\u75ab\u7403\u86cb\u767dG
p82
g10
sV\u8865\u4f53C4
p83
g10
sV\u514d\u75ab\u7403\u86cb\u767dA
p84
g10
sV\u514d\u75ab\u7403\u86cb\u767dM
p85
g10
ssV\u81ea\u8eab\u6297\u4f53
p86
(dp87
V\u6297ENA\u6297\u4f53\uff08Sm\u3001RNP\u3001SSA\u3001SSB\u3001JO-1\u3001SCL-7\uff09
p88
g10
sV\u6297dsDNA\u6297\u4f53
p89
g10
sV\u6297\u6838\u6297\u4f53
p90
g10
ssV\u4e59\u578b\u809d\u708e\u6807\u5fd7\u4e94\u9879
p91
(dp92
V\u4e59\u578b\u809d\u708e\u8868\u9762\u6297\u4f53\u6d4b\u5b9a
p93
g10
sV\u4e59\u578b\u809d\u708ee\u6297\u539f\u6d4b\u5b9a
p94
g10
sV\u4e59\u578b\u809d\u708e\u8868\u9762\u6297\u539f\u6d4b\u5b9a
p95
g10
sV\u4e59\u578b\u809d\u708ee\u6297\u4f53\u6d4b\u5b9a
p96
g10
sV\u4e59\u578b\u809d\u708e\u6838\u5fc3\u603b\u6297\u4f53\u6d4b\u5b9a
p97
g10
ssV\u8840\u8102\u5168\u9879
p98
(dp99
g3
V-3.3
p100
sV\u6e38\u79bb\u8102\u80aa\u9178
p101
g10
sg5
V-5.18
p102
sg7
g8
sg9
g10
sg11
V-2.83
p103
sg13
g10
sV\u8840\u6e05\u8102\u86cb\u767d\uff08a\uff09
p104
g10
sg15
g16
ssV\u98ce\u6e7f\u7c7b\u98ce\u6e7f
p105
(dp106
VC-\u53cd\u5e94\u86cb\u767d
p107
g10
sV\u6297\u94fe\u7403\u83cc\u6eb6\u8840\u7d20\u201cO\u201d\u8bd5\u9a8c
p108
g10
sV\u7c7b\u98ce\u6e7f\u56e0\u5b50
p109
g10
ss.