(dp0
V\u6027\u8089\u82bd\u80bf
p1
(lp2
V\u8548\u6837\u8089\u82bd\u80bf
p3
aV\u6d78\u6da6\u6027\u8089\u82bd\u80bf
p4
asV\u7619\u75d2
p5
(lp6
V\u7619\u75d2
p7
aV\u598a\u5a20\u7619\u75d2
p8
aV\u5c40\u90e8\u7619\u75d2
p9
aV\u80a1\u5185\u4fa7\u7619\u75d2
p10
asV\u6591\u75b9
p11
(lp12
V\u5706\u5f62\u70b9\u72b6\u6591\u75b9
p13
aV\u7d2b\u7ea2\u8272\u73af\u72b6\u6591\u75b9
p14
asV\u9cde\u5c51
p15
(lp16
V\u7ce0\u72b6\u9cde\u5c51
p17
aV\u786c\u6027\u7ce0\u76ae\u6837\u9cde\u5c51
p18
aV\u94f6\u767d\u8272\u9cde\u5c51
p19
aV\u6cb9\u817b\u9cde\u5c51\u6216\u75c2\u76ae
p20
asV\u6e83\u75a1
p21
(lp22
V\u6e83\u75a1
p23
aV\u53e3\u8154\u6e83\u75a1
p24
aV\u53e3\u8154\u9ecf\u819c\u75b1\u75b9\u6216\u6e83\u75a1
p25
aV\u751f\u6b96\u5668\u6e83\u75a1
p26
aV\u5916\u9634\u90e8\u6e83\u75a1
p27
aV\u987d\u56fa\u6027\u6e83\u75a1
p28
asV\u75ae
p29
(lp30
V\u53e3\u75ae
p31
aV\u8113\u75b1
p32
aV\u8113\u75b1\u75ae
p33
aV\u8113\u75b1\u75ae\u534a\u6708\u5f62\u79ef\u8113
p34
asV\u6591
p35
(lp36
V\u8fc7\u5ea6\u89d2\u5316\u6027\u6591\u5757
p37
aV\u7600\u6591
p38
aV\u7ea2\u6591
p39
aV\u9ec4\u8910\u6591
p40
aV\u8272\u7d20\u8131\u5931\u6591
p41
asV\u75b1\u75b9
p42
(lp43
V\u53e3\u8154\u9ecf\u819c\u75b1\u75b9\u6216\u6e83\u75a1
p44
aV\u4e18\u75b1\u75b9
p45
aV\u773c\u7751\u75b1\u75b9
p46
aV\u624b\u8db3\u81c0\u81c2\u817f\u90e8\u6591\u4e18\u75b9\u75b1\u75b9
p47
asV\u7ea2\u6591
p48
(lp49
V\u7ea2\u6591
p50
aV\u591a\u5f62\u7ea2\u6591
p51
aV\u5706\u5f62\u6de1\u7ea2\u8272\u6591
p52
aV\u7ed3\u8282\u6027\u7ea2\u6591
p53
aV\u6c34\u80bf\u6027\u7ea2\u6591
p54
aV\u73ab\u7470\u8272\u6de1\u7ea2\u6591
p55
aV\u624b\u638c\u5c40\u90e8\u7ea2\u6591\u8131\u5c51
p56
aV\u7ed3\u8282\u7ea2\u6591
p57
aV\u76ae\u635f\u7ea2\u6591\u9cde\u5c51
p58
aV\u5c40\u9650\u6027\u6de4\u8840\u6027\u6697\u7d2b\u7ea2\u8272\u9686\u8d77\u7684\u6c34\u80bf\u6027\u7ea2\u6591
p59
aV\u80a1\u5185\u4fa7\u7ea2\u6591
p60
aV\u79bb\u5fc3\u6027\u73af\u72b6\u7ea2\u6591
p61
aV\u7ea2\u6591\u9cde\u5c51\u6027\u76ae\u75b9
p62
aV\u6d6e\u80bf\u6027\u7ea2\u6591
p63
aV\u76d8\u72b6\u7ea2\u6591\u72fc\u75ae
p64
aV\u5f25\u6f2b\u6027\u6d78\u6da6\u6027\u7d2b\u7ea2\u6591
p65
asV\u5176\u4ed6
p66
(lp67
V\u591a\u6c57
p68
aV\u9ed1\u8910\u8272\u539a\u75c2
p69
aV\u4e73\u5934\u7624
p70
aV\u72d0\u81ed
p71
aV\u98ce\u56e2
p72
aV\u7600\u70b9
p73
aV\u60a3\u5904\u76ae\u6e29\u9ad8
p74
aV\u89e6\u75db\u3001\u707c\u75db
p75
aV\u6c38\u4e45\u6027\u80a5\u539a\u6027\u7ea4\u7ef4\u5316
p76
aV\u975e\u51f9\u9677\u6027\u6c34\u80bf
p77
aV\u8d58\u75a3\u589e\u6b96\u6027\u76ae\u635f
p78
aV\u6307\u95f4\u76ae\u80a4\u6d78\u6e0d
p79
aV\u9ed1\u8272\u82d4\u85d3
p80
aV\u76ae\u80a4\u5e72\u71e5\u7834\u88c2
p81
aV\u76ae\u7eb9\u88c2\u9699
p82
aV\u89d2\u8d28\u589e\u539a
p83
aV\u6d78\u6e0d\u7cdc\u70c2\u6e17\u6db2
p84
aV\u76ae\u80a4\u76b1\u895e\u6d88\u5931
p85
aV\u6591\u58ee\u6dc0\u7c89\u6837\u53d8
p86
aV\u7ed3\u8282\u6027\u76ae\u80a4\u6dc0\u7c89\u6837\u53d8
p87
aV\u760a\u5b50
p88
aV\u75f1\u5b50
p89
aV\u767d\u75f1
p90
aV\u9488\u523a\u53cd\u5e94
p91
aV\u8131\u53d1
p92
aV\u7d2b\u765c
p93
aV\u814b\u7a9d\u81ed\u6c57
p94
aV\u8702\u7a9d\u7ec7\u708e
p95
aV\u5168\u8eab\u76ae\u80a4\u5f25\u6f2b\u6027\u6f6e\u7ea2
p96
aV\u9e21\u773c
p97
aV\u7532\u7663
p98
aV\u75a5\u87a8
p99
aV\u9152\u6e23\u9f3b
p100
aV\u9ebb\u98ce
p101
aV\u765e\u75e2\u5934
p102
aV\u8131\u53d1
p103
aV\u9ed1\u5934
p104
aV\u7c89\u523a
p105
aV\u7cdc\u70c2
p106
aV\u7ed3\u75c2
p107
aV\u6e17\u6db2
p108
aV\u708e\u6027\u7ea2\u6655
p109
asV\u6bdb\u56ca
p110
(lp111
V\u6bdb\u56ca\u708e
p112
aV\u6bdb\u56ca\u5468\u56f4\u7ea2\u6591
p113
aV\u6bdb\u5468\u89d2\u5316\u75c5
p114
asV\u75b9
p115
(lp116
V\u6241\u5e73\u4e18\u75b9
p117
aV\u6241\u5e73\u4e18\u75b9
p118
aV\u98ce\u56e2\u4e18\u75b9
p119
aV\u767d\u8272\u534a\u7403\u5f62\u4e18\u75b9
p120
aV\u6591\u4e18\u75b9
p121
aV\u5bc6\u96c6\u4e18\u75b9
p122
aV\u82d4\u85d3\u6837\u4e18\u75b9
p123
aV\u82d4\u85d3\u6837\u4e18\u75b9
p124
aV\u534a\u7403\u5f62\u5bc6\u96c6\u6210\u7247\u4e18\u75b9
p125
aV\u624b\u8db3\u81c0\u81c2\u817f\u90e8\u6591\u4e18\u75b9\u75b1\u75b9
p126
aV\u6c34\u80bf\u6027\u7ea2\u8272\u4e18\u75b9
p127
aV\u7c89\u7ea2\u8272\u5c0f\u4e18\u75b9
p128
aV\u6676\u5f62\u7c9f\u7c92\u75b9
p129
aV\u8368\u9ebb\u75b9
p130
aV\u8368\u9ebb\u75b9\u6837\u76ae\u75b9
p131
asV\u7ed3\u8282
p132
(lp133
V\u7ed3\u8282
p134
aV\u76ae\u4e0b\u7ed3\u8282
p135
aV\u786c\u7ed3
p136
aV\u9ed1\u8272\u7ed3\u8282
p137
asV\u6c34\u75b1
p138
(lp139
V\u6c34\u75b1
p140
aV\u98ce\u56e2\u6c34\u75b1
p141
aV\u7c07\u96c6\u6c34\u75b1\u7fa4
p142
aV\u5c0f\u6c34\u75b1
p143
as.