(dp0
V07\u80ba\u90e8
p1
(lp2
V\u53cc\u80ba\u547c\u5438\u8fd0\u52a8\u4e00\u81f4
p3
aV\u672a\u89e6\u53ca\u80f8\u819c\u6469\u64e6\u611f
p4
aV\u547c\u543824\u6b21/\u5206
p5
aV\u53cc\u80ba\u547c\u5438\u97f3\u7c97
p6
aV\u672a\u95fb\u5e72\u6e7f\u7f57\u97f3
p7
aV\u53f3\u80ba\u547c\u5438\u97f3\u7565\u51cf\u4f4e
p8
aV\u547c\u5438\u97f3\u6e05
p9
aV\u5e72\u6027\u5570\u97f3
p10
aV\u72ac\u5420\u6837
p11
aV\u65e0\u54b3\u55fd
p12
aV\u5fc3\u80ba\u672a\u89c1\u5f02\u5e38
p13
aV\u547c\u5438\u4fc3
p14
aV\u65e0\u5e72\u6e7f\u5570\u97f3
p15
aV\u5598\u606f\u97f3
p16
aV\u5598\u9e23\u97f3
p17
aV\u547c\u5438\u97f3\u7c97
p18
aV\u547c\u5438\u5e73\u7a33
p19
aV\u7f57\u97f3
p20
aV\u53cc\u80ba\u53e9\u8bca\u6e05\u97f3
p21
aV\u65e0\u5598\u606f
p22
aV\u6e7f\u6027\u5570\u97f3
p23
aV\u65e0\u4e2d\u5c0f\u6c34\u6ce1\u97f3
p24
aV\u65e0\u5598\u606f\u97f3
p25
aV\u547c\u5438\u97f3\u7a0d\u4f4e
p26
aV\u65e0\u7f57\u97f3
p27
aV\u5e72\u6e7f\u5570\u97f3
p28
aV\u4e2d\u5c0f\u6c34\u6ce1\u97f3
p29
aV\u547c\u5438\u89c4\u6574
p30
aV\u65e0\u5570\u97f3
p31
aV\u54ee\u9e23\u97f3
p32
aV\u7ec6\u6e7f\u5570\u97f3
p33
aV\u65e0\u5598\u9e23\u97f3
p34
aV\u65e0\u6e7f\u6027\u5570\u97f3
p35
asV04\u5934\u9885\u4e94\u5b98
p36
(lp37
V\u5916\u89c2\u6b63\u5e38
p38
aV\u53cc\u77b3\u5b54\u7b49\u5927\u7b49\u5706
p39
aV\u5bf9\u5149\u53cd\u5c04\u5b58\u5728
p40
aV\u8033\u9f3b\u65e0\u7578\u5f62
p41
aV\u65e0\u9f3b\u6247
p42
aV\u54bd\u5145\u8840
p43
aV\u53cc\u6241\u6843\u4f531\u5ea6\u80bf\u5927
p44
aV\u672a\u89c1\u8113\u6027\u5206\u6ccc\u7269
p45
aV\u53e3\u8154\u9ecf\u819c\u5145\u8840
p46
aV\u53e3\u5507\u7ea2\u6da6
p47
aV\u773c\u7a9d\u51f9\u9677
p48
aV\u54bd\u90e8\u5145\u8840
p49
aV\u65e0\u6e83\u75a1
p50
aV\u820c\u7cfb\u5e26\u6e83\u75a1
p51
aV\u4f38\u820c\u5c45\u4e2d
p52
aV\u65e0\u54bd\u90e8\u65e0\u5145\u8840
p53
aV\u53e3\u5468\u9752
p54
aV\u54b3\u55fd
p55
aV\u9f3b\u8154\u4e0d\u7545
p56
ag40
aV\u9762\u8272\u6b63\u5e38
p57
ag42
aV\u58f0\u5636
p58
aV\u53cc\u773c\u5206\u6ccc\u7269\u8f83\u591a
p59
aV\u6fc0\u7d20\u9762\u5bb9
p60
aV\u6e83\u75a1
p61
aV\u6d41\u6d95
p62
aV\u53cc\u5916\u8033\u9053\u672a\u89c1\u5206\u6ccc\u7269\u6ea2\u51fa
p63
aV\u5bf9\u5149\u53cd\u5e94\u654f\u611f
p64
aV\u53e3\u90e8\u52a8\u4f5c\u4e0d\u534f\u8c03
p65
aV\u6768\u6885\u820c
p66
aV\u54bd\u90e8\u65e0\u5145\u8840
p67
aV\u9f3b\u6247
p68
aV\u773c\u7751\u65e0\u6c34\u80bf
p69
aV\u65e0\u58f0\u5636
p70
aV\u7259\u9f88\u80bf\u80c0
p71
aV\u53e3\u8154\u9ecf\u819c\u5149\u6ed1
p72
aV\u773c\u7751\u6c34\u80bf
p73
asV12\u795e\u7ecf\u7cfb\u7edf
p74
(lp75
V\u56db\u80a2\u808c\u5f20\u529b\u6b63\u5e38
p76
aV\u808c\u529bV\u7ea7
p77
aV\u8179\u58c1\u53cd\u5c04
p78
aV\u8ddf\u8171\u53cd\u5c04
p79
aV\u819d\u8171\u53cd\u5c04\u53ef\u5f15\u51fa
p80
aV\u53cc\u5df4\u6c0f\u5f81\u9634\u6027
p81
aV\u5e03\u5f0f\u5f81\u9634\u6027
p82
aV\u65e0\u808c\u7d27\u5f20
p83
aV\u808c\u7d27\u5f20
p84
aV\u514b\u6c0f\u5f81\u9634\u6027
p85
asV05\u9888\u90e8
p86
(lp87
g38
aV\u6c14\u7ba1\u5c45\u4e2d
p88
aV\u7532\u72b6\u817a\u4e0d\u5927
p89
aV\u9888\u8f6f\u65e0\u62b5\u6297
p90
aV\u5589\u9e23\u97f3
p91
aV\u7c97\u6e7f\u5570\u97f3
p92
aV\u53cc\u4fa7\u816e\u817a\u80bf\u5927
p93
aV\u9888\u8f6f
p94
aV\u53ef\u95fb\u53ca\u75f0\u9e23\u97f3
p95
aV\u53cc\u4fa7\u6241\u6843\u4f532\u5ea6\u80bf\u5927
p96
aV\u5589\u6897\u963b
p97
aV\u5438\u6c14\u6027\u5589\u9e23
p98
asV10\u810a\u67f1\u56db\u80a2
p99
(lp100
V\u5de6\u53f3\u5bf9\u79f0
p101
aV\u6d3b\u52a8\u597d
p102
ag38
aV\u56db\u80a2\u5173\u8282\u65e0\u7ea2\u80bf
p103
aV\u53cc\u4e0b\u80a2\u65e0\u6c34\u80bf
p104
aV\u624b\u8db3\u6e29
p105
aV\u4e0d\u80fd\u884c\u8d70
p106
aV\u4e0b\u80a2\u6c34\u80bf
p107
aV\u4e0a\u53f0\u9636\u56f0\u96be
p108
aV\u56db\u80a2\u808c\u5f20\u529b\u51cf\u4f4e
p109
aV\u65e0\u6d3b\u52a8\u53d7\u9650
p110
aV\u7ad9\u7acb\u56f0\u96be
p111
aV\u8dd1\u6b65\u548c\u8df3\u8dc3\u59ff\u52bf\u6b20\u4f73
p112
aV\u4e0b\u80a2\u65e0\u6c34\u80bf
p113
aV\u6d3b\u52a8\u53d7\u9650
p114
aV\u624b\u8db3\u80bf\u80c0
p115
aV\u65e0\u7ea2\u80bf
p116
aV\u6775\u72b6\u6307
p117
aV\u9635\u631b
p118
aV\u56db\u80a2\u6d3b\u52a8\u6b63\u5e38
p119
aV\u53cc\u4fa7\u4e0b\u80a2\u8fd1\u6bb5\u808c\u529b\u7a0d\u5dee
p120
aV\u56db\u80a2\u6e7f
p121
aV\u65e0\u6775\u72b6\u6307
p122
aV\u6d3b\u52a8\u81ea\u5982
p123
asV11\u809b\u95e8\u751f\u6b96\u5668
p124
(lp125
g38
asV03\u6dcb\u5df4\u7ed3
p126
(lp127
V\u5168\u8eab\u6d45\u8868\u6dcb\u5df4\u7ed3\u672a\u53ca\u80bf\u5927
p128
aV\u6dcb\u5df4\u7ed3\u672a\u89e6\u53ca\u80bf\u5927
p129
aV\u6dcb\u5df4\u7ed3\u65e0\u80bf\u5927
p130
aV\u6dcb\u5df4\u7ed3\u80bf\u5927
p131
aV\u9ec4\u8c46\u5927\u5c0f\u6dcb\u5df4\u7ed3
p132
asV09\u8179\u90e8
p133
(lp134
V\u8179\u90e8\u5e73\u5766
p135
aV\u672a\u89c1\u80c3\u80a0\u578b\u53ca\u8815\u52a8\u6ce2
p136
aV\u8179\u8f6f
p137
aV\u65e0\u538b\u75db
p138
aV\u65e0\u53cd\u8df3\u75db
p139
aV\u809d\u813e\u672a\u53ca\u80bf\u5927
p140
aV\u53e9\u9f13\u97f3
p141
aV\u80a0\u9e23\u97f35\u6b21/\u5206
p142
aV\u53cc\u4fa7\u8153\u80a0\u808c\u7a0d\u80a5\u5927
p143
aV\u672a\u53ca\u5305\u5757
p144
aV\u80a0\u9e23\u97f3\u6b63\u5e38
p145
aV\u9ea6\u6c0f\u70b9\u65e0\u538b\u75db
p146
aV\u8179\u90e8\u5e73\u8f6f
p147
ag138
aV\u5fc3\u80ba\u8179\u672a\u89c1\u5f02\u5e38
p148
aV\u4e0a\u8179\u538b\u75db
p149
aV\u80a0\u9e23\u97f3\u6d3b\u8dc3
p150
aV\u8179\u90e8\u4e0d\u9002
p151
aV\u65e0\u65e0\u538b\u75db
p152
aV\u8179\u80c0
p153
aV\u65e0\u8179\u8f6f
p154
asV02\u76ae\u80a4\u9ecf\u819c
p155
(lp156
V\u5168\u8eab\u76ae\u80a4\u989c\u8272\u6b63\u5e38
p157
aV\u672a\u89c1\u51fa\u8840\u70b9
p158
aV\u5f39\u6027\u597d
p159
aV\u65e0\u6c34\u80bf
p160
aV\u6e7f\u5ea6\u6b63\u5e38
p161
aV\u76b2\u88c2
p162
aV\u8272\u7d20\u8131\u5931\u6591
p163
aV\u65e0\u5f02\u5e38\u5206\u6ccc\u7269
p164
aV\u65e0\u8113\u6027\u5206\u6ccc\u7269
p165
aV\u5f02\u5e38\u5206\u6ccc\u7269
p166
aV\u76ae\u80a4\u5e72\u71e5
p167
aV\u6f6e\u7ea2\u80bf\u80c0
p168
aV\u65e0\u9ec4\u75b8
p169
aV\u6697\u7ea2\u8272\u7600\u70b9
p170
aV\u65e0\u5361\u75a4
p171
aV\u767d\u8272\u5206\u6ccc\u7269
p172
aV\u6c14\u4fc3
p173
ag160
aV\u65e0\u76ae\u75b9
p174
aV\u8584\u58c1\u6c34\u75b1
p175
aV\u8113\u6027\u5206\u6ccc\u7269
p176
aV\u76ae\u75b9
p177
aV\u75b9\u95f4\u76ae\u80a4\u6b63\u5e38
p178
aV\u5361\u75a4
p179
aV\u65e0\u6f6e\u7ea2
p180
aV\u65e0\u53d1\u7ec0
p181
aV\u65e0\u7ed3\u819c\u5145\u8840
p182
aV\u65e0\u6c34\u6ce1
p183
aV\u75b1\u75b9
p184
aV\u5f39\u6027\u6b63\u5e38
p185
aV\u7ea2\u8272\u76ae\u75b9
p186
aV\u65e0\u76b2\u88c2
p187
aV\u7ed3\u819c\u5145\u8840
p188
aV\u6c34\u6ce1
p189
aV\u65e0\u6d6e\u80bf
p190
aV\u76ae\u80a4\u672a\u89c1\u9ec4\u67d3
p191
aV\u5de9\u819c\u65e0\u9ec4\u67d3
p192
aV\u6591\u4e18\u75b9
p193
aV\u65e0\u75b1\u75b9
p194
aV\u76ae\u80a4\u7c97\u7cd9
p195
aV\u7ea2\u80bf
p196
aV\u65e0\u53d1\u5e72
p197
aV\u53d1\u7ec0
p198
aV\u4e18\u75b9
p199
aV\u7ed3\u819c\u65e0\u5145\u8840
p200
aV\u7ea2\u8272\u6591\u75b9
p201
asV01\u4e00\u822c\u60c5\u51b5
p202
(lp203
V\u53d1\u80b2\u6b63\u5e38
p204
aV\u8425\u517b\u4e2d\u7b49
p205
aV\u7cbe\u795e\u53cd\u5e94\u53ef
p206
aV\u795e\u5fd7\u6e05
p207
aV\u81ea\u4e3b\u4f53\u4f4d
p208
aV\u751f\u7406\u53cd\u5c04\u5b58\u5728
p209
aV\u65e0\u8d2b\u8840
p210
aV\u54ed\u58f0\u5636\u54d1
p211
aV\u5bf9\u7b54\u5207\u9898
p212
aV\u8fdb\u98df\u56f0\u96be
p213
aV\u53cd\u5e94\u7075\u654f
p214
aV\u8c35\u5984
p215
aV\u5e94\u7b54\u5207\u9898
p216
aV\u8131\u6c34
p217
aV\u8e52\u8dda\u6b65\u6001
p218
aV\u4e0d\u80fd\u5e73\u5367
p219
aV\u65e0\u7f3a\u6c27
p220
aV\u65e0\u7619\u75d2
p221
aV\u65e0\u6742\u97f3
p222
ag204
aV\u65e0\u53d1\u70ed
p223
aV\u53d1\u80b2\u4e2d\u7b49
p224
aV\u7cbe\u795e\u6b63\u5e38
p225
ag207
aV\u8868\u60c5\u6de1\u6f20
p226
aV\u8425\u517b\u504f\u5dee
p227
aV\u7cbe\u795e\u5dee
p228
aV\u6025\u6027\u75c5\u5bb9
p229
aV\u4e0d\u81ea\u4e3b\u52a8\u4f5c
p230
aV\u8d2b\u8840
p231
aV\u8fdf\u949d
p232
aV\u70e6\u8e81
p233
aV\u6d45\u660f\u8ff7\u72b6
p234
aV\u65e0\u8131\u6c34
p235
aV\u8425\u517b\u53d1\u80b2\u4e2d\u7b49
p236
aV\u6025\u6027\u9762\u5bb9
p237
aV\u53d1\u70ed
p238
aV\u4e0d\u80fd\u5e94\u7b54
p239
aV\u55dc\u7761
p240
aV\u795e\u5fd7\u4e0d\u6e05
p241
asV06\u80f8\u90e8
p242
(lp243
g38
aV\u672a\u89c1\u4e09\u51f9\u5f81
p244
aV\u80f8\u5ed3\u8fd0\u52a8\u7a0d\u51cf\u5f31
p245
aV\u65e0\u5438\u6c14\u6027\u4e09\u51f9\u5f81
p246
aV\u5438\u6c14\u6027\u4e0a\u51f9
p247
aV\u4e09\u51f9\u5f81
p248
aV\u5438\u6c14\u6027\u4e09\u51f9\u5f81
p249
aV\u65e0\u4e09\u51f9\u5f81
p250
asV08\u5fc3\u810f
p251
(lp252
V\u5fc3\u524d\u533a\u65e0\u9686\u8d77
p253
aV\u51f9\u9677
p254
aV\u672a\u89e6\u53ca\u9707\u98a4\u53ca\u5fc3\u5305\u6469\u64e6\u611f
p255
aV\u53e9\u8bca\u5fc3\u754c\u4e0d\u5927
p256
aV\u5fc3\u97f3\u6709\u529b
p257
aV\u5f8b\u9f50
p258
aV\u5fc3\u7387116\u6b21/\u5206
p259
aV\u672a\u95fb\u53ca\u6742\u97f3
p260
aV\u5fc3\u5f8b\u6574\u9f50
p261
aV\u5fc3\u7387\u589e\u5feb
p262
ag258
ag257
as.