(dp0
V12\u795e\u7ecf\u7cfb\u7edf
p1
(lp2
V\u56db\u80a2\u808c\u5f20\u529b\u6b63\u5e38
p3
aV\u808c\u529bV\u7ea7
p4
aV\u8179\u58c1\u53cd\u5c04
p5
aV\u8ddf\u8171\u53cd\u5c04
p6
aV\u819d\u8171\u53cd\u5c04\u53ef\u5f15\u51fa
p7
aV\u53cc\u5df4\u6c0f\u5f81\u9634\u6027
p8
aV\u5e03\u5f0f\u5f81\u9634\u6027
p9
aV\u808c\u7d27\u5f20
p10
aV\u514b\u6c0f\u5f81\u9634\u6027
p11
asV07\u80ba\u90e8
p12
(lp13
V\u53cc\u80ba\u547c\u5438\u8fd0\u52a8\u4e00\u81f4
p14
aV\u547c\u543824\u6b21/\u5206
p15
aV\u53cc\u80ba\u547c\u5438\u97f3\u7c97
p16
aV\u53f3\u80ba\u547c\u5438\u97f3\u7565\u51cf\u4f4e
p17
aV\u547c\u5438\u97f3\u6e05
p18
aV\u5e72\u6027\u5570\u97f3
p19
aV\u72ac\u5420\u6837
p20
aV\u547c\u5438\u4fc3
p21
aV\u5598\u606f\u97f3
p22
aV\u5598\u9e23\u97f3
p23
aV\u547c\u5438\u97f3\u7c97
p24
aV\u547c\u5438\u5e73\u7a33
p25
aV\u7f57\u97f3
p26
aV\u53cc\u80ba\u53e9\u8bca\u6e05\u97f3
p27
aV\u6e7f\u6027\u5570\u97f3
p28
aV\u547c\u5438\u97f3\u7a0d\u4f4e
p29
aV\u5e72\u6e7f\u5570\u97f3
p30
aV\u4e2d\u5c0f\u6c34\u6ce1\u97f3
p31
aV\u547c\u5438\u89c4\u6574
p32
aV\u54ee\u9e23\u97f3
p33
aV\u7ec6\u6e7f\u5570\u97f3
p34
asV04\u5934\u9885\u4e94\u5b98
p35
(lp36
V\u5916\u89c2\u6b63\u5e38
p37
aV\u53cc\u77b3\u5b54\u7b49\u5927\u7b49\u5706
p38
aV\u5bf9\u5149\u53cd\u5c04\u5b58\u5728
p39
aV\u54bd\u5145\u8840
p40
aV\u53cc\u6241\u6843\u4f531\u5ea6\u80bf\u5927
p41
aV\u53e3\u8154\u9ecf\u819c\u5145\u8840
p42
aV\u53e3\u5507\u7ea2\u6da6
p43
aV\u773c\u7a9d\u51f9\u9677
p44
aV\u54bd\u90e8\u5145\u8840
p45
aV\u820c\u7cfb\u5e26\u6e83\u75a1
p46
aV\u4f38\u820c\u5c45\u4e2d
p47
aV\u53e3\u5468\u9752
p48
aV\u54b3\u55fd
p49
aV\u9f3b\u8154\u4e0d\u7545
p50
ag39
aV\u9762\u8272\u6b63\u5e38
p51
aV\u58f0\u5636
p52
aV\u53cc\u773c\u5206\u6ccc\u7269\u8f83\u591a
p53
aV\u6fc0\u7d20\u9762\u5bb9
p54
aV\u6e83\u75a1
p55
aV\u6d41\u6d95
p56
aV\u5bf9\u5149\u53cd\u5e94\u654f\u611f
p57
aV\u53e3\u90e8\u52a8\u4f5c\u4e0d\u534f\u8c03
p58
aV\u6768\u6885\u820c
p59
aV\u9f3b\u6247
p60
aV\u7259\u9f88\u80bf\u80c0
p61
aV\u53e3\u8154\u9ecf\u819c\u5149\u6ed1
p62
aV\u773c\u7751\u6c34\u80bf
p63
asV09\u8179\u90e8
p64
(lp65
V\u8179\u90e8\u5e73\u5766
p66
aV\u8179\u8f6f
p67
aV\u53e9\u9f13\u97f3
p68
aV\u80a0\u9e23\u97f35\u6b21/\u5206
p69
aV\u53cc\u4fa7\u8153\u80a0\u808c\u7a0d\u80a5\u5927
p70
aV\u80a0\u9e23\u97f3\u6b63\u5e38
p71
aV\u8179\u90e8\u5e73\u8f6f
p72
aV\u4e0a\u8179\u538b\u75db
p73
aV\u80a0\u9e23\u97f3\u6d3b\u8dc3
p74
aV\u8179\u90e8\u4e0d\u9002
p75
aV\u8179\u80c0
p76
asV02\u76ae\u80a4\u9ecf\u819c
p77
(lp78
V\u5168\u8eab\u76ae\u80a4\u989c\u8272\u6b63\u5e38
p79
aV\u5f39\u6027\u597d
p80
aV\u6e7f\u5ea6\u6b63\u5e38
p81
aV\u76b2\u88c2
p82
aV\u8272\u7d20\u8131\u5931\u6591
p83
aV\u5f02\u5e38\u5206\u6ccc\u7269
p84
aV\u76ae\u80a4\u5e72\u71e5
p85
aV\u6f6e\u7ea2\u80bf\u80c0
p86
aV\u6697\u7ea2\u8272\u7600\u70b9
p87
aV\u767d\u8272\u5206\u6ccc\u7269
p88
aV\u6c14\u4fc3
p89
aV\u8584\u58c1\u6c34\u75b1
p90
aV\u8113\u6027\u5206\u6ccc\u7269
p91
aV\u76ae\u75b9
p92
aV\u75b9\u95f4\u76ae\u80a4\u6b63\u5e38
p93
aV\u5361\u75a4
p94
aV\u75b1\u75b9
p95
aV\u5f39\u6027\u6b63\u5e38
p96
aV\u7ea2\u8272\u76ae\u75b9
p97
aV\u7ed3\u819c\u5145\u8840
p98
aV\u6c34\u6ce1
p99
aV\u6591\u4e18\u75b9
p100
aV\u76ae\u80a4\u7c97\u7cd9
p101
aV\u7ea2\u80bf
p102
aV\u53d1\u7ec0
p103
aV\u4e18\u75b9
p104
aV\u7ea2\u8272\u6591\u75b9
p105
asV01\u4e00\u822c\u60c5\u51b5
p106
(lp107
V\u53d1\u80b2\u6b63\u5e38
p108
aV\u8425\u517b\u4e2d\u7b49
p109
aV\u7cbe\u795e\u53cd\u5e94\u53ef
p110
aV\u795e\u5fd7\u6e05
p111
aV\u81ea\u4e3b\u4f53\u4f4d
p112
aV\u751f\u7406\u53cd\u5c04\u5b58\u5728
p113
aV\u54ed\u58f0\u5636\u54d1
p114
aV\u5bf9\u7b54\u5207\u9898
p115
aV\u8fdb\u98df\u56f0\u96be
p116
aV\u53cd\u5e94\u7075\u654f
p117
aV\u8c35\u5984
p118
aV\u5e94\u7b54\u5207\u9898
p119
aV\u8131\u6c34
p120
aV\u8e52\u8dda\u6b65\u6001
p121
aV\u4e0d\u80fd\u5e73\u5367
p122
ag108
aV\u53d1\u80b2\u4e2d\u7b49
p123
aV\u7cbe\u795e\u6b63\u5e38
p124
ag111
aV\u8868\u60c5\u6de1\u6f20
p125
aV\u8425\u517b\u504f\u5dee
p126
aV\u7cbe\u795e\u5dee
p127
aV\u6025\u6027\u75c5\u5bb9
p128
aV\u4e0d\u81ea\u4e3b\u52a8\u4f5c
p129
aV\u8d2b\u8840
p130
aV\u8fdf\u949d
p131
aV\u70e6\u8e81
p132
aV\u6d45\u660f\u8ff7\u72b6
p133
aV\u8425\u517b\u53d1\u80b2\u4e2d\u7b49
p134
aV\u6025\u6027\u9762\u5bb9
p135
aV\u53d1\u70ed
p136
aV\u4e0d\u80fd\u5e94\u7b54
p137
aV\u55dc\u7761
p138
aV\u795e\u5fd7\u4e0d\u6e05
p139
asV06\u80f8\u90e8
p140
(lp141
g37
aV\u80f8\u5ed3\u8fd0\u52a8\u7a0d\u51cf\u5f31
p142
aV\u5438\u6c14\u6027\u4e0a\u51f9
p143
aV\u4e09\u51f9\u5f81
p144
aV\u5438\u6c14\u6027\u4e09\u51f9\u5f81
p145
asV05\u9888\u90e8
p146
(lp147
g37
aV\u6c14\u7ba1\u5c45\u4e2d
p148
aV\u7532\u72b6\u817a\u4e0d\u5927
p149
aV\u5589\u9e23\u97f3
p150
aV\u7c97\u6e7f\u5570\u97f3
p151
aV\u53cc\u4fa7\u816e\u817a\u80bf\u5927
p152
aV\u9888\u8f6f
p153
aV\u53ef\u95fb\u53ca\u75f0\u9e23\u97f3
p154
aV\u53cc\u4fa7\u6241\u6843\u4f532\u5ea6\u80bf\u5927
p155
aV\u5589\u6897\u963b
p156
aV\u5438\u6c14\u6027\u5589\u9e23
p157
asV08\u5fc3\u810f
p158
(lp159
V\u51f9\u9677
p160
aV\u53e9\u8bca\u5fc3\u754c\u4e0d\u5927
p161
aV\u5fc3\u97f3\u6709\u529b
p162
aV\u5f8b\u9f50
p163
aV\u5fc3\u7387116\u6b21/\u5206
p164
aV\u5fc3\u5f8b\u6574\u9f50
p165
aV\u5fc3\u7387\u589e\u5feb
p166
ag163
ag162
asV03\u6dcb\u5df4\u7ed3
p167
(lp168
V\u6dcb\u5df4\u7ed3\u80bf\u5927
p169
aV\u9ec4\u8c46\u5927\u5c0f\u6dcb\u5df4\u7ed3
p170
asV10\u810a\u67f1\u56db\u80a2
p171
(lp172
V\u5de6\u53f3\u5bf9\u79f0
p173
aV\u6d3b\u52a8\u597d
p174
ag37
aV\u624b\u8db3\u6e29
p175
aV\u4e0d\u80fd\u884c\u8d70
p176
aV\u4e0b\u80a2\u6c34\u80bf
p177
aV\u4e0a\u53f0\u9636\u56f0\u96be
p178
aV\u56db\u80a2\u808c\u5f20\u529b\u51cf\u4f4e
p179
aV\u7ad9\u7acb\u56f0\u96be
p180
aV\u8dd1\u6b65\u548c\u8df3\u8dc3\u59ff\u52bf\u6b20\u4f73
p181
aV\u6d3b\u52a8\u53d7\u9650
p182
aV\u624b\u8db3\u80bf\u80c0
p183
aV\u6775\u72b6\u6307
p184
aV\u9635\u631b
p185
aV\u56db\u80a2\u6d3b\u52a8\u6b63\u5e38
p186
aV\u53cc\u4fa7\u4e0b\u80a2\u8fd1\u6bb5\u808c\u529b\u7a0d\u5dee
p187
aV\u56db\u80a2\u6e7f
p188
aV\u6d3b\u52a8\u81ea\u5982
p189
asV11\u809b\u95e8\u751f\u6b96\u5668
p190
(lp191
g37
as.