(dp0
V\u5fc3\u5f8b\u6574\u9f50
p1
I0
sV\u547c\u5438\u97f3\u6e05
p2
I0
sV\u5e72\u6e7f\u5570\u97f3
p3
I0
sV\u53e3\u90e8\u52a8\u4f5c\u4e0d\u534f\u8c03
p4
I0
sV\u53e9\u8bca\u5fc3\u754c\u4e0d\u5927
p5
I0
sV\u8272\u7d20\u8131\u5931\u6591
p6
I0
sV\u53e3\u8154\u9ecf\u819c\u5145\u8840
p7
I0
sV\u751f\u7406\u53cd\u5c04\u5b58\u5728
p8
I0
sV\u53e3\u5507\u7ea2\u6da6
p9
I0
sV\u624b\u8db3\u6e29
p10
I0
sV\u5e72\u6027\u5570\u97f3
p11
I0
sV\u547c\u5438\u4fc3
p12
I0
sV\u53cc\u4fa7\u8153\u80a0\u808c\u7a0d\u80a5\u5927
p13
I0
sV\u54ed\u58f0\u5636\u54d1
p14
I0
sV\u820c\u7cfb\u5e26\u6e83\u75a1
p15
I0
sV\u547c\u543824\u6b21/\u5206
p16
I0
sV\u8fdb\u98df\u56f0\u96be
p17
I0
sV\u773c\u7a9d\u51f9\u9677
p18
I0
sV\u6dcb\u5df4\u7ed3\u80bf\u5927
p19
I0
sV\u5598\u606f\u97f3
p20
I0
sV\u8179\u8f6f
p21
I0
sV\u8584\u58c1\u6c34\u75b1
p22
I0
sV\u53cd\u5e94\u7075\u654f
p23
I0
sV\u53cc\u4fa7\u6241\u6843\u4f532\u5ea6\u80bf\u5927
p24
I0
sV\u80f8\u5ed3\u8fd0\u52a8\u7a0d\u51cf\u5f31
p25
I0
sV\u72ac\u5420\u6837
p26
I0
sV\u80a0\u9e23\u97f3\u6b63\u5e38
p27
I0
sV\u53cc\u6241\u6843\u4f531\u5ea6\u80bf\u5927
p28
I0
sV\u6c14\u7ba1\u5c45\u4e2d
p29
I0
sV\u5e94\u7b54\u5207\u9898
p30
I0
sV\u4e09\u51f9\u5f81
p31
I0
sV\u8131\u6c34
p32
I0
sV\u8e52\u8dda\u6b65\u6001
p33
I0
sV\u808c\u7d27\u5f20
p34
I0
sV\u56db\u80a2\u808c\u5f20\u529b\u6b63\u5e38
p35
I0
sV\u5598\u9e23\u97f3
p36
I0
sV\u4e0d\u80fd\u884c\u8d70
p37
I0
sV\u6025\u6027\u9762\u5bb9
p38
I0
sV\u4e0d\u80fd\u5e73\u5367
p39
I0
sV\u6025\u6027\u75c5\u5bb9
p40
I0
sV\u5f02\u5e38\u5206\u6ccc\u7269
p41
I0
sV\u8179\u90e8\u5e73\u8f6f
p42
I0
sV\u76ae\u80a4\u5e72\u71e5
p43
I0
sV\u9ec4\u8c46\u5927\u5c0f\u6dcb\u5df4\u7ed3
p44
I0
sV\u8179\u90e8\u5e73\u5766
p45
I0
sV\u4e0b\u80a2\u6c34\u80bf
p46
I0
sV\u6f6e\u7ea2\u80bf\u80c0
p47
I0
sV\u53e3\u5468\u9752
p48
I0
sV\u547c\u5438\u97f3\u7c97
p49
I0
sV\u6d45\u660f\u8ff7\u72b6
p50
I0
sV\u53f3\u80ba\u547c\u5438\u97f3\u7565\u51cf\u4f4e
p51
I0
sV\u8179\u58c1\u53cd\u5c04
p52
I0
sV\u5f39\u6027\u597d
p53
I0
sV\u8ddf\u8171\u53cd\u5c04
p54
I0
sV\u5fc3\u7387116\u6b21/\u5206
p55
I0
sV\u5de6\u53f3\u5bf9\u79f0
p56
I0
sV\u4e0a\u8179\u538b\u75db
p57
I0
sV\u54b3\u55fd
p58
I0
sV\u9f3b\u8154\u4e0d\u7545
p59
I0
sV\u5bf9\u5149\u53cd\u5c04\u5b58\u5728
p60
I0
sV\u7c97\u6e7f\u5570\u97f3
p61
I0
sV\u53cc\u80ba\u547c\u5438\u8fd0\u52a8\u4e00\u81f4
p62
I0
sV\u81ea\u4e3b\u4f53\u4f4d
p63
I0
sV\u547c\u5438\u5e73\u7a33
p64
I0
sV\u5f8b\u9f50
p65
I0
sV\u7f57\u97f3
p66
I0
sV\u4e0a\u53f0\u9636\u56f0\u96be
p67
I0
sV\u80a0\u9e23\u97f35\u6b21/\u5206
p68
I0
sV\u53cc\u80ba\u53e9\u8bca\u6e05\u97f3
p69
I0
sV\u6697\u7ea2\u8272\u7600\u70b9
p70
I0
sV\u795e\u5fd7\u6e05
p71
I0
sV\u53e9\u9f13\u97f3
p72
I0
sV\u6e7f\u6027\u5570\u97f3
p73
I0
sV\u5916\u89c2\u6b63\u5e38
p74
I0
sV\u53cc\u4fa7\u816e\u817a\u80bf\u5927
p75
I0
sV\u53d1\u80b2\u6b63\u5e38
p76
I0
sV\u56db\u80a2\u808c\u5f20\u529b\u51cf\u4f4e
p77
I0
sV\u53cc\u5df4\u6c0f\u5f81\u9634\u6027
p78
I0
sV\u58f0\u5636
p79
I0
sV\u767d\u8272\u5206\u6ccc\u7269
p80
I0
sV\u7ad9\u7acb\u56f0\u96be
p81
I0
sV\u53cc\u773c\u5206\u6ccc\u7269\u8f83\u591a
p82
I0
sV\u9888\u8f6f
p83
I0
sV\u819d\u8171\u53cd\u5c04\u53ef\u5f15\u51fa
p84
I0
sV\u80a0\u9e23\u97f3\u6d3b\u8dc3
p85
I0
sV\u6fc0\u7d20\u9762\u5bb9
p86
I0
sV\u6c14\u4fc3
p87
I0
sV\u6d3b\u52a8\u53d7\u9650
p88
I0
sV\u53d1\u80b2\u4e2d\u7b49
p89
I0
sV\u8179\u90e8\u4e0d\u9002
p90
I0
sV\u547c\u5438\u89c4\u6574
p91
I0
sV\u7cbe\u795e\u6b63\u5e38
p92
I0
sV\u4f38\u820c\u5c45\u4e2d
p93
I0
sV\u5fc3\u7387\u589e\u5feb
p94
I0
sV\u6d41\u6d95
p95
I0
sV\u8425\u517b\u53d1\u80b2\u4e2d\u7b49
p96
I0
sV\u53ef\u95fb\u53ca\u75f0\u9e23\u97f3
p97
I0
sV\u514b\u6c0f\u5f81\u9634\u6027
p98
I0
sV\u624b\u8db3\u80bf\u80c0
p99
I0
sV\u9762\u8272\u6b63\u5e38
p100
I0
sV\u8113\u6027\u5206\u6ccc\u7269
p101
I0
sV\u8868\u60c5\u6de1\u6f20
p102
I0
sV\u5bf9\u7b54\u5207\u9898
p103
I0
sV\u76ae\u75b9
p104
I0
sV\u8425\u517b\u504f\u5dee
p105
I0
sV\u51f9\u9677
p106
I0
sV\u5bf9\u5149\u53cd\u5e94\u654f\u611f
p107
I0
sV\u5438\u6c14\u6027\u4e09\u51f9\u5f81
p108
I0
sV\u6d3b\u52a8\u597d
p109
I0
sV\u7cbe\u795e\u5dee
p110
I0
sV\u75b9\u95f4\u76ae\u80a4\u6b63\u5e38
p111
I0
sV\u7ea2\u8272\u76ae\u75b9
p112
I0
sV\u5361\u75a4
p113
I0
sV\u9635\u631b
p114
I0
sV\u56db\u80a2\u6d3b\u52a8\u6b63\u5e38
p115
I0
sV\u53cc\u4fa7\u4e0b\u80a2\u8fd1\u6bb5\u808c\u529b\u7a0d\u5dee
p116
I0
sV\u7cbe\u795e\u53cd\u5e94\u53ef
p117
I0
sV\u547c\u5438\u97f3\u7a0d\u4f4e
p118
I0
sV\u76b2\u88c2
p119
I0
sV\u4e2d\u5c0f\u6c34\u6ce1\u97f3
p120
I0
sV\u5589\u6897\u963b
p121
I0
sV\u5fc3\u97f3\u6709\u529b
p122
I0
sV\u5438\u6c14\u6027\u4e0a\u51f9
p123
I0
sV\u75b1\u75b9
p124
I0
sV\u5f39\u6027\u6b63\u5e38
p125
I0
sV\u6e83\u75a1
p126
I0
sV\u4e0d\u81ea\u4e3b\u52a8\u4f5c
p127
I0
sV\u5438\u6c14\u6027\u5589\u9e23
p128
I0
sV\u6768\u6885\u820c
p129
I0
sV\u7ed3\u819c\u5145\u8840
p130
I0
sV\u6775\u72b6\u6307
p131
I0
sV\u6e7f\u5ea6\u6b63\u5e38
p132
I0
sV\u6c34\u6ce1
p133
I0
sV\u8dd1\u6b65\u548c\u8df3\u8dc3\u59ff\u52bf\u6b20\u4f73
p134
I0
sV\u8d2b\u8840
p135
I0
sV\u54ee\u9e23\u97f3
p136
I0
sV\u8fdf\u949d
p137
I0
sV\u5589\u9e23\u97f3
p138
I0
sV\u7ec6\u6e7f\u5570\u97f3
p139
I0
sV\u53cc\u80ba\u547c\u5438\u97f3\u7c97
p140
I0
sV\u56db\u80a2\u6e7f
p141
I0
sV\u5e03\u5f0f\u5f81\u9634\u6027
p142
I0
sV\u7532\u72b6\u817a\u4e0d\u5927
p143
I0
sV\u70e6\u8e81
p144
I0
sV\u9f3b\u6247
p145
I0
sV\u53cc\u77b3\u5b54\u7b49\u5927\u7b49\u5706
p146
I0
sV\u6591\u4e18\u75b9
p147
I0
sV\u54bd\u90e8\u5145\u8840
p148
I0
sV\u76ae\u80a4\u7c97\u7cd9
p149
I0
sV\u54bd\u5145\u8840
p150
I0
sV\u8c35\u5984
p151
I0
sV\u5168\u8eab\u76ae\u80a4\u989c\u8272\u6b63\u5e38
p152
I0
sV\u7ea2\u80bf
p153
I0
sV\u53d1\u70ed
p154
I0
sV\u4e0d\u80fd\u5e94\u7b54
p155
I0
sV\u6d3b\u52a8\u81ea\u5982
p156
I0
sV\u808c\u529bV\u7ea7
p157
I0
sV\u7259\u9f88\u80bf\u80c0
p158
I0
sV\u53e3\u8154\u9ecf\u819c\u5149\u6ed1
p159
I0
sV\u8179\u80c0
p160
I0
sV\u773c\u7751\u6c34\u80bf
p161
I0
sV\u53d1\u7ec0
p162
I0
sV\u4e18\u75b9
p163
I0
sV\u55dc\u7761
p164
I0
sV\u7ea2\u8272\u6591\u75b9
p165
I0
sV\u8425\u517b\u4e2d\u7b49
p166
I0
sV\u795e\u5fd7\u4e0d\u6e05
p167
I0
s.