(dp0
V\u5fc3\u8840\u7ba1\u7cfb\u7edf
p1
(dp2
V\u5fc3\u614c
p3
(lp4
V\u5fc3\u614c
p5
asV\u5fc3\u810f\u6742\u97f3
p6
(lp7
V\u5fc3\u810f\u6742\u97f3
p8
assV\u547c\u5438\u7cfb\u7edf
p9
(dp10
V\u54b3\u55fd
p11
(lp12
V\u95f4\u65ad\u54b3\u55fd
p13
aV\u54b3\u55fd
p14
aV\u6709\u75f0
p15
aV\u53cd\u590d\u54b3\u55fd
p16
aV\u545b\u54b3
p17
aV\u58f0\u54b3
p18
aV\u8f7b\u54b3
p19
aV\u5e72\u54b3
p20
aV\u54b3\u91cd
p21
aV\u54b3\u75f0
p22
aV\u767d\u75f0
p23
aV\u6709\u9ec4\u75f0
p24
aV\u5c11\u75f0
p25
aV\u70ed\u54b3
p26
aV\u9635\u53d1\u6027\u54b3\u55fd
p27
aV\u9635\u54b3
p28
aV\u72ac\u5420\u6837
p29
aV\u201c\u9e21\u9e23\u201d\u6837\u5438\u6c14\u6027\u543c\u58f0
p30
asV\u547c\u5438\u56f0\u96be
p31
(lp32
V\u80f8\u95f7
p33
aV\u5598\u606f
p34
aV\u9f3b\u585e
p35
aV\u53d1\u618b
p36
aV\u54ee\u5598
p37
aV\u6c14\u77ed
p38
aV\u53d1\u4f5c\u6027\u5598\u606f
p39
aV\u547c\u5438\u56f0\u96be
p40
aV\u9f3b\u5835
p41
aV\u6c14\u4fc3
p42
aV\u53d1\u7ec0
p43
aV\u9f3b\u8154\u4e0d\u7545
p44
aV\u53e3\u5507\u53d1\u7ec0
p45
aV\u547c\u5438\u6025\u4fc3
p46
aV\u547c\u5438\u4fc3
p47
asV\u6253\u55b7\u568f
p48
(lp49
V\u55b7\u568f
p50
aV\u6253\u55b7\u568f
p51
asV\u54af\u8840
p52
(lp53
V\u54af\u8840
p54
asV\u80f8\u75db
p55
(lp56
V\u80f8\u75db
p57
asV\u6d41\u6d95
p58
(lp59
V\u6d41\u6d95
p60
aV\u6e05\u6d95
p61
aV\u6d41\u9ec4\u6d95
p62
aV\u6d41\u8113\u6d95
p63
asV\u54bd\u90e8\u4e0d\u9002
p64
(lp65
V\u54bd\u75db
p66
aV\u54bd\u75d2
p67
aV\u5f02\u5e38\u5206\u6ccc\u7269
p68
aV\u8113\u6027\u5206\u6ccc\u7269
p69
asV\u5589\u708e
p70
(lp71
V\u58f0\u97f3\u5636\u54d1
p72
aV\u58f0\u5636
p73
aV\u54ed\u58f0\u5636\u54d1
p74
asV\u80f8\u95f7
p75
(lp76
V\u80f8\u95f7
p77
asV\u9f3b\u708e
p78
(lp79
V\u9f3b\u708e
p80
assV\u6d88\u5316\u7cfb\u7edf
p81
(dp82
V\u98df\u6b32\u6539\u53d8
p83
(lp84
V\u591a\u98df
p85
aV\u8fdb\u98df\u56f0\u96be
p86
aV\u98df\u6b32\u5dee
p87
aV\u98df\u6b32\u6b63\u5e38
p88
aV\u7eb3\u5dee
p89
aV\u7eb3\u5976\u6b20\u4f73
p90
aV\u98df\u91cf\u589e\u52a0
p91
aV\u538c\u98df
p92
asV\u80c3
p93
(lp94
V\u53cd\u9178
p95
asV\u6076\u5fc3
p96
(lp97
V\u6076\u5fc3
p98
asV\u5927\u4fbf\u5f02\u5e38
p99
(lp100
V\u5927\u4fbf\u6b63\u5e38
p101
aV\u8840\u4fbf
p102
aV\u7c98\u6db2
p103
aV\u6392\u5927\u4fbf
p104
aV\u5927\u4fbf\u7a0d\u5e72
p105
aV\u7cca\u72b6\u4fbf
p106
aV\u5927\u4fbf\u5c11
p107
aV\u5927\u4fbf\u504f\u7a00
p108
aV\u4fbf\u79d8
p109
asV\u8179\u90e8\u4e0d\u9002
p110
(lp111
V\u8179\u80c0
p112
aV\u8179\u90e8\u4e0d\u9002
p113
asV\u80c3\u80a0
p114
(lp115
V\u8179\u90e8\u4e0d\u9002
p116
asV\u5455\u5410
p117
(lp118
V\u5455\u5410
p119
aV\u5410\u5976
p120
aV\u95f4\u65ad\u5455\u5410
p121
aV\u8fdb\u98df\u540e\u5373\u5410
p122
asV\u6d41\u6d8e
p123
(lp124
V\u6d41\u53e3\u6c34
p125
asV\u53e3\u8154\u9ecf\u819c
p126
(lp127
V\u7259\u9f88\u53d1\u708e
p128
asV\u8179\u6cfb
p129
(lp130
V\u8179\u6cfb
p131
aV\u9ad8\u70ed\u4f34\u8179\u6cfb
p132
aV\u5927\u4fbf\u6b21\u6570\u589e\u591a
p133
aV\u9ec4\u7a00\u6c34\u4fbf
p134
aV\u6ce1\u6cab
p135
asV\u8179\u75db 
p136
(lp137
V\u53f3\u4e0b\u8179\u75db
p138
asV\u8179\u75db
p139
(lp140
V\u4e0a\u8179\u75db
p141
aV\u8179\u75db
p142
aV\u6301\u7eed\u6027\u8179\u75db
p143
assV\u9020\u8840\u7cfb\u7edf
p144
(dp145
V\u8d2b\u8840
p146
(lp147
V\u8d2b\u8840
p148
asV\u8840\u5c0f\u677f\u6570\u76ee\u5f02\u5e38
p149
(lp150
V\u8840\u5c0f\u677f\u8ba1\u6570\u6ce2\u52a8
p151
assV\u5176\u4ed6\u7cfb\u7edf
p152
(dp153
V\u6c34\u80bf
p154
(lp155
V\u624b\u8db3\u80bf\u80c0
p156
aV\u773c\u7751\u6c34\u80bf
p157
asV\u751f\u957f\u8fdf\u7f13
p158
(lp159
V\u751f\u957f\u843d\u540e
p160
aV\u8eab\u9ad8\u843d\u540e
p161
aV\u751f\u957f\u53d1\u80b2\u843d\u540e
p162
asV\u773c\u90e8\u75c7\u72b6
p163
(lp164
V\u754f\u5149
p165
asV\u5173\u8282\u75c7\u72b6
p166
(lp167
V\u53cc\u819d\u5173\u8282\u75bc\u75db
p168
aV\u8e1d\u5173\u8282\u80bf\u75db
p169
aV\u5173\u8282\u80bf\u75db
p170
asV\u76ae\u80a4\u75c7\u72b6
p171
(lp172
V\u76ae\u75b9
p173
aV\u6c34\u75b1
p174
aV\u9762\u90e8\u7619\u75d2
p175
aV\u7247\u72b6\u8131\u5c51
p176
aV\u76ae\u80a4\u7619\u75d2
p177
aV\u5927\u75b1
p178
aV\u75b1\u75b9
p179
aV\u7ea2\u8272\u76ae\u75b9
p180
aV\u4e18\u75b9
p181
aV\u7ea2\u8272\u6591\u75b9
p182
aV\u8131\u6c34
p183
asV\u54ed\u95f9
p184
(lp185
V\u5c11\u54ed\u95f9
p186
aV\u54ed\u95f9
p187
aV\u54ed\u58f0\u4f4e\u54d1
p188
asV\u7761\u7720\u5f02\u5e38
p189
(lp190
V\u7761\u7720\u6b63\u5e38
p191
aV\u7761\u7720\u591a
p192
aV\u55dc\u7761
p193
aV\u7761\u7720\u5dee
p194
asV\u6392\u6c57\u5f02\u5e38
p195
(lp196
V\u76d7\u6c57
p197
aV\u591a\u6c57
p198
aV\u51fa\u6c57
p199
assV\u6dcb\u5df4\u7cfb\u7edf
p200
(dp201
V\u9888\u90e8\u5305\u5757
p202
(lp203
V\u9888\u90e8\u5305\u5757
p204
assV\u795e\u7ecf\u808c\u8089\u7cfb\u7edf
p205
(dp206
V\u5934\u75db
p207
(lp208
V\u5934\u75db
p209
aV\u5934\u75db\u52a0\u91cd
p210
aV\u5934\u75db\u6e10\u52a0\u91cd
p211
asV\u5934\u6655
p212
(lp213
V\u5934\u6655
p214
asV\u660f\u8ff7
p215
(lp216
V\u6655\u53a5
p217
asV\u808c\u8089\u75c7\u72b6
p218
(lp219
V\u4e4f\u529b
p220
aV\u808c\u8089\u9178\u75db
p221
aV\u62bd\u52a8
p222
aV\u56db\u80a2\u9178\u75db
p223
aV\u62bd\u6410
p224
aV\u7259\u5173\u7d27\u95ed
p225
aV\u9635\u631b
p226
aV\u53cc\u4e0a\u80a2\u5185\u6536\u5448\u62e5\u62b1\u72b6
p227
asV\u6655\u53a5
p228
(lp229
V\u6655\u53a5
p230
asV\u60ca\u53a5
p231
(lp232
V\u60ca\u53a5
p233
asV\u62bd\u6410
p234
(lp235
V\u7a81\u7136\u70b9\u5934
p236
aV\u51dd\u89c6
p237
aV\u6210\u4e32\u53d1\u4f5c
p238
assV\u53d1\u70ed
p239
(dp240
V\u53d1\u70ed
p241
(lp242
V\u4f4e\u70ed
p243
aV\u53cd\u590d\u53d1\u70ed
p244
aV\u53d1\u70ed
p245
aV\u9ad8\u70ed\u4f34\u8179\u6cfb
p246
aV\u5bd2\u6218
p247
aV\u754f\u5bd2
p248
aV\u9ad8\u70ed
p249
aV\u4f53\u6e29\u4e0d\u964d
p250
assV\u6ccc\u5c3f\u7cfb\u7edf
p251
(dp252
V\u5c0f\u4fbf\u5f02\u5e38
p253
(lp254
V\u5c3f\u75db
p255
aV\u5c3f\u9891
p256
aV\u5927\u5c0f\u4fbf\u6b63\u5e38
p257
aV\u5c3f\u5c11
p258
aV\u5c3f\u8272\u6df1
p259
aV\u5c3f\u91cf\u660e\u663e\u589e\u591a
p260
aV\u5c3f\u91cf\u6b63\u5e38
p261
aV\u5c3f\u8272\u9ec4
p262
aV\u591a\u5c3f
p263
aV\u4e0d\u80fd\u81ea\u4e3b\u6392\u5c3f
p264
aV\u6392\u5c3f\u8d39\u529b
p265
aV\u5c3f\u8272\u6b63\u5e38
p266
aV\u5c0f\u4fbf\u6b63\u5e38
p267
aV\u5c3f\u8272\u4e0d\u9ec4
p268
aV\u5c3f\u91cf\u4e0d\u5c11
p269
asV\u5927\u4fbf\u5f02\u5e38
p270
(lp271
V\u5927\u4fbf\u5f02\u5e38
p272
aV\u9ec4\u7a00\u6c34\u4fbf
p273
asV\u591a\u996e
p274
(lp275
V\u591a\u996e
p276
ass.