(dp0
V\u5fc3\u8840\u7ba1\u7cfb\u7edf
p1
(dp2
V\u5fc3\u60b8
p3
(lp4
V\u65e0\u5fc3\u60b8
p5
asV\u5fc3\u614c
p6
(lp7
V\u5fc3\u614c
p8
aV\u65e0\u5fc3\u614c
p9
asV\u5fc3\u810f\u6742\u97f3
p10
(lp11
V\u5fc3\u810f\u6742\u97f3
p12
assV\u547c\u5438\u7cfb\u7edf
p13
(dp14
V\u54b3\u55fd
p15
(lp16
V\u95f4\u65ad\u54b3\u55fd
p17
aV\u54b3\u55fd
p18
aV\u6709\u75f0
p19
aV\u53cd\u590d\u54b3\u55fd
p20
aV\u545b\u54b3
p21
aV\u58f0\u54b3
p22
aV\u8f7b\u54b3
p23
aV\u5e72\u54b3
p24
aV\u65e0\u54b3\u55fd
p25
aV\u65e0\u54b3\u75f0
p26
aV\u65e0\u996e\u6c34\u545b\u54b3
p27
aV\u65e0\u75f0
p28
aV\u54b3\u91cd
p29
aV\u54b3\u75f0
p30
aV\u767d\u75f0
p31
aV\u6709\u9ec4\u75f0
p32
aV\u5c11\u75f0
p33
aV\u70ed\u54b3
p34
aV\u9635\u53d1\u6027\u54b3\u55fd
p35
aV\u9635\u54b3
p36
aV\u72ac\u5420\u6837
p37
aV\u201c\u9e21\u9e23\u201d\u6837\u5438\u6c14\u6027\u543c\u58f0
p38
asV\u547c\u5438\u56f0\u96be
p39
(lp40
V\u80f8\u95f7
p41
aV\u5598\u606f
p42
aV\u9f3b\u585e
p43
aV\u65e0\u547c\u5438\u56f0\u96be
p44
aV\u65e0\u9f3b\u5835
p45
aV\u53d1\u618b
p46
aV\u65e0\u5598\u606f
p47
aV\u65e0\u9f3b\u585e
p48
aV\u54ee\u5598
p49
aV\u6c14\u77ed
p50
aV\u53d1\u4f5c\u6027\u5598\u606f
p51
aV\u547c\u5438\u56f0\u96be
p52
aV\u65e0\u618b\u6c14
p53
aV\u65e0\u6c14\u4fc3
p54
aV\u9f3b\u5835
p55
aV\u6c14\u4fc3
p56
aV\u53d1\u7ec0
p57
aV\u65e0\u6c14\u77ed
p58
aV\u65e0\u7f3a\u6c27
p59
aV\u9f3b\u8154\u4e0d\u7545
p60
aV\u65e0\u53d1\u7ec0
p61
aV\u53e3\u5507\u53d1\u7ec0
p62
aV\u65e0\u53d1\u618b
p63
aV\u547c\u5438\u6025\u4fc3
p64
aV\u65e0\u547c\u5438\u6025\u4fc3
p65
aV\u547c\u5438\u4fc3
p66
aV\u65e0\u6cd5\u5e73\u5367
p67
asV\u6253\u55b7\u568f
p68
(lp69
V\u55b7\u568f
p70
aV\u6253\u55b7\u568f
p71
asV\u7f3a\u6c27
p72
(lp73
V\u65e0\u53e3\u5507\u53d1\u7ec0
p74
asV\u54af\u8840
p75
(lp76
V\u54af\u8840
p77
asV\u80f8\u75db
p78
(lp79
V\u80f8\u75db
p80
aV\u65e0\u80f8\u75db
p81
asV\u6d41\u6d95
p82
(lp83
V\u6d41\u6d95
p84
aV\u6e05\u6d95
p85
aV\u6d41\u9ec4\u6d95
p86
aV\u6d41\u8113\u6d95
p87
aV\u65e0\u6d41\u6d95
p88
asV\u54bd\u90e8\u4e0d\u9002
p89
(lp90
V\u54bd\u75db
p91
aV\u65e0\u54bd\u75db
p92
aV\u54bd\u75d2
p93
aV\u65e0\u8113\u6027\u5206\u6ccc\u7269
p94
aV\u5f02\u5e38\u5206\u6ccc\u7269
p95
aV\u8113\u6027\u5206\u6ccc\u7269
p96
asV\u5589\u708e
p97
(lp98
V\u58f0\u97f3\u5636\u54d1
p99
aV\u58f0\u5636
p100
aV\u65e0\u58f0\u5636
p101
aV\u54ed\u58f0\u5636\u54d1
p102
asV\u80f8\u95f7
p103
(lp104
V\u65e0\u80f8\u95f7
p105
aV\u80f8\u95f7
p106
asV\u9f3b\u708e
p107
(lp108
V\u9f3b\u708e
p109
assV\u6d88\u5316\u7cfb\u7edf
p110
(dp111
V\u98df\u6b32\u6539\u53d8
p112
(lp113
V\u591a\u98df
p114
aV\u8fdb\u98df\u56f0\u96be
p115
aV\u98df\u6b32\u5dee
p116
aV\u98df\u6b32\u6b63\u5e38
p117
aV\u7eb3\u5dee
p118
aV\u7eb3\u5976\u6b20\u4f73
p119
aV\u98df\u91cf\u589e\u52a0
p120
aV\u538c\u98df
p121
asV\u80c3
p122
(lp123
V\u53cd\u9178
p124
asV\u6076\u5fc3
p125
(lp126
V\u6076\u5fc3
p127
aV\u65e0\u6076\u5fc3
p128
asV\u5927\u4fbf\u5f02\u5e38
p129
(lp130
V\u5927\u4fbf\u6b63\u5e38
p131
aV\u8840\u4fbf
p132
aV\u65e0\u8840\u4fbf
p133
aV\u65e0\u4fbf\u8840
p134
aV\u7c98\u6db2
p135
aV\u6392\u5927\u4fbf
p136
aV\u5927\u4fbf\u7a0d\u5e72
p137
aV\u7cca\u72b6\u4fbf
p138
aV\u65e0\u9ed1\u4fbf
p139
aV\u5927\u4fbf\u5c11
p140
aV\u5927\u4fbf\u504f\u7a00
p141
aV\u4fbf\u79d8
p142
asV\u55f3\u6c14
p143
(lp144
V\u65e0\u55f3\u6c14
p145
asV\u8179\u90e8\u4e0d\u9002
p146
(lp147
V\u8179\u80c0
p148
aV\u65e0\u8179\u80c0
p149
aV\u8179\u90e8\u4e0d\u9002
p150
asV\u80c3\u80a0
p151
(lp152
V\u8179\u90e8\u4e0d\u9002
p153
asV\u8179\u75db
p154
(lp155
V\u4e0a\u8179\u75db
p156
aV\u8179\u75db
p157
aV\u65e0\u4e0a\u8179\u75db
p158
aV\u6301\u7eed\u6027\u8179\u75db
p159
aV\u65e0\u8179\u75db
p160
asV\u5455\u5410
p161
(lp162
V\u65e0\u5455\u5410
p163
aV\u5455\u5410
p164
aV\u5410\u5976
p165
aV\u95f4\u65ad\u5455\u5410
p166
aV\u8fdb\u98df\u540e\u5373\u5410
p167
aV\u65e0\u5455\u8840
p168
aV\u65e0\u53cd\u9178
p169
asV\u53e3\u8154\u9ecf\u819c
p170
(lp171
V\u65e0\u53e3\u8154\u6e83\u75a1
p172
aV\u7259\u9f88\u53d1\u708e
p173
asV\u8179\u6cfb
p174
(lp175
V\u8179\u6cfb
p176
aV\u9ad8\u70ed\u4f34\u8179\u6cfb
p177
aV\u65e0\u7c98\u6db2
p178
aV\u65e0\u8179\u6cfb
p179
aV\u5927\u4fbf\u6b21\u6570\u589e\u591a
p180
aV\u9ec4\u7a00\u6c34\u4fbf
p181
aV\u6ce1\u6cab
p182
asV\u8179\u75db 
p183
(lp184
V\u53f3\u4e0b\u8179\u75db
p185
asV\u54bd\u90e8\u4e0d\u9002
p186
(lp187
V\u65e0\u54bd\u75db
p188
asV\u5455\u5410\u3001\u8179\u6cfb
p189
(lp190
V\u65e0\u5410\u6cfb
p191
asV\u6d41\u6d8e
p192
(lp193
V\u6d41\u53e3\u6c34
p194
assV\u9020\u8840\u7cfb\u7edf
p195
(dp196
V\u8d2b\u8840
p197
(lp198
V\u8d2b\u8840
p199
aV\u65e0\u8d2b\u8840
p200
asV\u8840\u5c0f\u677f\u6570\u76ee\u5f02\u5e38
p201
(lp202
V\u8840\u5c0f\u677f\u8ba1\u6570\u6ce2\u52a8
p203
assV\u5176\u4ed6\u7cfb\u7edf
p204
(dp205
V\u6c34\u80bf
p206
(lp207
V\u65e0\u6c34\u80bf
p208
aV\u624b\u8db3\u80bf\u80c0
p209
aV\u4e0b\u80a2\u65e0\u6c34\u80bf
p210
aV\u773c\u7751\u65e0\u6c34\u80bf
p211
aV\u773c\u7751\u6c34\u80bf
p212
asV\u751f\u957f\u8fdf\u7f13
p213
(lp214
V\u751f\u957f\u843d\u540e
p215
aV\u8eab\u9ad8\u843d\u540e
p216
aV\u751f\u957f\u53d1\u80b2\u843d\u540e
p217
asV\u773c\u90e8\u75c7\u72b6
p218
(lp219
V\u754f\u5149
p220
asV\u5173\u8282\u75c7\u72b6
p221
(lp222
V\u65e0\u5173\u8282\u75db
p223
aV\u65e0\u5173\u8282\u80bf\u75db
p224
aV\u53cc\u819d\u5173\u8282\u75bc\u75db
p225
aV\u65e0\u5173\u8282\u7ea2\u80bf
p226
aV\u8e1d\u5173\u8282\u80bf\u75db
p227
aV\u5173\u8282\u80bf\u75db
p228
aV\u65e0\u5173\u8282\u75bc\u75db
p229
asV\u76ae\u80a4\u75c7\u72b6
p230
(lp231
V\u76ae\u75b9
p232
aV\u6c34\u75b1
p233
aV\u9762\u90e8\u7619\u75d2
p234
aV\u7247\u72b6\u8131\u5c51
p235
aV\u76ae\u80a4\u7619\u75d2
p236
aV\u5927\u75b1
p237
aV\u65e0\u76ae\u75b9
p238
aV\u75b1\u75b9
p239
aV\u7ea2\u8272\u76ae\u75b9
p240
aV\u4e18\u75b9
p241
aV\u7ea2\u8272\u6591\u75b9
p242
aV\u8131\u6c34
p243
aV\u65e0\u9ec4\u75b8
p244
aV\u65e0\u8131\u6c34
p245
asV\u54ed\u95f9
p246
(lp247
V\u5c11\u54ed\u95f9
p248
aV\u54ed\u95f9
p249
aV\u65e0\u54ed\u95f9
p250
aV\u65e0\u54ed\u95f9\u4e0d\u5b89
p251
aV\u54ed\u58f0\u4f4e\u54d1
p252
asV\u7761\u7720\u5f02\u5e38
p253
(lp254
V\u65e0\u55dc\u7761
p255
aV\u7761\u7720\u6b63\u5e38
p256
aV\u7761\u7720\u591a
p257
aV\u55dc\u7761
p258
aV\u7761\u7720\u5dee
p259
asV\u6392\u6c57\u5f02\u5e38
p260
(lp261
V\u65e0\u76d7\u6c57
p262
aV\u76d7\u6c57
p263
aV\u591a\u6c57
p264
aV\u65e0\u6f6e\u70ed\u76d7\u6c57
p265
aV\u51fa\u6c57
p266
aV\u65e0\u51fa\u6c57
p267
assV\u6dcb\u5df4\u7cfb\u7edf
p268
(dp269
V\u9888\u90e8\u5305\u5757
p270
(lp271
V\u9888\u90e8\u5305\u5757
p272
assV\u795e\u7ecf\u808c\u8089\u7cfb\u7edf
p273
(dp274
V\u5934\u75db
p275
(lp276
V\u5934\u75db
p277
aV\u5934\u75db\u52a0\u91cd
p278
aV\u5934\u75db\u6e10\u52a0\u91cd
p279
aV\u65e0\u5934\u75db
p280
asV\u60c5\u7eea
p281
(lp282
V\u6613\u6fc0\u60f9
p283
asV\u5934\u6655
p284
(lp285
V\u5934\u6655
p286
aV\u65e0\u5934\u6655
p287
asV\u660f\u8ff7
p288
(lp289
V\u6655\u53a5
p290
aV\u65e0\u6655\u53a5
p291
asV\u808c\u8089\u75c7\u72b6
p292
(lp293
V\u4e4f\u529b
p294
aV\u808c\u8089\u9178\u75db
p295
aV\u62bd\u52a8
p296
aV\u65e0\u62bd\u6410
p297
aV\u56db\u80a2\u9178\u75db
p298
aV\u62bd\u6410
p299
aV\u7259\u5173\u7d27\u95ed
p300
aV\u65e0\u529b
p301
aV\u9635\u631b
p302
aV\u53cc\u4e0b\u80a2\u65e0\u529b
p303
aV\u53cc\u4e0a\u80a2\u5185\u6536\u5448\u62e5\u62b1\u72b6
p304
asV\u6655\u53a5
p305
(lp306
V\u6655\u53a5
p307
asV\u60ca\u53a5
p308
(lp309
V\u60ca\u53a5
p310
aV\u65e0\u60ca\u53a5
p311
asV\u62bd\u6410
p312
(lp313
V\u7a81\u7136\u70b9\u5934
p314
aV\u51dd\u89c6
p315
aV\u6210\u4e32\u53d1\u4f5c
p316
assV\u53d1\u70ed
p317
(dp318
V\u53d1\u70ed
p319
(lp320
V\u4f4e\u70ed
p321
aV\u53cd\u590d\u53d1\u70ed
p322
aV\u53d1\u70ed
p323
aV\u9ad8\u70ed\u4f34\u8179\u6cfb
p324
aV\u5bd2\u6218
p325
aV\u754f\u5bd2
p326
aV\u65e0\u754f\u5bd2
p327
aV\u65e0\u53d1\u70e7
p328
aV\u65e0\u53d1\u70ed
p329
aV\u9ad8\u70ed
p330
aV\u4f53\u6e29\u4e0d\u964d
p331
aV\u65e0\u5bd2\u6218
p332
aV\u65e0\u4f4e\u70ed
p333
assV\u6ccc\u5c3f\u7cfb\u7edf
p334
(dp335
V\u5c0f\u4fbf\u5f02\u5e38
p336
(lp337
V\u5c3f\u75db
p338
aV\u5c3f\u9891
p339
aV\u5927\u5c0f\u4fbf\u6b63\u5e38
p340
aV\u5c3f\u5c11
p341
aV\u65e0\u8089\u773c\u8840\u5c3f
p342
aV\u5c3f\u8272\u6df1
p343
aV\u65e0\u5c3f\u9891
p344
aV\u5c3f\u91cf\u660e\u663e\u589e\u591a
p345
aV\u65e0\u591a\u5c3f
p346
aV\u5c3f\u91cf\u6b63\u5e38
p347
aV\u5c3f\u8272\u9ec4
p348
aV\u591a\u5c3f
p349
aV\u4e0d\u80fd\u81ea\u4e3b\u6392\u5c3f
p350
aV\u6392\u5c3f\u8d39\u529b
p351
aV\u65e0\u5c11\u5c3f
p352
aV\u5c3f\u8272\u6b63\u5e38
p353
aV\u65e0\u5c3f\u75db
p354
aV\u5c0f\u4fbf\u6b63\u5e38
p355
aV\u5c3f\u8272\u4e0d\u9ec4
p356
aV\u5c3f\u91cf\u4e0d\u5c11
p357
asV\u5927\u4fbf\u5f02\u5e38
p358
(lp359
V\u5927\u5c0f\u4fbf\u6b63\u5e38
p360
asV\u591a\u996e
p361
(lp362
V\u65e0\u591a\u996e
p363
aV\u591a\u996e
p364
ass.