(dp0
V\u5c0f\u4fbf\u5f02\u5e38
p1
(lp2
V\u5c3f\u75db
p3
aV\u5c3f\u9891
p4
aV\u5c3f\u5c11
p5
aV\u5c3f\u8272\u6df1
p6
aV\u5c3f\u91cf\u660e\u663e\u589e\u591a
p7
aV\u5c3f\u91cf\u6b63\u5e38
p8
aV\u5c3f\u8272\u9ec4
p9
aV\u591a\u5c3f
p10
aV\u4e0d\u80fd\u81ea\u4e3b\u6392\u5c3f
p11
aV\u6392\u5c3f\u8d39\u529b
p12
aV\u5c3f\u8272\u6b63\u5e38
p13
aV\u5c0f\u4fbf\u6b63\u5e38
p14
aV\u5c3f\u8272\u4e0d\u9ec4
p15
aV\u5c3f\u91cf\u4e0d\u5c11
p16
asV\u5934\u75db
p17
(lp18
V\u5934\u75db
p19
aV\u5934\u75db\u52a0\u91cd
p20
aV\u5934\u75db\u6e10\u52a0\u91cd
p21
asV\u54b3\u55fd
p22
(lp23
V\u95f4\u65ad\u54b3\u55fd
p24
aV\u54b3\u55fd
p25
aV\u6709\u75f0
p26
aV\u53cd\u590d\u54b3\u55fd
p27
aV\u545b\u54b3
p28
aV\u58f0\u54b3
p29
aV\u8f7b\u54b3
p30
aV\u5e72\u54b3
p31
aV\u54b3\u91cd
p32
aV\u54b3\u75f0
p33
aV\u767d\u75f0
p34
aV\u6709\u9ec4\u75f0
p35
aV\u5c11\u75f0
p36
aV\u70ed\u54b3
p37
aV\u9635\u53d1\u6027\u54b3\u55fd
p38
aV\u9635\u54b3
p39
aV\u72ac\u5420\u6837
p40
aV\u201c\u9e21\u9e23\u201d\u6837\u5438\u6c14\u6027\u543c\u58f0
p41
asV\u9888\u90e8\u5305\u5757
p42
(lp43
V\u9888\u90e8\u5305\u5757
p44
asV\u5455\u5410
p45
(lp46
V\u5455\u5410
p47
aV\u5410\u5976
p48
aV\u95f4\u65ad\u5455\u5410
p49
aV\u8fdb\u98df\u540e\u5373\u5410
p50
asV\u80f8\u75db
p51
(lp52
V\u80f8\u75db
p53
asV\u8179\u6cfb
p54
(lp55
V\u8179\u6cfb
p56
aV\u9ad8\u70ed\u4f34\u8179\u6cfb
p57
aV\u5927\u4fbf\u6b21\u6570\u589e\u591a
p58
aV\u9ec4\u7a00\u6c34\u4fbf
p59
aV\u6ce1\u6cab
p60
asV\u76ae\u80a4\u75c7\u72b6
p61
(lp62
V\u76ae\u75b9
p63
asV\u54bd\u90e8\u4e0d\u9002
p64
(lp65
V\u54bd\u75db
p66
asV\u8179\u75db
p67
(lp68
V\u4e0a\u8179\u75db
p69
aV\u8179\u75db
p70
aV\u6301\u7eed\u6027\u8179\u75db
p71
asV\u53d1\u70ed
p72
(lp73
V\ufeff\u4f4e\u70ed
p74
aV\u53cd\u590d\u53d1\u70ed
p75
aV\u53d1\u70ed
p76
aV\u9ad8\u70ed\u4f34\u8179\u6cfb
p77
aV\u4f4e\u70ed
p78
aV\u5bd2\u6218
p79
aV\u754f\u5bd2
p80
aV\u9ad8\u70ed
p81
aV\u4f53\u6e29\u4e0d\u964d
p82
as.