(dp0
V\u5355\u4fa7\u8179\u80a1\u6c9f\u759d
p1
I1
sV\u75b1\u75b9\u6027\u54bd\u5ce1\u708e
p2
I3
sV\u6025\u6027\u5589\u652f\u6c14\u7ba1\u708e
p3
I1
sV\u80c3\u708e
p4
I36
sV\u652f\u6c14\u7ba1\u80ba\u708e
p5
I109
sV\u9aa8\u8f6f\u5316\u6027\u4f5d\u507b\u75c5
p6
I1
sV\u8170\u75db
p7
I1
sV\u9888\u6dcb\u5df4\u7ed3\u708e
p8
I5
sV\u54af\u8840
p9
I1
sV\u652f\u6c14\u7ba1\u5f02\u7269
p10
I1
sV\u6655\u53a5
p11
I1
sV\u6c14\u7ba1\u708e
p12
I193
sV\u80f8\u95f7
p13
I6
sV\u6d41\u611f
p14
I1
sV\u54ee\u5598\u6027\u652f\u6c14\u7ba1\u708e
p15
I2
sV\u80a0\u75c9\u631b
p16
I12
sV\u5c3f\u75db
p17
I1
sV\u6025\u6027\u54bd\u708e
p18
I1
sV\u76ae\u75b9
p19
I4
sV\u53d1\u70ed
p20
I530
sV\u9611\u5c3e\u708e
p21
I4
sV\u5fc3\u810f\u6742\u97f3
p22
I1
sV\u5598\u606f\u6027\u652f\u6c14\u7ba1\u80ba\u708e
p23
I5
sV\u5455\u5410
p24
I6
sV\u7ec6\u83cc\u6027\u611f\u67d3
p25
I44
sV\u8840\u5c0f\u677f\u51cf\u5c11\u75c7
p26
I1
sV\u80f8\u75db
p27
I4
sV\u80c6\u7ed3\u77f3
p28
I1
sV\u652f\u6c14\u7ba1\u708e
p29
I329
sV\u7f3a\u9499
p30
I2
sV\u80c3\u80a0\u708e
p31
I38
sV\u9f3b\u8844
p32
I1
sV\u547c\u5438\u9053\u611f\u67d3
p33
I837
sV\u4e4f\u529b
p34
I1
sV\u5598\u606f\u6027\u652f\u6c14\u7ba1\u708e
p35
I14
sV\u5e7d\u95e8\u87ba\u65cb\u6746\u83cc\u611f\u67d3
p36
I2
sV\u8179\u8154\u79ef\u6db2
p37
I1
sV\u6025\u6027\u7ec6\u83cc\u611f\u67d3
p38
I1
sV\u5934\u75db
p39
I2
sV\u652f\u539f\u4f53\u611f\u67d3
p40
I1
sV\u5934\u6655
p41
I3
sV\u6dcb\u5df4\u7ed3\u708e
p42
I4
sV\u6025\u6027\u4e2d\u8033\u708e
p43
I2
sV\u8179\u6cfb
p44
I18
sV\u6076\u5fc3
p45
I1
sV\u6d41\u884c\u6027\u611f\u5192
p46
I7
sV\u5589\u708e
p47
I16
sV\u80c3\u75c9\u631b
p48
I4
sV\u80c3\u80a0\u529f\u80fd\u7d0a\u4e71
p49
I91
sV\u6ccc\u5c3f\u9053\u611f\u67d3
p50
I2
sV\u6d88\u5316\u4e0d\u826f
p51
I5
sV\u5316\u8113\u6027\u6241\u6843\u4f53\u708e
p52
I29
sV\u4f20\u67d3\u6027\u5355\u6838\u7ec6\u80de\u589e\u591a\u75c7
p53
I2
sV\u80f8\u8154\u79ef\u6db2
p54
I3
sV\u94fe\u7403\u83cc\u611f\u67d3
p55
I4
sV\u6025\u6027\u7ed3\u819c\u708e
p56
I1
sV\u652f\u6c14\u7ba1\u5468\u56f4\u708e
p57
I21
sV\u4fbf\u79d8
p58
I1
sV\u80a0\u708e
p59
I9
sV\u5c3f\u9891
p60
I3
sV\u53e3\u8154\u75b1\u75b9
p61
I1
sV\u4e59\u578b\u6d41\u611f
p62
I1
sV\u8179\u75db
p63
I79
sV\u8fc7\u654f\u6027\u7d2b\u765c
p64
I1
sV\u75b9\u6027\u54bd\u5ce1\u708e
p65
I1
sV\u6025\u6027\u6241\u6843\u4f53\u708e
p66
I29
sVEB\u75c5\u6bd2\u611f\u67d3
p67
I2
sV\u80c3\u80a0\u578b\u611f\u5192
p68
I3
sV\u75c5\u6bd2\u6027\u611f\u67d3
p69
I18
sV\u7c92\u7ec6\u80de\u7f3a\u4e4f\u75c7
p70
I10
sV\u9f3b\u708e
p71
I14
s.