ccollections
defaultdict
p0
(c__builtin__
list
p1
tp2
Rp3
V\u75b1\u75b9\u6027\u54bd\u5ce1\u708e
p4
(lp5
sV\u5fc3\u810f\u6742\u97f3
p6
(lp7
sV\u54af\u8840
p8
(lp9
sV\u54a8\u8be2
p10
(lp11
sV\u6076\u5fc3
p12
(lp13
sV\u5c3f\u75db
p14
(lp15
sV\u6025\u6027\u75c5\u6bd2\u611f\u67d3
p16
(lp17
sV\u80c3\u80a0\u529f\u80fd\u7d0a\u4e71
p18
(lp19
(lp20
V\u8179\u8f6f
p21
aF1.0
aI-1
aa(lp22
V\u5fc3\u97f3\u6709\u529b
p23
aF1.0
aI-1
aasV\u6025\u6027\u5589\u652f\u6c14\u7ba1\u708e
p24
(lp25
sV\u5598\u606f\u6027\u652f\u6c14\u7ba1\u80ba\u708e
p26
(lp27
sV\u652f\u6c14\u7ba1\u708e
p28
(lp29
(lp30
V\u8179\u8f6f
p31
aF1.0
aI-1
aa(lp32
V\u7cbe\u795e\u597d
p33
aF1.0
aI-1
aa(lp34
V\u547c\u5438\u5e73\u7a33
p35
aF1.0
aI-1
aa(lp36
V\u5fc3\u97f3\u6709\u529b
p37
aF1.0
aI-1
aa(lp38
V\u54b3\u55fd
p39
aF1.02
aI1
aasV\u9ea6\u6c0f\u70b9\u6709\u538b\u75db
p40
(lp41
(lp42
V\u9611\u5c3e\u708e
p43
aF1.0
aI1
aasV\u6025\u6027\u7ec6\u83cc\u611f\u67d3
p44
(lp45
sV\u6025\u6027\u6c14\u7ba1\u708e
p46
(lp47
sV\u6dcb\u5df4\u7ed3\u708e
p48
(lp49
sV\u6025\u6027\u4e2d\u8033\u708e
p50
(lp51
sV\u6c14\u7ba1\u708e\uff08\u4e3b\uff09
p52
(lp53
sV\u6ccc\u5c3f\u9053\u611f\u67d3
p54
(lp55
sV\u6d88\u5316\u4e0d\u826f
p56
(lp57
sV\u5316\u8113\u6027\u6241\u6843\u4f53\u708e
p58
(lp59
sV\u4f20\u67d3\u6027\u5355\u6838\u7ec6\u80de\u589e\u591a\u75c7
p60
(lp61
sV\u54ee\u5598\u6027\u652f\u6c14\u7ba1\u708e
p62
(lp63
sVE-B\u75c5\u6bd2\u611f\u67d3
p64
(lp65
sV\u6025\u6027\u5589\u708e
p66
(lp67
sV\u5355\u4fa7\u8179\u80a1\u6c9f\u759d
p68
(lp69
sV\u6025\u6027\u5316\u8113\u6027\u6241\u6843\u4f53\u708e
p70
(lp71
sV\u611f\u67d3\u6027\u53d1\u70ed
p72
(lp73
(lp74
V\u5fc3\u97f3\u6709\u529b
p75
aF1.0
aI-1
aa(lp76
V\u8179\u8f6f
p77
aF1.0
aI-1
aa(lp78
V\u53d1\u70ed
p79
aF0.97
aI1
aa(lp80
V\u547c\u5438\u5e73\u7a33
p81
aF1.0
aI-1
aasV\u75c5\u6bd2\u611f\u67d3
p82
(lp83
sV\u5c3f\u9891
p84
(lp85
sV\u652f\u6c14\u7ba1\u708e\uff08\u4e3b\uff09
p86
(lp87
sV\u6025\u6027\u80c3\u80a0\u708e
p88
(lp89
sV\u6025\u6027\u9888\u6dcb\u5df4\u7ed3\u708e
p90
(lp91
sV\u6025\u6027\u652f\u6c14\u7ba1\u708e
p92
(lp93
(lp94
V\u8179\u8f6f
p95
aF1.0
aI-1
aa(lp96
V\u54b3\u55fd
p97
aF0.98
aI1
aa(lp98
V\u5fc3\u97f3\u6709\u529b
p99
aF1.0
aI-1
aasV\u6025\u6027\u80a0\u708e
p100
(lp101
sV\u4fbf\u79d8
p102
(lp103
sV\u5455\u5410
p104
(lp105
sV\u7ec6\u83cc\u6027\u611f\u67d3
p106
(lp107
sV\u4e4f\u529b
p108
(lp109
sV\u53ef\u95fb\u5598\u606f\u97f3
p110
(lp111
(lp112
V\u5598\u606f\u6027\u652f\u6c14\u7ba1\u708e
p113
aF1.0
aI1
aasV\u5a74\u513f\u7684\u9aa8\u8f6f\u5316\u6027\u4f5d\u507b\u75c5
p114
(lp115
sV\u6025\u6027\u5316\u8113\u6027\u6241\u6843\u817a\u708e
p116
(lp117
sV\u6025\u6027\u7ec6\u83cc\u6027\u611f\u67d3
p118
(lp119
sV\u652f\u539f\u4f53\u611f\u67d3
p120
(lp121
sV\u5934\u6655
p122
(lp123
sV\u53ef\u95fb\u5598\u9e23\u97f3
p124
(lp125
(lp126
V\u5598\u606f\u6027\u652f\u6c14\u7ba1\u708e
p127
aF1.0
aI1
aasV\u6162\u6027\u5589\u708e
p128
(lp129
sV\u5589\u708e
p130
(lp131
sV\u8179\u75db\u5f85\u67e5
p132
(lp133
sV\u5c3f\u5e38\u89c4+\u6d41\u5f0f\u5c3f\u6c89\u6e23\u5168\u81ea\u52a8\u5206\u6790
p134
(lp135
sV\u94fe\u7403\u83cc\u611f\u67d3
p136
(lp137
sV\u7c92\u7ec6\u80de\u7f3a\u4e4f\u75c7
p138
(lp139
sV\u652f\u6c14\u7ba1\u5468\u56f4\u708e
p140
(lp141
sV\u8179\u75db
p142
(lp143
(lp144
V\u5fc3\u97f3\u6709\u529b
p145
aF1.0
aI-1
aa(lp146
V\u547c\u5438\u5e73\u7a33
p147
aF1.0
aI-1
aa(lp148
V\u8179\u8f6f
p149
aF1.0
aI-1
aa(lp150
V\u8179\u75db
p151
aF0.92
aI1
aasV\u75b1\u75b9\u6027\u54bd\u708e
p152
(lp153
sV\u6025\u6027\u6dcb\u5df4\u7ed3\u708e
p154
(lp155
sV\u7c92\u7ec6\u80de\u7f3a\u4e4f
p156
(lp157
sV\u80c3\u708e
p158
(lp159
sV\u4e59\u578b\u6d41\u611f
p160
(lp161
sV\u6655\u53a5
p162
(lp163
(lp164
V\u6655\u53a5
p165
aF1.0
aI1
aasV\u80f8\u95f7
p166
(lp167
sV\u80ba\u708e
p168
(lp169
(lp170
V\u53ef\u95fb\u5e72\u6e7f\u7f57\u97f3
p171
aF1.0
aI-1
aasV\u76ae\u75b9
p172
(lp173
sV\u6025\u6027\u6241\u6843\u4f53\u708e
p174
(lp175
sV\u9611\u5c3e\u708e
p176
(lp177
sV\u8840\u5c0f\u677f\u51cf\u5c11\u75c7
p178
(lp179
sV\u80f8\u75db
p180
(lp181
sV\u80c3\u80a0\u708e
p182
(lp183
sV\u6025\u6027\u5598\u606f\u6027\u652f\u6c14\u7ba1\u708e
p184
(lp185
sV\u5598\u606f\u6027\u652f\u6c14\u7ba1\u708e
p186
(lp187
sV\u5e7d\u95e8\u87ba\u65cb\u6746\u83cc\u611f\u67d3
p188
(lp189
sV\u8179\u8154\u79ef\u6db2
p190
(lp191
sV\u5934\u75db
p192
(lp193
sV\u6d41\u884c\u6027\u611f\u5192
p194
(lp195
sV\u5168\u8840\u7ec6\u80de\u5206\u6790\uff08\u4ec5\u4f9b\u513f\u79d1\u4f7f\u7528\u4e94\u5206\u7c7b-\u672b\u68a2\u8840\uff09+C\u53cd\u5e94\u86cb\u767d
p196
(lp197
sV\u9888\u6dcb\u5df4\u7ed3\u708e
p198
(lp199
sV\u7ec6\u83cc\u611f\u67d3
p200
(lp201
sV\u652f\u6c14\u7ba1\u80ba\u708e\uff08\u5c0f\u53f6\u6027\u80ba\u708e\uff09
p202
(lp203
sVEB\u75c5\u6bd2\u611f\u67d3
p204
(lp205
sV\u652f\u539f\u4f53\u6027\u80ba\u708e
p206
(lp207
sV\u65b0\u751f\u513f\u80ba\u708e
p208
(lp209
sV\u80ba\u708e\uff08\u5de6\u4e0b\uff09
p210
(lp211
sV\u9f3b\u708e
p212
(lp213
sV\u652f\u6c14\u7ba1\u80ba\u708e
p214
(lp215
(lp216
V\u5fc3\u97f3\u6709\u529b
p217
aF1.0
aI-1
aa(lp218
V\u8179\u8f6f
p219
aF1.0
aI-1
aa(lp220
V\u54b3\u55fd
p221
aF1.02
aI1
aasV\u8170\u75db
p222
(lp223
sV\u5a74\u513f\u80a0\u708e
p224
(lp225
sV\u4e2d\u6027\u7c92\u7ec6\u80de\u51cf\u5c11\u75c7
p226
(lp227
sV\u4e0a\u547c\u5438\u9053\u611f\u67d3
p228
(lp229
sV\u6c14\u7ba1\u708e
p230
(lp231
(lp232
V\u54b3\u55fd
p233
aF0.93
aI1
aasV\u6d41\u611f
p234
(lp235
sV\u80a0\u75c9\u631b
p236
(lp237
sV\u6025\u6027\u54bd\u708e
p238
(lp239
sV\u80c6\u7ed3\u77f3
p240
(lp241
sV\u7f3a\u9499
p242
(lp243
sV\u9f3b\u8844
p244
(lp245
sV\u547c\u5438\u9053\u611f\u67d3
p246
(lp247
(lp248
V\u5fc3\u97f3\u6709\u529b
p249
aF0.99
aI1
aa(lp250
V\u8179\u8f6f
p251
aF0.98
aI1
aasV\u53cc\u4fa7\u9888\u90e8\u53ef\u53ca\u6570\u4e2a\u6dcb\u5df4\u7ed3
p252
(lp253
(lp254
V\u6025\u6027\u6dcb\u5df4\u7ed3\u708e
p255
aF1.0
aI1
aasV\u9888\u90e8\u6dcb\u5df4\u7ed3\u80bf\u5927\u89e6\u75db
p256
(lp257
(lp258
V\u6025\u6027\u6dcb\u5df4\u7ed3\u708e
p259
aF1.0
aI1
aasV\u8179\u6cfb
p260
(lp261
sV\u53ef\u95fb\u54ee\u9e23\u97f3
p262
(lp263
(lp264
V\u54ee\u5598\u6027\u652f\u6c14\u7ba1\u708e
p265
aF1.0
aI1
aasV\u6025\u6027\u6241\u6843\u4f53
p266
(lp267
sV\u80c3\u75c9\u631b
p268
(lp269
sV\u6025\u6027\u80c3\u708e
p270
(lp271
sV\u53d1\u70ed
p272
(lp273
(lp274
V\u5fc3\u97f3\u6709\u529b
p275
aF1.0
aI-1
aa(lp276
V\u547c\u5438\u5e73\u7a33
p277
aF1.0
aI-1
aa(lp278
V\u7cbe\u795e\u53cd\u5e94\u597d
p279
aF1.0
aI-1
aa(lp280
V\u7cbe\u795e\u597d
p281
aF1.0
aI-1
aa(lp282
V\u8179\u8f6f
p283
aF1.0
aI-1
aa(lp284
V\u672a\u95fb\u7f57\u97f3
p285
aF1.0
aI-1
aa(lp286
V\u53d1\u70ed
p287
aF0.97
aI1
aa(lp288
V\u672a\u53ca\u5305\u5757
p289
aF1.0
aI-1
aa(lp290
V\u54bd\u5145\u8840
p291
aF0.92
aI1
aa(lp292
V\u98df\u6b32\u6b20\u4f73
p293
aF1.0
aI-1
aasV\u80f8\u8154\u79ef\u6db2
p294
(lp295
sV\u8fc7\u654f\u6027\u7d2b\u765c
p296
(lp297
sV\u80c3\u80a0\u578b\u611f\u5192
p298
(lp299
sV\u6025\u6027\u7ed3\u819c\u708e
p300
(lp301
s.