(dp0
V\u5fc5\u8981\u6761\u4ef6
p1
(dp2
V\u5316\u8113\u6027\u6241\u6843\u4f53\u708e
p3
V\u8113\u6027\u5206\u6ccc\u7269
p4
sV\u53d1\u70ed
p5
g5
sV\u5455\u5410
p6
g6
ssV\u5145\u5206\u6761\u4ef6
p7
(dp8
V\u8179\u6cfb
p9
g9
sV\u6768\u6885\u820c
p10
V\u94fe\u7403\u83cc\u611f\u67d3
p11
sV\u5598\u9e23\u97f3
p12
V\u54ee\u5598\u6027\u652f\u6c14\u7ba1\u708e
p13
sV\u80bf\u5927\u6dcb\u5df4\u7ed3
p14
V\u6dcb\u5df4\u7ed3\u708e
p15
sV\u5598\u606f\u97f3
p16
V\u5598\u606f\u6027\u652f\u6c14\u7ba1\u708e
p17
sV\u6c34\u6ce1\u97f3
p18
V\u652f\u6c14\u7ba1\u80ba\u708e
p19
sV\u58f0\u97f3\u5636\u54d1
p20
V\u5589\u708e
p21
sV\u54ed\u58f0\u5636\u54d1
p22
g21
sV\u54ee\u9e23\u97f3
p23
g13
sV\u53f3\u4e0b\u8179\u538b\u75db
p24
V\u9611\u5c3e\u708e
p25
sV\u9ea6\u6c0f\u70b9
p26
g25
sV\u9888\u90e8\u80bf\u5927
p27
V\u9888\u6dcb\u5df4\u7ed3\u708e
p28
sV\u75b1\u75b9
p29
V\u75b1\u75b9\u6027\u54bd\u5ce1\u708e
p30
sV\u53f3\u4e0b\u8179\u75db
p31
g25
sV\u6dcb\u5df4\u7ed3\u80bf\u5927
p32
g15
sV\u7f57\u97f3
p33
g19
sV\u5c3f\u9891
p34
g34
sV\u5598\u606f\u97f3, \u6c34\u6ce1\u97f3
p35
V\u5598\u606f\u6027\u652f\u6c14\u7ba1\u80ba\u708e
p36
sV\u8033\u7275\u62c9\u75db
p37
V\u4e2d\u8033\u708e
p38
sV\u72ac\u5420\u6837
p39
g21
sV\u5598\u606f\u97f3, \u7f57\u97f3
p40
g36
ss.