(dp0
V\u7d2b\u765c\u6027\u80be\u708e
p1
(dp2
V\u4e34\u5e8a\u8868\u73b0
p3
V(1)\u80be\u810f\u75c7\u72b6:[1]\u8840\u5c3f$\u86cb\u767d\u5c3f$\u9ad8\u8840\u538b$\u6c34\u80bf$\u6c2e\u8d28\u8840\u75c7$\u6025\u6027\u80be\u8870\u7aed:[\u591a\u53d1\u751f\u5728\u7d2b\u765c\u540e2\uff5e4\u5468\u5185\uff0c\u4e2a\u522b\u75c5\u4f8b\u51fa\u73b06\u4e2a\u6708\u540e](2)\u80be\u5916\u75c7\u72b6:[1]\u76ae\u80a4\u7d2b\u765c$\u8179\u75db$\u4fbf\u8840$\u5455\u5410$\u5173\u8282\u75c7\u72b6:[\u4e09\u5927\u5178\u578b\u75c7\u72b6][2]\u6025\u6027\u80f0\u817a\u708e$\u80ba\u51fa\u8840$\u80a0\u6897\u963b$\u80a0\u7a7f\u5b54:[\u5e76\u53d1\u75c7]
p4
sV\u75be\u75c5\u540d\u79f0
p5
g1
sV\u8f85\u52a9\u68c0\u67e5
p6
V(1)\u8840\u5e38\u89c4:[\u767d\u7ec6\u80de\u6b63\u5e38\u6216\u8f7b\u5ea6\u589e\u9ad8\uff0c\u4e2d\u6027\u6216\u55dc\u9178\u6027\u7ec6\u80de\u6bd4\u4f8b\u589e\u591a](2)\u5c3f\u5e38\u89c4:[\u53ef\u6709\u8840\u5c3f\u3001\u86cb\u767d\u5c3f\u3001\u7ba1\u578b\u5c3f](3)\u51dd\u8840\u529f\u80fd\u68c0\u67e5:[\u6b63\u5e38\uff0c\u53ef\u4e0e\u8840\u6db2\u75c5\u81f4\u7d2b\u765c\u76f8\u9274\u522b](4)\u6bdb\u7ec6\u8840\u7ba1\u8106\u6027\u5b9e\u9a8c:[\u6025\u6027\u671f\u6bdb\u7ec6\u8840\u7ba1\u8106\u6027\u5b9e\u9a8c\u9633\u6027](5)\u8840\u6c89$\u8840\u6e05IgA\u53ca\u51b7\u7403\u86cb\u767d:[\u8840\u6c89\u589e\u5feb\uff0c\u8840\u6e05IgA\u548c\u51b7\u7403\u86cb\u767d\u542b\u91cf\u589e\u52a0\u3002\u4f46\u8840\u6e05IgA\u589e\u9ad8\u5bf9\u672c\u75c5\u8bca\u65ad\u65e0\u7279\u5f02\u6027](6)\u8865\u4f53:[\u8840\u6e05C3\u3001C1q\u3001\u5907\u89e3\u7d20\u591a\u6b63\u5e38](7)\u80be\u529f\u80fd:[\u591a\u6b63\u5e38\uff0c\u4e25\u91cd\u75c5\u4f8b\u53ef\u6709\u808c\u9150\u6e05\u9664\u7387\u964d\u4f4e\u548cBUN\u3001\u8840Cr\u589e\u9ad8](8)\u8840\u751f\u5316:[\u8868\u73b0\u4e3a\u80be\u75c5\u7efc\u5408\u5f81\u8005\uff0c\u6709\u8840\u6e05\u6e05\u86cb\u767d\u964d\u4f4e\u548c\u80c6\u56fa\u9187\u589e\u9ad8](9)\u76ae\u80a4\u6d3b\u68c0:[\u65e0\u8bba\u5728\u76ae\u75b9\u90e8\u6216\u975e\u76ae\u75b9\u90e8\u4f4d\uff0c\u514d\u75ab\u8367\u5149\u68c0\u67e5\u5747\u53ef\u89c1\u6bdb\u7ec6\u8840\u7ba1\u58c1\u6709IgA\u6c89\u79ef\u3002\u6b64\u70b9\u4e5f\u6709\u52a9\u4e8e\u548c\u9664IgA\u80be\u75c5\u5916\u7684\u5176\u4ed6\u80be\u708e\u4f5c\u9274\u522b](10)\u80be\u7a7f\u523a\u6d3b\u68c0:[\u80be\u7a7f\u523a\u6d3b\u7ec4\u7ec7\u68c0\u67e5\u6709\u52a9\u4e8e\u672c\u75c5\u7684\u8bca\u65ad\uff0c\u4e5f\u6709\u52a9\u4e8e\u660e\u4e86\u75c5\u53d8\u4e25\u91cd\u5ea6\u548c\u8bc4\u4f30\u9884\u540e]
p7
ssV\u8425\u517b\u6027\u5de8\u5e7c\u7ec6\u80de\u8d2b\u8840
p8
(dp9
g3
V(1)6\u4e2a\u6708\uff5e2\u5c81$\u8d77\u75c5\u7f13\u6162\u3002(2)\u865a\u80d6$\u989c\u9762\u8f7b\u5ea6\u6c34\u80bf$\u6bdb\u53d1\u7ea4\u7ec6\u7a00\u758f\u9ec4\u8272$\u76ae\u80a4\u8840\u70b9$\u7600\u6591(3)\u8d2b\u8840[1]\u76ae\u80a4\u8721\u9ec4\u8272$\u7751\u7ed3\u819c\u82cd\u767d$\u53e3\u5507\u82cd\u767d$\u6307\u7532\u82cd\u767d$\u8f7b\u5ea6\u9ec4\u75b8$\u75b2\u4e4f\u65e0\u529b$\u809d\u80bf\u5927$\u813e\u80bf\u5927(4)\u7cbe\u795e\u795e\u7ecf\u75c7\u72b6[1]\u70e6\u8e81\u4e0d\u5b89$\u6613\u6012[2]\u8868\u60c5\u5446\u6ede$\u76ee\u5149\u53d1\u76f4$\u53cd\u5e94\u8fdf\u949d$\u55dc\u7761$\u4e0d\u8ba4\u4eb2\u4eba$\u5c11\u54ed\u4e0d\u7b11$\u667a\u529b\u53d1\u80b2\u843d\u540e(\u9000\u6b65)$\u52a8\u4f5c\u53d1\u80b2\u843d\u540e(\u9000\u6b65)[3]\u4e0d\u89c4\u5219\u6027\u9707\u98a4$\u624b\u8db3\u65e0\u610f\u8bc6\u8fd0\u52a8$\u62bd\u6410$\u611f\u89c9\u5f02\u5e38$\u5171\u6d4e\u5931\u8c03$\u8e1d\u9635\u631b$Barbinski\u5f81\u9633\u6027(5)\u6d88\u5316\u7cfb\u7edf\u75c7\u72b6[1]\u538c\u98df$\u6076\u5fc3$\u5455\u5410$\u8179\u6cfb$\u820c\u708e]
p10
sg5
g8
sg6
V(1)\u8840\u8c61:[\u5448\u5927\u7ec6\u80de\u6027\u8d2b\u8840\uff0cMCV>94fl\uff0cMCH>32pg\u3002\u8840\u6d82\u7247\u53ef\u89c1\u7ea2\u7ec6\u80de\u5927\u5c0f\u4e0d\u7b49\uff0c\u4ee5\u5927\u7ec6\u80de\u4e3a\u591a\uff0c\u6613\u89c1\u55dc\u591a\u8272\u6027\u548c\u55dc\u78b1\u70b9\u5f69\u7ea2\u7ec6\u80de\uff0c\u53ef\u89c1\u5de8\u5e7c\u53d8\u7684\u6709\u6838\u7ea2\u7ec6\u80de\uff0c\u4e2d\u6027\u7c92\u7ec6\u80de\u5448\u5206\u53f6\u8fc7\u591a\u73b0\u8c61\u3002\u7f51\u7ec7\u7ea2\u7ec6\u80de\u3001\u767d\u7ec6\u80de\u3001\u8840\u5c0f\u677f\u8ba1\u6570\u5e38\u51cf\u5c11](2)\u9aa8\u9ad3\u8c61:[\u589e\u751f\u660e\u663e\u6d3b\u8dc3\uff0c\u4ee5\u7ea2\u7ec6\u80de\u7cfb\u589e\u751f\u4e3a\u4e3b\uff0c\u7c92\u3001\u7ea2\u7cfb\u7edf\u5747\u51fa\u73b0\u5de8\u5e7c\u53d8\uff0c\u8868\u73b0\u4e3a\u80de\u4f53\u53d8\u5927\u3001\u6838\u67d3\u8272\u8d28\u7c97\u800c\u677e\u3001\u526f\u67d3\u8272\u8d28\u660e\u663e\u3002\u4e2d\u6027\u7c92\u7684\u80de\u8d28\u7a7a\u6ce1\u5f62\u6210\uff0c\u6838\u5206\u53f6\u8fc7\u591a\u3002\u5de8\u6838\u7ec6\u80de\u7684\u6838\u6709\u8fc7\u5ea6\u5206\u53f6\u73b0\u8c61](3)\u8840\u6e05\u7ef4\u751f\u7d20B12\u548c\u53f6\u9178\u6d4b\u5b9a:[\u8840\u6e05\u7ef4\u751f\u7d20B12\u6b63\u5e38\u503c\u4e3a200\uff5e800ng\uff0fL\uff0c<100ng\uff0fL\u4e3a\u7f3a\u4e4f\u3002\u8840\u6e05\u53f6\u9178\u6c34\u5e73\u6b63\u5e38\u503c\u4e3a5\uff5e6\u03bcg\uff0fL\uff0c<3\u03bcg\uff0fL\u4e3a\u7f3a\u4e4f](4)\u8840\u6e05\u4e73\u9178\u8131\u6c27\u9176:[\u660e\u663e\u5347\u9ad8](5)\u8840\u6e05\u80c6\u7ea2\u7d20:[\u7ef4\u751f\u7d20B12\u7f3a\u4e4f\u8005][\u4e2d\u7b49\u5ea6\u5347\u9ad8](6)\u5c3f\u7532\u57fa\u4e19\u4e8c\u9178:[\u542b\u91cf\u589e\u9ad8]
p11
ssV\u5148\u5929\u6027\u9ad8\u6c28\u8840\u75c7
p12
(dp13
g3
V(1)\u65b0\u751f\u513f\u671f\u53d1\u75c5\u60a3\u513f[1]\u65e0\u660e\u663e\u75c7\u72b6:[\u751f\u540e24\u81f372\u5c0f\u65f6\u5185][2]\u55dc\u7761$\u62d2\u98df:[\u7136\u540e\u9010\u6e10\u51fa\u73b0][3]\u75c5\u60c5\u8fdb\u5c55\u8fc5\u901f[4]\u5455\u5410$\u4f53\u6e29\u4e0d\u5347$\u8fc7\u5ea6\u6362\u6c14$\u660f\u8ff7:[\u5728\u6570\u5c0f\u65f6\u5185\u53ef\u53d1\u751f][5]\u6613\u8bef\u8bca[1]\u80ba\u90e8\u75be\u75c5$\u8d25\u8840\u75c7$\u9885\u5185\u51fa\u8840(2)\u665a\u53d1\u578b\u60a3\u8005[1]\u8bf1\u56e0{1}\u5a74\u513f\u671f:[\u5a74\u513f\u671f\u53d1\u75c5\u8005\u53ef\u80fd\u4e0e\u7531\u6bcd\u4e73\u5582\u517b\u6539\u4e3a\u666e\u901a\u725b\u5976(\u542b\u8f83\u9ad8\u86cb\u767d)\u5582\u517b\u6709\u5173]{2}\u513f\u7ae5\u6216\u6210\u5e74\u4eba:[\u513f\u7ae5\u6216\u6210\u5e74\u4eba\u5219\u53ef\u80fd\u7531\u8fdb\u98df\u9ad8\u86cb\u767d\u8bf1\u53d1][2]\u7f13\u89e3\u56e0\u7d20{1}\u8f7b\u75c7:[\u8f7b\u75c7\u5728\u505c\u6b62\u6444\u5165\u86cb\u767d\u3001\u6216\u9759\u8109\u8f93\u6ce8\u8461\u8404\u7cd6\u540e\u5373\u53ef\u597d\u8f6c]{2}\u91cd\u75c7:[\u91cd\u75c7\u5728\u53d1\u751f\u9ad8\u6c28\u8840\u75c7\u65f6\u5e38\u89c1\u5455\u5410\u3001\u55dc\u7761\u3001\u6613\u6fc0\u60f9\u548c\u5171\u6d4e\u5931\u8c03\u7b49\u795e\u7ecf\u7cfb\u7edf\u75c7\u72b6][3]\u75c7\u72b6:{1}\u9ad8\u6c28\u8840\u75c7$\u547c\u5438\u6027\u78b1\u4e2d\u6bd2[4]\u9274\u522b\u75be\u75c5:{1}\u80c3\u80a0\u708e$\u5468\u671f\u6027\u5455\u5410$\u8111\u708e$Reye\u7efc\u5408\u5f81$\u766b\u75eb$\u65e0\u9ec4\u75b8\u6027\u809d\u708e[5]\u751f\u957f\u53d1\u80b2\u8fdf\u6ede$\u766b\u75eb\u53d1\u4f5c:[\u75c5\u7a0b\u8f83\u957f\u3001\u53d1\u4f5c\u6b21\u6570\u9891\u7e41\u8005]
p14
sg5
g12
sg6
V(1)\u8840\u6c28\u6d4b\u5b9a:[\u5e38\u7528\u9176\u5b66\u65b9\u6cd5\u68c0\u6d4b\uff0c\u60a3\u513f\u5e38>200\u03bcmol/L(\u6b63\u5e38\u5a74\u513f<35\u03bcmol/L)](2)\u8840\u5c3f\u7d20\u6d4b\u5b9a:[\u5e38\u4e3a\u6b63\u5e38\u6216\u504f\u4f4e](3)\u8840\u6c14\u5206\u6790:[\u56e0\u6c28\u5bf9\u547c\u5438\u4e2d\u67a2\u7684\u523a\u6fc0\u4f5c\u7528\uff0c\u5e38\u5f15\u81f4\u60a3\u513f\u547c\u5438\u6df1\u5feb\u3001\u8fc7\u5ea6\u6362\u6c14\u800c\u53d1\u751f\u547c\u5438\u6027\u78b1\u4e2d\u6bd2\uff0c\u636e\u6b64\u53ef\u4e0e\u5176\u4ed6\u75be\u75c5\u65f6\u7684\u9ad8\u6c28\u8840\u75c7\u76f8\u9274\u522b](4)\u8840\u5c3f\u6c28\u57fa\u9178\u548c\u6709\u673a\u9178\u5206\u6790:[\u9ad8\u6c28\u8840\u75c7\u53ef\u5bfc\u81f4\u8840\u4e2d\u8c37\u6c28\u9170\u80fa\u3001\u4e19\u6c28\u9178\u6d53\u5ea6\u5347\u9ad8\uff1bAS\u548cAL\u7f3a\u4e4f\u60a3\u513f\u8840\u6d46\u74dc\u6c28\u9178\u660e\u663e\u589e\u9ad8\uff0c\u5c24\u4ee5AS\u6700\u4e3a\u663e\u8457\uff1bAL\u7f3a\u4e4f\u8005\u7684\u8840\u548c\u5c3f\u6db2\u4e2d\u7cbe\u6c28\u9170\u7425\u73c0\u9178\u6d53\u5ea6\u663e\u8457\u589e\u9ad8\uff0c\u5176\u4ed6\u5404\u578b\u5747\u4e0d\u80fd\u6d4b\u5f97\uff1bARG\u7f3a\u4e4f\u8005\u8840\u548c\u5c3f\u6db2\u4e2d\u7cbe\u6c28\u9178\u660e\u663e\u589e\u9ad8](5)\u9176\u5b66\u8bca\u65ad:[\u5c3f\u7d20\u5faa\u73af\u4e2d\u5404\u79cd\u9176\u7684\u6d3b\u6027\u68c0\u6d4b\u53ef\u4ee5\u91c7\u96c6\u809d\u3001\u80a0\u9ecf\u819c\u3001\u57f9\u517b\u7684\u76ae\u80a4\u6210\u7ea4\u7ef4\u7ec6\u80de\u6216\u7ea2\u7ec6\u80de\u7b49\u6807\u672c\u8fdb\u884c](6)DNA\u5206\u6790:[\u76ee\u524d\u5df2\u53ef\u5bf9CPS\u548cOTC\u4e24\u79cd\u9176\u7f3a\u9677\u8005\u8fdb\u884cDNA\u5206\u6790\u8bca\u65ad]
p15
ssV\u513f\u7ae5\u53ca\u9752\u5c11\u5e74\u6291\u90c1\u75c7
p16
(dp17
g3
V(1)\u60c5\u7eea\u4f4e\u843d$\u4e0d\u5f00\u5fc3$\u4e0d\u6109\u5feb$\u8fc7\u5206\u60b2\u4f24$\u54ed\u6ce3$\u81ea\u6211\u8bc4\u4ef7\u8fc7\u4f4e$\u81ea\u8d23$\u8ba4\u4e3a\u81ea\u5df1\u7b28\u50bb\u65e0\u7528$\u5bf9\u4ec0\u4e48\u4e8b\u60c5\u90fd\u65e0\u5174\u8da3$\u60c5\u7eea\u6fc0\u60f9$\u597d\u53d1\u813e\u6c14$\u51b2\u52a8$\u81ea\u6b8b$\u81ea\u6740(2)\u601d\u7ef4\u548c\u884c\u4e3a\u5f02\u5e38:[1]\u601d\u7ef4\u8fdf\u7f13:[\u611f\u5230\u4e0d\u4f1a\u601d\u8003\u95ee\u9898\uff0c\u5927\u8111\u4e2d\u4e00\u7247\u7a7a\u767d][2]\u8bb0\u5fc6\u529b\u4e0b\u964d$\u6ce8\u610f\u529b\u4e0d\u96c6\u4e2d$\u8bb2\u8bdd\u97f3\u91cf\u4f4e$\u8bed\u901f\u6162$\u8a00\u8bed\u6d3b\u52a8\u660e\u663e\u51cf\u5c11$\u5b64\u50fb$\u62d2\u7edd\u4e0e\u4eba\u4ea4\u6d41$\u51b2\u52a8\u884c\u4e3a](3)\u8eaf\u4f53\u75c7\u72b6[1]\u5934\u6655$\u5934\u75db$\u75b2\u52b3\u65e0\u529b$\u6c14\u77ed$\u80f8\u95f7(4)\u80c3\u80a0\u9053\u75c7\u72b6[1]\u6076\u5fc3$\u5455\u5410$\u98df\u6b32\u51cf\u9000$\u4f53\u91cd\u4e0b\u964d$\u9762\u8272\u5026\u6020$\u7761\u7720\u969c\u788d(5)\u7cbe\u795e\u75c7\u72b6[1]\u7761\u7720\u8d28\u91cf\u5dee$\u591a\u68a6$\u6613\u65e9\u9192$\u9192\u540e\u53d1\u6101
p18
sg5
g16
sg6
V(1)\u65e0
p19
ssV\u80a0\u5957\u53e0
p20
(dp21
g3
V(1)\u5a74\u513f\u80a0\u5957\u53e0(1\u5c81\u4ee5\u5185\u8005):[\u5e38\u89c1\u65e2\u5f80\u5065\u5eb7\u80a5\u80d6\u7684\u5a74\u513f\uff0c\u7a81\u7136\u51fa\u73b0\u9635\u53d1\u6027\u6709\u89c4\u5f8b\u7684\u54ed\u95f9\uff0c\u6301\u7eed\u7ea610\uff5e20\u5206\u949f\uff0c\u4f34\u6709\u624b\u8db3\u4e71\u52a8\u3001\u9762\u8272\u82cd\u767d\u3001\u62d2\u98df\u3001\u5f02\u5e38\u75db\u82e6\u8868\u73b0\uff0c\u7136\u540e\u67095\uff5e10\u5206\u949f\u6216\u66f4\u957f\u65f6\u95f4\u7684\u6682\u65f6\u5b89\u9759\uff0c\u5982\u6b64\u53cd\u590d\u53d1\u4f5c\u3002\u6b64\u79cd\u9635\u53d1\u6027\u54ed\u95f9\u4e0e\u80a0\u8815\u52a8\u95f4\u671f\u76f8\u4e00\u81f4\uff0c\u7531\u4e8e\u80a0\u8815\u52a8\u5c06\u5957\u5165\u80a0\u6bb5\u5411\u524d\u63a8\u8fdb\uff0c\u80a0\u7cfb\u819c\u88ab\u7275\u62c9\uff0c\u80a0\u5957\u53e0\u9798\u90e8\u4ea7\u751f\u5f3a\u70c8\u6536\u7f29\u800c\u5f15\u8d77\u7684\u5267\u70c8\u75bc\u75db\uff0c\u5f53\u8815\u52a8\u6ce2\u8fc7\u540e\uff0c\u60a3\u513f\u5373\u8f6c\u4e3a\u5b89\u9759\u3002\u80a0\u5957\u53e0\u665a\u671f\u5408\u5e76\u80a0\u574f\u6b7b\u548c\u8179\u819c\u708e\u540e\uff0c\u60a3\u513f\u8868\u73b0\u840e\u9761\u4e0d\u632f\uff0c\u53cd\u5e94\u4f4e\u4e0b]][1]\u9635\u53d1\u6027\u54ed\u5435$\u624b\u8db3\u4e71\u52a8$\u9762\u8272\u82cd\u767d$\u62d2\u98df$\u5f02\u5e38\u75db\u82e6[2]\u5455\u5410:[\u521d\u4e3a\u5976\u6c41\u53ca\u4e73\u5757\u6216\u5176\u4ed6\u98df\u7269\uff0c\u4ee5\u540e\u8f6c\u4e3a\u80c6\u6c41\u6837\u7269\uff0c1\uff5e2\u5929\u540e\u8f6c\u4e3a\u5e26\u81ed\u5473\u7684\u80a0\u5185\u5bb9\u7269\uff0c\u63d0\u793a\u75c5\u60c5\u4e25\u91cd][3]\u8179\u90e8\u5305\u5757:[\u57282\u6b21\u54ed\u95f9\u7684\u95f4\u6b47\u671f\u68c0\u67e5\u8179\u90e8\uff0c\u53ef\u5728\u53f3\u4e0a\u8179\u809d\u4e0b\u89e6\u53ca\u814a\u80a0\u6837\u3001\u7a0d\u6d3b\u52a8\u5e76\u6709\u8f7b\u538b\u75db\u7684\u5305\u5757\uff0c\u53f3\u4e0b\u8179\u4e00\u822c\u6709\u7a7a\u865a\u611f\uff0c\u80bf\u5757\u53ef\u6cbf\u7ed3\u80a0\u79fb\u52a8\uff0c\u4e25\u91cd\u8005\u53ef\u5728\u809b\u95e8\u6307\u8bca\u65f6\uff0c\u5728\u76f4\u80a0\u5185\u89e6\u5230\u5b50\u5bab\u9888\u6837\u80bf\u7269\uff0c\u5373\u4e3a\u5957\u53e0\u5934\u90e8][4]\u679c\u9171\u6837\u8840\u4fbf:[\u5a74\u513f\u80a0\u5957\u53e0\u53d1\u751f\u8840\u4fbf\u8005\u8fbe80%\u4ee5\u4e0a\uff0c\u4e3a\u9996\u8981\u75c7\u72b6\u5c31\u8bca\uff0c\u591a\u5728\u53d1\u75c5\u540e6\uff5e12\u5c0f\u65f6\u6392\u8840\u4fbf\uff0c\u65e9\u8005\u5728\u53d1\u75c5\u540e3\uff5e4\u5c0f\u65f6\u5373\u53ef\u51fa\u73b0\uff0c\u4e3a\u7a00\u8584\u9ecf\u6db2\u6216\u80f6\u51bb\u6837\u679c\u9171\u8272\u8840\u4fbf\uff0c\u6570\u5c0f\u65f6\u540e\u53ef\u91cd\u590d\u6392\u51fa][5]\u809b\u95e8\u6307\u8bca:[\u6709\u91cd\u8981\u4e34\u5e8a\u4ef7\u503c\uff0c\u6709\u4e9b\u6765\u8bca\u8f83\u65e9\u60a3\u513f\uff0c\u867d\u65e0\u8840\u4fbf\u6392\u51fa\uff0c\u4f46\u901a\u8fc7\u809b\u95e8\u6307\u8bca\u53ef\u53d1\u73b0\u76f4\u80a0\u5185\u6709\u9ecf\u6db2\u8840\u4fbf\uff0c\u5bf9\u8bca\u65ad\u80a0\u5957\u53e0\u6781\u6709\u4ef7\u503c][6]\u67e5\u4f53\u75c7\u72b6:[\u4f9d\u5c31\u8bca\u65e9\u665a\u800c\u5f02\uff0c\u65e9\u671f\u9664\u9762\u8272\u82cd\u767d\uff0c\u70e6\u8e81\u4e0d\u5b89\u5916\uff0c\u8425\u517b\u72b6\u51b5\u826f\u597d\u3002\u665a\u671f\u60a3\u513f\u53ef\u6709\u8131\u6c34\uff0c\u7535\u89e3\u8d28\u7d0a\u4e71\uff0c\u7cbe\u795e\u840e\u9761\u4e0d\u632f\u3001\u55dc\u7761\u3001\u53cd\u5e94\u8fdf\u949d\u3002][7]\u9762\u8272\u82cd\u767d$\u70e6\u8e81\u4e0d\u5b89$\u8131\u6c34$\u7535\u89e3\u8d28\u7d0a\u4e71$\u7cbe\u795e\u840e\u9761\u4e0d\u632f$\u55dc\u7761$\u53cd\u5e94\u8fdf\u949d[8]\u4e2d\u6bd2\u6027\u4f11\u514b:[\u53d1\u751f\u80a0\u574f\u6b7b\u65f6\uff0c\u6709\u8179\u819c\u708e\u8868\u73b0\uff0c\u53ef\u51fa\u73b0\u4e2d\u6bd2\u6027\u4f11\u514b\u7b49\u75c7\u72b6](2)\u513f\u7ae5\u80a0\u5957\u53e0:[\u591a\u8868\u73b0\u4e3a\u4e0d\u5b8c\u5168\u6027\u80a0\u6897\u963b\uff0c\u80a0\u574f\u6b7b\u53d1\u751f\u65f6\u95f4\u76f8\u5bf9\u6bd4\u8f83\u665a\u3002\u60a3\u513f\u4e5f\u6709\u9635\u53d1\u6027\u8179\u75db\uff0c\u4f46\u53d1\u4f5c\u95f4\u6b47\u671f\u8f83\u5a74\u513f\u4e3a\u957f\uff0c\u5455\u5410\u8f83\u5c11\u89c1\u3002\u636e\u7edf\u8ba1\u513f\u7ae5\u80a0\u5957\u53e0\u53d1\u751f\u4fbf\u8840\u8005\u53ea\u670940%\u5de6\u53f3\uff0c\u800c\u4e14\u4fbf\u8840\u5f80\u5f80\u5728\u5957\u53e0\u540e\u51e0\u5929\u624d\u51fa\u73b0\uff0c\u6216\u8005\u4ec5\u5728\u809b\u95e8\u6307\u8bca\u65f6\u6307\u5957\u4e0a\u6709\u5c11\u8bb8\u8840\u8ff9\u3002][1]\u591a\u6570\u60a3\u8005:[\u591a\u8868\u73b0\u4e3a\u4e0d\u5b8c\u5168\u6027\u80a0\u6897\u963b\uff0c\u80a0\u574f\u6b7b\u53d1\u751f\u65f6\u95f4\u76f8\u5bf9\u6bd4\u8f83\u665a\u3002]{1}\u4e0d\u5b8c\u5168\u6027\u80a0\u6897\u963b$\u80a0\u574f\u6b7b$\u9635\u53d1\u6027\u8179\u75db$\u4fbf\u8840$\u8179\u90e8\u814a\u80a0\u578b\u5305\u5757[2]\u4e25\u91cd\u60a3\u8005:[\u5f88\u5c11\u6709\u4e25\u91cd\u8131\u6c34\u53ca\u4f11\u514b\u8868\u73b0\u3002]{1}\u4e25\u91cd\u8131\u6c34$\u4f11\u514b
p22
sg5
g20
sg6
V(1)\u8179\u90e8\u8d85\u58f0:[\u4e3a\u5e38\u7528\u68c0\u67e5\u65b9\u6cd5\uff0c\u53ef\u4ee5\u901a\u8fc7\u80a0\u5957\u53e0\u7684\u7279\u5f81\u6027\u5f71\u50cf\u534f\u52a9\u4e34\u5e8a\u786e\u5b9a\u8bca\u65ad\u3002\u8d85\u58f0\u63a2\u67e5\u8179\u90e8\u65f6\u91cd\u70b9\u5728\u53f3\u4e0b\u8179\u3001\u56de\u76f2\u90e8\u3001\u7ed3\u80a0\u809d\u533a\u53ca\u813e\u533a\u3002\u53d1\u73b0\u6709\u53ef\u7591\u58f0\u50cf\u65f6\u5e94\u591a\u4e2a\u65b9\u5411\u63a2\u67fb\u5206\u8fa8\u3002\u80a0\u5957\u53e0\u7684\u58f0\u50cf\u56fe\u8868\u73b0:\u6a2a\u65ad\u89c1\u73af\u72b6\u4f4e\u56de\u58f0\u533a\u5305\u7ed5\u9ad8\u4f4e\u76f8\u95f4\u7684\u6df7\u5408\u56de\u58f0\u533a\uff0c\u6216\u5448\u4e00\u81f4\u6027\u9ad8\u56de\u58f0\u7684\u5706\u5f62\u4e2d\u5fc3\uff0c\u5373\u201c\u540c\u5fc3\u5706\u201d\u5f81\uff1b\u7eb5\u5207:\u58f0\u50cf\u4e0e\u6a2a\u5207\u7c7b\u4f3c\uff0c\u5176\u5957\u5165\u7aef\u5448\u5706\u5934\u7ed3\u6784\u5468\u56f4\u4e3a\u4f4e\u56de\u58f0\u533a\uff0c\u5373\u201c\u5957\u7b52\u201d\u5f81\uff0c\u8fd1\u7aef\u80a0\u8154\u6269\u5f20](2)\u7a7a\u6c14(\u6216\u94a1)\u704c\u80a0:[\u7a7a\u6c14(\u6216\u94a1)\u704c\u80a0\u53ef\u4ee5\u5728\u660e\u786e\u8bca\u65ad\u7684\u540c\u65f6\u8fdb\u884c\u590d\u901a\u6574\u590d\u3002\u5728\u7a7a\u6c14\u704c\u80a0\u524d\u5148\u4f5c\u8179\u90e8\u6b63\u4fa7\u4f4d\u5168\u9762\u900f\u89c6\u68c0\u67e5\uff0c\u89c2\u5bdf\u80a0\u5185\u5145\u6c14\u53ca\u5206\u5e03\u60c5\u51b5\u3002\u6ce8\u6c14\u540e\u53ef\u89c1\u5728\u5957\u53e0\u9876\u7aef\u6709\u81f4\u5bc6\u8f6f\u7ec4\u7ec7\u80bf\u5757\u5448\u534a\u5706\u5f62\uff0c\u5411\u7ed3\u80a0\u5185\u7a81\u51fa\uff0c\u6c14\u4f53\u524d\u7aef\u5f62\u6210\u660e\u663e\u676f\u53e3\u5f71\uff0c\u6709\u65f6\u53ef\u89c1\u90e8\u5206\u6c14\u4f53\u8fdb\u5165\u9798\u90e8\u5f62\u6210\u4e0d\u540c\u7a0b\u5ea6\u94b3\u72b6\u9634\u5f71\u3002\u94a1\u704c\u80a0\u65f6\uff0c\u5957\u5165\u90e8\u80cc\u7aef\u5448\u676f\u53e3\u72b6\uff0c\u676f\u53e3\u671d\u5411\u8fd1\u4fa7\uff1b\u5c11\u91cf\u94a1\u5242\u8fdb\u5165\u9798\u90e8\u5448\u5f39\u7c27\u72b6\u6216\u5957\u73af\u72b6\u6539\u53d8\uff0c\u94a1\u5242\u4e0d\u6613\u901a\u8fc7\u5957\u53e0\u5904\uff0c\u968f\u7740\u538b\u529b\u589e\u52a0\u800c\u9010\u6e10\u63a8\u8fdb]
p23
ssV\u80a5\u539a\u6027\u5fc3\u808c\u75c5
p24
(dp25
g3
V(1)\u547c\u5438\u56f0\u96be$\u5fc3\u7ede\u75db$\u6655\u53a5$\u731d\u6b7b:[\u4e34\u5e8a\u75c7\u72b6\u6709\u56e0\u80ba\u6de4\u8840\u5f15\u8d77\u547c\u5438\u56f0\u96be\uff0c\u7531\u4e8e\u5de6\u5fc3\u5ba4\u6d41\u51fa\u9053\u6897\u963b\u53ef\u5f15\u8d77\u5fc3\u7ede\u75db\u3001\u6655\u53a5\u751a\u81f3\u731d\u6b7b](2)\u6536\u7f29\u671f\u6742\u97f3:[\u5de6\u5fc3\u5ba4\u6d41\u51fa\u9053\u6897\u963b\u65f6\u53ef\u5728\u4e3b\u52a8\u8109\u74e3\u542c\u8bca\u533a\u95fb\u53ca\u6536\u7f29\u671f\u6742\u97f3](3)\u5fc3\u5c16\u90e8\u6536\u7f29\u671f\u6742\u97f3:[\u4e8c\u5c16\u74e3\u53cd\u6d41\u65f6]
p26
sg5
g24
sg6
V(1)\u5fc3\u7535\u56fe:[\u5de6\u5fc3\u5ba4\u80a5\u5927\uff1b\u5f02\u5e38Q\u6ce2\uff1bQRS\u65f6\u9650\u5ef6\u957f\uff1bST-T\u6539\u53d8](2)X\u7ebf\u68c0\u67e5:[\u5fc3\u5f71\u6b63\u5e38\u6216\u6269\u5927\u3002\u5982\u5408\u5e76\u5fc3\u529b\u8870\u7aed\uff0c\u5219\u6709\u80ba\u7eb9\u7406\u589e\u591a\u3001\u80ba\u6de4\u8840\u73b0\u8c61](3)\u8d85\u58f0\u5fc3\u7535\u56fe:[\u80a5\u539a\u6027\u5fc3\u808c\u75c5\u8868\u73b0\u4e3a\u5de6\u5fc3\u5ba4\u58c1\u7279\u522b\u662f\u5ba4\u95f4\u9694\u80a5\u539a\uff0c\u5e76\u7d2f\u53ca\u4e8c\u5c16\u74e3\u524d\u74e3\uff0c\u4e8c\u5c16\u74e3\u7684\u524d\u74e3\u6709\u6536\u7f29\u671f\u5148\u524d\u8fd0\u52a8\uff0c\u4e3b\u52a8\u8109\u74e3\u63d0\u524d\u5173\u95ed\u3002\u5f53\u591a\u666e\u52d2\u5728\u5de6\u5fc3\u5ba4\u6d41\u51fa\u9053\u6536\u7f29\u671f\u6d4b\u5f97\u538b\u529b\u9636\u5dee\uff0c\u8868\u793a\u8be5\u90e8\u4f4d\u5df2\u6709\u6897\u963b]
p27
ssV\u6025\u6027\u547c\u5438\u8870\u7aed
p28
(dp29
g3
V(1)\u591a\u810f\u5668\u529f\u80fd\u7d0a\u4e71[1]\u8bf1\u56e0:{1}\u7f3a\u6c27$\u4e8c\u6c27\u5316\u78b3\u6f74\u7559(2)\u547c\u5438\u9053\u75c7\u72b6:[\u65e9\u671f\u547c\u5438\u591a\u6d45\u901f\uff0c\u4f46\u8282\u5f8b\u9f50\uff0c\u4e4b\u540e\u51fa\u73b0\u547c\u5438\u65e0\u529b\u53ca\u7f13\u6162\u3002\u51e1\u547c\u5438\u51cf\u81f38\uff5e10\u6b21\uff0f\u5206\u63d0\u793a\u75c5\u60c5\u6781\u5176\u4e25\u91cd\u3002\u4e00\u65e6\u51cf\u81f35\uff5e6\u6b21\uff0f\u5206\uff0c\u5219\u6570\u5206\u949f\u5185\u547c\u5438\u5373\u53ef\u505c\u6b62\u3002][1]\u547c\u5438\u56f0\u96be:[\u5468\u56f4\u6027\u6025\u6027\u547c\u5438\u8870\u7aed\u8868\u73b0\u4e3a\u547c\u5438\u56f0\u96be][2]\u547c\u6c14\u6027\u547b\u541f:[\u547c\u6c14\u6027\u547b\u541f\u662f\u5a74\u513f\u53ca\u513f\u7ae5\u547c\u5438\u8870\u7aed\u7684\u53e6\u4e00\u4e34\u5e8a\u5f81\u8c61\u3002\u5176\u673a\u5236\u662f\u5728\u547c\u6c14\u521d\u4f1a\u538c\u8fc7\u65e9\u5173\u95ed\uff0c\u4f34\u547c\u5438\u808c\u7684\u79ef\u6781\u6536\u7f29\u4ee5\u589e\u52a0\u6c14\u9053\u538b\u4ece\u800c\u7ef4\u6301\u6216\u589e\u52a0\u529f\u80fd\u6b8b\u6c14\u91cf\u3002][3]\u4e2d\u67a2\u6027\u547c\u5438\u8870\u7aed:[\u5468\u56f4\u6027\u547c\u5438\u8870\u7aed\u4e25\u91cd\u65f6\u5f80\u5f80\u4f34\u6709\u4e2d\u67a2\u6027\u547c\u5438\u8870\u7aed\u3002\u4e2d\u67a2\u6027\u6025\u6027\u547c\u5438\u8870\u7aed\u8868\u73b0\u4e3a\u547c\u5438\u8282\u5f8b\u4e0d\u9f50\u3002]{1}\u6f6e\u5f0f\u547c\u5438:[\u65e9\u671f\u591a\u4e3a\u6f6e\u5f0f\u547c\u5438]{2}\u62bd\u6ce3\u6837\u547c\u5438:[\u665a\u671f\u51fa\u73b0\u62bd\u6ce3\u6837\u547c\u5438\u3001\u53f9\u606f\u6837\u547c\u5438\u3001\u547c\u5438\u6682\u505c\u53ca\u4e0b\u988c\u547c\u5438\u7b49]{3}\u53f9\u606f\u6837\u547c\u5438:[\u665a\u671f\u51fa\u73b0\u62bd\u6ce3\u6837\u547c\u5438\u3001\u53f9\u606f\u6837\u547c\u5438\u3001\u547c\u5438\u6682\u505c\u53ca\u4e0b\u988c\u547c\u5438\u7b49]{4}\u547c\u5438\u6682\u505c{5}\u4e0b\u988c\u547c\u5438(3)\u53d1\u7ec0:[\u4e00\u822c\u8840\u6c27\u9971\u548c\u5ea6<80%\u51fa\u73b0\u53d1\u7ec0\u3002\u4f46\u662f\u5426\u51fa\u73b0\u4e0e\u8840\u4e2d\u975e\u9971\u548c\u8840\u7ea2\u86cb\u767d\u767e\u5206\u6bd4\u6709\u5173\u3002\u4e25\u91cd\u8d2b\u8840\u867d\u7f3a\u6c27\u4e25\u91cd\uff0c\u4f46\u53d1\u7ec0\u53ef\u4e0d\u660e\u663e\u3002\u4f11\u514b\u65f6\u7531\u4e8e\u672b\u68a2\u5faa\u73af\u4e0d\u826f\uff0c\u6c27\u9971\u548c\u5ea6\u5373\u4f7f\u9ad8\u4e8e80%\u4e5f\u53ef\u6709\u53d1\u7ec0](4)\u70e6\u8e81$\u610f\u8bc6\u6a21\u7cca$\u660f\u8ff7$\u60ca\u53a5(5)\u5fc3\u7387\u589e\u5feb$\u5fc3\u97f3\u4f4e\u949d$\u8840\u538b\u5148\u589e\u9ad8\u540e\u964d\u4f4e$\u5fc3\u5f8b\u5931\u5e38(6)\u6d88\u5316\u9053\u51fa\u8840$\u809d\u529f\u80fd\u53d7\u635f(7)\u5c11\u5c3f$\u65e0\u5c3f$\u86cb\u767d\u5c3f$\u767d\u7ec6\u80de\u5c3f$\u7ba1\u578b\u5c3f$\u80be\u8870\u7aed\u3002(8)\u5934\u75db$\u70e6\u8e81$\u6447\u5934$\u591a\u6c57$\u808c\u9707\u98a4\u3002(9)\u6de1\u6f20$\u55dc\u7761$\u8c35\u8bed$\u62bd\u6410$\u89c6\u76d8\u6c34\u80bf$\u8111\u759d\u3002(10)\u56db\u80a2\u6e7f$\u76ae\u80a4\u6f6e\u7ea2$\u5507\u7ea2$\u773c\u7ed3\u819c\u5145\u8840\u6c34\u80bf\u3002(11)\u6c34\u4e0e\u7535\u89e3\u8d28\u7d0a\u4e71:[\u8840\u94be\u591a\u504f\u9ad8\uff0c\u56e0\u7f3a\u6c27\u5f71\u54cd\u6cf5\u529f\u80fd\uff0c\u94be\u79bb\u5b50\u5411\u7ec6\u80de\u5916\u8f6c\u79fb\u3002\u9ad8\u78b3\u9178\u8840\u75c7\u4f7f\u7ec6\u80de\u5185\u5916\u79bb\u5b50\u4ea4\u6362\u589e\u591a\u4e5f\u53ef\u81f4\u9ad8\u8840\u94be\u3002\u9178\u4e2d\u6bd2\u65f6\u80be\u6392\u9178\u589e\u591a\uff1b\u540c\u65f6\u4e8c\u6c27\u5316\u78b3\u6f74\u7559\u65f6\uff0c\u78b3\u9178\u6c22\u6839\u79bb\u5b50\u4ee3\u507f\u4fdd\u7559\uff0c\u56e0\u800c\u8840\u6c2f\u76f8\u5e94\u51cf\u5c11][1]\u8840\u94be\u504f\u9ad8:[\u8840\u94be\u591a\u504f\u9ad8\uff0c\u56e0\u7f3a\u6c27\u5f71\u54cd\u6cf5\u529f\u80fd\uff0c\u94be\u79bb\u5b50\u5411\u7ec6\u80de\u5916\u8f6c\u79fb\u3002][2]\u8840\u6c2f\u964d\u4f4e:[\u9178\u4e2d\u6bd2\u65f6\u80be\u6392\u9178\u589e\u591a\uff1b\u540c\u65f6\u4e8c\u6c27\u5316\u78b3\u6f74\u7559\u65f6\uff0c\u78b3\u9178\u6c22\u6839\u79bb\u5b50\u4ee3\u507f\u4fdd\u7559\uff0c\u56e0\u800c\u8840\u6c2f\u76f8\u5e94\u51cf\u5c11]
p30
sg5
g28
sg6
V\u65e0
p31
ssV\u98ce\u6e7f\u70ed
p32
(dp33
g3
V(1)\u9762\u8272\u82cd\u767d$\u591a\u6c57$\u9f3b\u51fa\u8840$\u8179\u75db(2)\u53d1\u70ed:[\u70ed\u578b\u4e0d\u89c4\u5219](3)\u5168\u8eab\u4e0d\u9002$\u7cbe\u795e\u4e0d\u632f$\u4e4f\u529b(4)\u5fc3\u810f\u708e:[\u536040\uff05\uff5e50\uff05\uff0c\u4ee5\u5fc3\u808c\u708e\u548c\u5fc3\u5185\u819c\u708e\u591a\u89c1\uff0c\u4ea6\u53ef\u53d1\u751f\u5168\u5fc3\u708e\uff0c\u8f7b\u8005\u75c7\u72b6\u4e0d\u660e\u663e\uff0c\u91cd\u8005\u53ef\u5bfc\u81f4\u5fc3\u529b\u8870\u7aed\uff0c\u751a\u81f3\u6b7b\u4ea1][1]\u5fc3\u808c\u708e:[\u5fc3\u7387\u589e\u5feb\uff0c\u5fc3\u7387\u4e0e\u4f53\u6e29\u4e0d\u6210\u6bd4\u4f8b\uff0c\u5165\u7761\u540e\u5fc3\u7387\u4ecd\u589e\u5feb\uff1b\u5fc3\u754c\u6269\u5927\uff0c\u5fc3\u97f3\u51cf\u5f31\uff0c\u53ef\u95fb\u53ca\u5954\u9a6c\u5f8b\uff0c\u5fc3\u5c16\u533a\u53ef\u95fb\u5439\u98ce\u6837\u6536\u7f29\u671f\u6742\u97f3\uff1b\u5fc3\u7535\u56fe(ECG)\u793aP-R\u95f4\u671f\u5ef6\u957f\u3001S-T\u6bb5\u4e0b\u79fb\u53caT\u6ce2\u5e73\u5766\u6216\u5012\u7f6e\uff0c\u6216\u6709\u5fc3\u5f8b\u5931\u5e38]{1}\u5fc3\u7387\u589e\u5feb:[\u5fc3\u7387\u589e\u5feb\uff0c\u5fc3\u7387\u4e0e\u4f53\u6e29\u4e0d\u6210\u6bd4\u4f8b\uff0c\u5165\u7761\u540e\u5fc3\u7387\u4ecd\u589e\u5feb]{2}\u5fc3\u754c\u6269\u5927$\u5fc3\u97f3\u51cf\u5f31$\u53ef\u95fb\u53ca\u5954\u9a6c\u5f8b:[\u5fc3\u754c\u6269\u5927\uff0c\u5fc3\u97f3\u51cf\u5f31\uff0c\u53ef\u95fb\u53ca\u5954\u9a6c\u5f8b]{3}\u5fc3\u5c16\u6742\u97f3:[\u5fc3\u5c16\u533a\u53ef\u95fb\u5439\u98ce\u6837\u6536\u7f29\u671f\u6742\u97f3]{4}\u5fc3\u5f8b\u5931\u5e38$S-T\u6bb5\u4e0b\u79fb$T\u6ce2\u5e73\u5766\u6216\u5012\u7f6e$P-R\u95f4\u671f\u5ef6\u957f:[\u7535\u56fe(ECG)\u793aP-R\u95f4\u671f\u5ef6\u957f\u3001S-T\u6bb5\u4e0b\u79fb\u53caT\u6ce2\u5e73\u5766\u6216\u5012\u7f6e\uff0c\u6216\u6709\u5fc3\u5f8b\u5931\u5e38][2]\u5fc3\u5185\u819c\u708e:[\u4ee5\u4e8c\u5c16\u74e3\u53d7\u7d2f\u6700\u5e38\u89c1\uff0c\u4e3b\u52a8\u8109\u74e3\u6b21\u4e4b\u3002\u5fc3\u5c16\u90e8\u53ef\u95fb\u53ca\u4e8c\u5c16\u74e3\u5173\u95ed\u4e0d\u5168\u6240\u5f15\u8d77\u7684\u5439\u98ce\u6837\u6536\u7f29\u671f\u6742\u97f3\uff0c\u5411\u814b\u4e0b\u4f20\u5bfc\uff0c\u4ee5\u53ca\u4e8c\u5c16\u74e3\u76f8\u5bf9\u72ed\u7a84\u6240\u5f15\u8d77\u7684\u8212\u5f20\u4e2d\u671f\u6742\u97f3\uff1b]{1}\u5fc3\u5c16\u6742\u97f3:[\u5fc3\u5c16\u90e8\u53ef\u95fb\u53ca\u4e8c\u5c16\u74e3\u5173\u95ed\u4e0d\u5168\u6240\u5f15\u8d77\u7684\u5439\u98ce\u6837\u6536\u7f29\u671f\u6742\u97f3\uff0c\u5411\u814b\u4e0b\u4f20\u5bfc\uff0c\u4ee5\u53ca\u4e8c\u5c16\u74e3\u76f8\u5bf9\u72ed\u7a84\u6240\u5f15\u8d77\u7684\u8212\u5f20\u4e2d\u671f\u6742\u97f3]{2}\u53f9\u6c14\u6837\u8212\u5f20\u671f\u6742\u97f3:[\u4e3b\u52a8\u8109\u74e3\u5173\u95ed\u4e0d\u5168\u65f6\u80f8\u9aa8\u5de6\u7f18\u7b2c3\u808b\u95f4\u53ef\u95fb\u53ca\u53f9\u6c14\u6837\u8212\u5f20\u671f\u6742\u97f3][3]\u5fc3\u5305\u708e:[\u60a3\u513f\u6709\u5fc3\u524d\u533a\u75bc\u75db\uff0c\u79ef\u6db2\u91cf\u5c11\u65f6\u5fc3\u5e95\u90e8\u542c\u5230\u5fc3\u5305\u6469\u64e6\u97f3\uff1b\u79ef\u6db2\u91cf\u591a\u65f6\uff0c\u5fc3\u97f3\u9065\u8fdc\uff0c\u6709\u9888\u9759\u8109\u6012\u5f20\u3001\u809d\u813e\u80bf\u5927\u7b49\u5fc3\u5305\u586b\u585e\u5f81\u8868\u73b0\uff1bECG\u793a\u4f4e\u7535\u538b\uff0c\u5e7f\u6cdbS-T\u6bb5\u62ac\u9ad8\uff0c\u4ee5\u540eS-T\u6bb5\u4e0b\u964d\u548cT\u6ce2\u5e73\u5766\u6216\u5012\u7f6e\u3002\u4e34\u5e8a\u4e0a\u6709\u5fc3\u5305\u708e\u8868\u73b0\u8005\uff0c\u63d0\u793a\u5fc3\u810f\u708e\u4e25\u91cd\uff0c\u6613\u53d1\u751f\u5fc3\u529b\u8870\u7aed]{1}\u5fc3\u524d\u533a\u75bc\u75db:[\u60a3\u513f\u6709\u5fc3\u524d\u533a\u75bc\u75db]{2}\u5fc3\u5305\u6469\u64e6\u97f3:[\u79ef\u6db2\u91cf\u5c11\u65f6\u5fc3\u5e95\u90e8\u542c\u5230\u5fc3\u5305\u6469\u64e6\u97f3]{3}\u9888\u9759\u8109\u6012\u5f20:[\u79ef\u6db2\u91cf\u591a\u65f6\uff0c\u5fc3\u97f3\u9065\u8fdc\uff0c\u6709\u9888\u9759\u8109\u6012\u5f20\u3001\u809d\u813e\u80bf\u5927\u7b49\u5fc3\u5305\u586b\u585e\u5f81\u8868\u73b0\uff1b]{4}\u809d\u813e\u80bf\u5927:[\u79ef\u6db2\u91cf\u591a\u65f6\uff0c\u5fc3\u97f3\u9065\u8fdc\uff0c\u6709\u9888\u9759\u8109\u6012\u5f20\u3001\u809d\u813e\u80bf\u5927\u7b49\u5fc3\u5305\u586b\u585e\u5f81\u8868\u73b0\uff1b]{5}\u5fc3\u529b\u8870\u7aed:[\u4e34\u5e8a\u4e0a\u6709\u5fc3\u5305\u708e\u8868\u73b0\u8005\uff0c\u63d0\u793a\u5fc3\u810f\u708e\u4e25\u91cd\uff0c\u6613\u53d1\u751f\u5fc3\u529b\u8870\u7aed]{6}\u5fc3\u7535\u56fe<1>S-T\u6bb5\u4e0b\u964d:[\u5e7f\u6cdbS-T\u6bb5\u62ac\u9ad8\uff0c\u4ee5\u540eS-T\u6bb5\u4e0b\u964d\u548cT\u6ce2\u5e73\u5766\u6216\u5012\u7f6e]<2>T\u6ce2\u5e73\u5766\u6216\u5012\u7f6e:[\u5e7f\u6cdbS-T\u6bb5\u62ac\u9ad8\uff0c\u4ee5\u540eS-T\u6bb5\u4e0b\u964d\u548cT\u6ce2\u5e73\u5766\u6216\u5012\u7f6e](5)\u5173\u8282\u708e:[\u89c1\u4e8e50\uff05\uff5e60\uff05\u60a3\u513f\uff0c\u4e3a\u6e38\u8d70\u6027\u591a\u5173\u8282\u708e\uff0c\u4ee5\u819d\u3001\u8e1d\u3001\u8098\u3001\u8155\u7b49\u5927\u5173\u8282\u4e3a\u4e3b\uff0c\u5c40\u90e8\u7ea2\u80bf\u70ed\u75db\uff0c\u6d3b\u52a8\u53d7\u9650\u3002\u7ecf\u6cbb\u7597\u540e\u5173\u8282\u708e\u53ef\u5b8c\u5168\u6cbb\u6108\uff0c\u4e0d\u7559\u7578\u5f62][1]\u7ea2\u80bf\u70ed\u75db:[\u5173\u8282\u708e\u4e8e50\uff05\uff5e60\uff05\u60a3\u513f,\u5c40\u90e8\u7ea2\u80bf\u70ed\u75db\uff0c\u6d3b\u52a8\u53d7\u9650](6)\u821e\u8e48\u75c5:[\u5360\u98ce\u6e7f\u70ed\u60a3\u513f\u76843\uff05\uff5e10\uff05\uff0c\u5e38\u5728\u6eb6\u8840\u6027\u94fe\u7403\u83cc\u54bd\u5ce1\u708e\u540e1\uff5e6\u4e2a\u6708\u51fa\u73b0\u3002\u5e38\u53d1\u751f\u4e8e4\uff5e7\u5c81\u513f\u7ae5\uff0c\u591a\u89c1\u4e8e\u5973\u5b69\uff0c\u7d2f\u53ca\u9525\u4f53\u5916\u7cfb\uff0c\u5176\u7279\u5f81\u4e3a\u9762\u90e8\u548c\u56db\u80a2\u808c\u8089\u7684\u4e0d\u81ea\u4e3b\u3001\u65e0\u76ee\u7684\u7684\u5feb\u901f\u8fd0\u52a8\uff0c\u5982\u4f38\u820c\u3001\u6b6a\u5634\u3001\u76b1\u7709\u3001\u6324\u773c\u3001\u8038\u80a9\u3001\u7f29\u9888\u3001\u8bed\u8a00\u969c\u788d\u3001\u4e66\u5199\u56f0\u96be\u3001\u5fae\u7ec6\u52a8\u4f5c\u4e0d\u534f\u8c03\uff0c\u5728\u5174\u594b\u6216\u6ce8\u610f\u529b\u96c6\u4e2d\u65f6\u52a0\u5267\uff0c\u5165\u7761\u540e\u5373\u6d88\u5931\u3002\u75c5\u7a0b3\u4e2a\u6708\u5de6\u53f3][1]\u9762\u90e8\u808c\u8089\u4e0d\u81ea\u4e3b:[\u5e38\u53d1\u751f\u4e8e4\uff5e7\u5c81\u513f\u7ae5\uff0c\u591a\u89c1\u4e8e\u5973\u5b69\uff0c\u7d2f\u53ca\u9525\u4f53\u5916\u7cfb\uff0c\u5176\u7279\u5f81\u4e3a\u9762\u90e8\u548c\u56db\u80a2\u808c\u8089\u7684\u4e0d\u81ea\u4e3b\u3001\u65e0\u76ee\u7684\u7684\u5feb\u901f\u8fd0\u52a8]{1}\u4f38\u820c$\u6b6a\u5634$\u76b1\u7709$\u6324\u773c[2]\u56db\u80a2\u808c\u8089\u4e0d\u81ea\u4e3b:[\u5e38\u53d1\u751f\u4e8e4\uff5e7\u5c81\u513f\u7ae5\uff0c\u591a\u89c1\u4e8e\u5973\u5b69\uff0c\u7d2f\u53ca\u9525\u4f53\u5916\u7cfb\uff0c\u5176\u7279\u5f81\u4e3a\u9762\u90e8\u548c\u56db\u80a2\u808c\u8089\u7684\u4e0d\u81ea\u4e3b\u3001\u65e0\u76ee\u7684\u7684\u5feb\u901f\u8fd0\u52a8]{1}\u8038\u80a9$\u7f29\u9888$\u8bed\u8a00\u969c\u788d$\u4e66\u5199\u56f0\u96be$\u5fae\u7ec6\u52a8\u4f5c\u4e0d\u534f\u8c03(7)\u76ae\u80a4\u75c7\u72b6:[1]\u76ae\u4e0b\u5c0f\u7ed3:[\u89c1\u4e8e5\uff05\uff5e10\uff05\u7684\u98ce\u6e7f\u70ed\u60a3\u513f\uff0c\u5e38\u4f34\u53d1\u4e25\u91cd\u5fc3\u810f\u708e\uff0c\u8d77\u75c5\u540e\u6570\u5468\u624d\u51fa\u73b0\uff0c\u7ecf2\uff5e4\u5468\u6d88\u5931\uff1b\u5c0f\u7ed3\u5448\u5706\u5f62\uff0c\u8d28\u786c\u3001\u65e0\u538b\u75db\u3001\u53ef\u6d3b\u52a8\u3001\u7c73\u7c92\u81f3\u82b1\u751f\u7c73\u5927\u5c0f\uff0c\u5206\u5e03\u4e8e\u8098\u3001\u8155\u3001\u819d\u3001\u8e1d\u7b49\u5173\u8282\u4f38\u4fa7\uff0c\u4ee5\u53ca\u6795\u90e8\u3001\u524d\u989d\u5934\u76ae\u3001\u810a\u67f1\u68d8\u7a81\u5904]{1}\u8d28\u786c$\u65e0\u538b\u75db[2]\u73af\u5f62\u7ea2\u6591:[\u89c1\u4e8e2\uff05\uff5e5\uff05\u60a3\u513f\uff0c\u4f4d\u4e8e\u8eaf\u5e72\u53ca\u56db\u80a2\u8fd1\u7aef\u5c48\u4fa7\uff0c\u5448\u73af\u5f62\u3001\u534a\u73af\u5f62\u7ea2\u6591\uff0c\u53d1\u70ed\u65f6\u660e\u663e\uff0c\u73af\u5185\u76ae\u80a4\u6b63\u5e38\uff0c\u8fb9\u7f18\u8f7b\u5fae\u9686\u8d77\uff0c\u76f4\u5f84\u7ea62.5cm\u5de6\u53f3\u3002\u5448\u4e00\u8fc7\u6027\uff0c\u6216\u65f6\u9690\u65f6\u73b0\u5448\u8fc1\u5ef6\u6027\uff0c\u53ef\u6301\u7eed\u6570\u5468]
p34
sg5
g32
sg6
V(1)\u8840\u5e38\u89c4:[\u98ce\u6e7f\u70ed\u6d3b\u52a8\u671f\u767d\u7ec6\u80de\u8ba1\u6570\u589e\u9ad8\u4f34\u6838\u5de6\u79fb\uff0c\u5e38\u6709\u8f7b\u5ea6\u8d2b\u8840\uff0c\u8840\u5c0f\u677f\u8ba1\u6570\u6b63\u5e38](2)\u6025\u6027\u708e\u75c7\u76f8\u5173\u68c0\u67e5\u9879\u76ee:[\u8840\u6c89\u589e\u5feb\u3001CRP\u9633\u6027\u3001\u03b12\u7403\u86cb\u767d\u589e\u9ad8\u3001\u9ecf\u86cb\u767d\u589e\u9ad8](3)\u6297\u94fe\u7403\u83cc\u6297\u4f53\u6d4b\u5b9a:[\u6297\u94fe\u7403\u83cc\u6eb6\u8840\u7d20O(antistreptolysin\u201cO\u201d\uff0cASO)\u5347\u9ad8\uff0c\u6216\u94fe\u7403\u83cc\u6fc0\u9176\u6216\u6297\u8131\u6c27\u6838\u7cd6\u6838\u9178\u9176B\u5347\u9ad8\u3002\u5355\u9879\u6297\u4f53\u68c0\u6d4b\u9633\u6027\u7387\u7ea6\u4e3a80\uff05\uff0c\u4e8c\u8005\u5408\u7528\u9633\u6027\u7387\u53ef\u9ad8\u8fbe90\uff05\u4ee5\u4e0a](4)\u514d\u75ab\u7403\u86cb\u767d\u53ca\u8865\u4f53\u6d4b\u5b9a:[IgG\u3001IgA\u5347\u9ad8\uff0cC3\u53ef\u5347\u9ad8](5)ECG:[\u53ef\u89c1P-R\u95f4\u671f\u5ef6\u957f\u3001\u2161\u5ea6\u2160\u578b\u623f\u5ba4\u4f20\u5bfc\u963b\u6ede\u3001ST-T\u53d8\u5316\u3001\u975e\u9635\u53d1\u6027\u7ed3\u6027\u5fc3\u52a8\u8fc7\u901f\u3001\u623f\u5ba4\u80a5\u5927\u7b49](6)X\u7ebf:[\u80f8\u7247\u80ba\u7eb9\u7406\u53ef\u589e\u52a0\uff0c\u5fc3\u5f71\u6b63\u5e38\u6216\u589e\u5927](7)\u8d85\u58f0\u5fc3\u52a8\u56fe\u68c0\u67e5:[\u786e\u8bca\u6709\u65e0\u5fc3\u5305\u79ef\u6db2\u548c\u5fc3\u5185\u819c\u708e\u5fc3\u810f\u74e3\u819c\u635f\u5bb3\uff0c\u5e76\u53ef\u5224\u65ad\u623f\u5ba4\u80a5\u5927\u3001\u5de6\u5ba4\u6536\u7f29\u548c\u8212\u5f20\u529f\u80fd](8)\u5fc3\u808c\u6838\u7d20\u68c0\u67e5:[\u53ef\u68c0\u6d4b\u51fa\u8f7b\u75c7\u53ca\u4e9a\u4e34\u5e8a\u578b\u5fc3\u808c\u708e]
p35
ssV\u65b0\u751f\u513f\u6301\u7eed\u80ba\u52a8\u8109\u9ad8\u538b
p36
(dp37
g3
V(1)\u8db3\u6708\u513f\u6216\u8fc7\u671f\u4ea7\u513f(2)\u7f8a\u6c34\u88ab\u80ce\u7caa\u6c61\u67d3$\u56f4\u4ea7\u671f\u7a92\u606f$\u80ce\u7caa\u5438\u5165:[\u75c5\u53f2](3)\u547c\u5438\u7a98\u8feb\u5916(4)\u53d1\u7ec0:[\u5728\u751f\u540e24\u5c0f\u65f6\u5185\u53ef](5)\u6c14\u6025$\u5438\u6c14\u6027\u51f9\u9677$\u547b\u541f$\u52a8\u8109\u8840\u6c14\u663e\u793a\u4e25\u91cd\u4f4e\u6c27$\u4e8c\u6c27\u5316\u78b3\u5206\u538b\u76f8\u5bf9\u6b63\u5e38:[\u6709\u80ba\u90e8\u539f\u53d1\u6027\u75be\u75c5]
p38
sg5
g36
sg6
V(1)\u9ad8\u6c27\u8bd5\u9a8c:[\u4ee5\u5934\u5323\u6216\u9762\u7f69\u5438\u5165100%\u6c275\uff5e10\u5206\u949f\uff0c\u53ef\u4f7f\u80ba\u8840\u7ba1\u963b\u529b\u964d\u4f4e\uff1b\u5982\u7f3a\u6c27\u65e0\u6539\u5584\u63d0\u793a\u5b58\u5728PPHN\u6216\u53d1\u7ec0\u578b\u5fc3\u810f\u75c5\u6240\u81f4\u7684\u53f3\u5411\u5de6\u8840\u6db2\u5206\u6d41\u5b58\u5728\u3002\u5982\u8840\u6c27\u5206\u538b\u5927\u4e8e150mmHg\uff0c\u5219\u53ef\u6392\u9664\u5927\u591a\u6570\u53d1\u7ec0\u578b\u5148\u5929\u6027\u5fc3\u810f\u75c5](2)\u9ad8\u6c27\u9ad8\u901a\u6c14\u8bd5\u9a8c:[PPHN\u6216\u53d1\u7ec0\u578b\u5148\u5929\u578b\u5fc3\u810f\u75c5\u7531\u4e8e\u5747\u5b58\u5728\u53f3\u5411\u5de6\u5206\u6d41\uff0c\u5728\u4e00\u822c\u5438\u6c27\u540e\u8840\u6c27\u5206\u538b\u5e38\u65e0\u660e\u663e\u6539\u5584\uff1b\u9ad8\u6c27\u9ad8\u901a\u6c14\u8bd5\u9a8c\u5177\u4f53\u65b9\u6cd5\u662f:\u5bf9\u9ad8\u6c27\u8bd5\u9a8c\u540e\u4ecd\u53d1\u7ec0\u8005\u5728\u6c14\u7ba1\u63d2\u7ba1\u6216\u9762\u7f69\u4e0b\u884c\u76ae\u56ca\u901a\u6c14\uff0c\u6301\u7eed5\uff5e10\u5206\u949f\uff0c\u4f7f\u8840\u4e8c\u6c27\u5316\u78b3\u5206\u538b\u4e0b\u964d\uff0c\u8840\u6c27\u5206\u538b\u4e0a\u5347\uff0c\u800c\u53d1\u7ec0\u578b\u5fc3\u810f\u75c5\u4eba\u8840\u6c27\u5206\u538b\u589e\u52a0\u4e0d\u660e\u663e](3)\u52a8\u8109\u5bfc\u7ba1\u5f00\u53e3\u524d\u540e\u8840\u6c27\u5206\u538b\u5dee:[\u5f53\u5b58\u5728\u52a8\u8109\u5bfc\u7ba1\u6c34\u5e73\u7684\u53f3\u5411\u5de6\u5206\u6d41\u65f6\uff0c\u52a8\u8109\u5bfc\u7ba1\u5f00\u53e3\u524d\u7684\u8840\u6c27\u5206\u538b\u9ad8\u4e8e\u5f00\u53e3\u540e\u7684\u8840\u6c27\u5206\u538b(\u56fe6-6-1)\u3002\u53ef\u540c\u65f6\u68c0\u67fb\u52a8\u8109\u5bfc\u7ba1\u5f00\u53e3\u524d(\u5e38\u53d6\u53f3\u6861\u52a8\u8109)\u53ca\u52a8\u8109\u5bfc\u7ba1\u5f00\u53e3\u540e\u7684\u52a8\u8109(\u5e38\u4e3a\u4e0b\u80a2\u52a8\u8109)\u8840\u6c27\u5206\u538b\uff0c\u5f53\u4e24\u8005\u5dee\u503c\u5927\u4e8e15\uff5e20mmHg\u6216\u4e24\u5904\u7684\u7ecf\u76ae\u8840\u6c27\u9971\u548c\u5ea6\u5dee\uff1e5%\uff0c\u53c8\u540c\u65f6\u80fd\u6392\u9664\u5148\u5929\u6027\u5fc3\u810f\u75c5\u65f6\uff0c\u53ef\u8003\u8651\u5b58\u5728PPHN\u53ef\u80fd](4)\u8d85\u58f0\u591a\u666e\u52d2\u68c0\u67e5:[\u53ef\u6392\u9664\u5148\u5929\u6027\u5fc3\u810f\u75c5\u7684\u5b58\u5728\uff0c\u8bc1\u5b9e\u5fc3\u623f\u6216\u52a8\u8109\u5bfc\u7ba1\u6c34\u5e73\u53f3\u5411\u5de6\u5206\u6d41\uff1b\u5229\u7528\u80ba\u52a8\u8109\u9ad8\u538b\u75c5\u4eba\u7684\u4e09\u5c16\u74e3\u53cd\u6d41\uff0c\u8ba1\u7b97\u80ba\u52a8\u8109\u538b](5)\u80f8\u7247:[\u6b63\u5e38\u6216\u4e0e\u80ba\u90e8\u539f\u53d1\u75be\u75c5\u6709\u5173](6)\u5fc3\u7535\u56fe:[\u53f3\u5ba4\u5360\u4f18\u52bf\uff0c\u5fc3\u808c\u7f3a\u8840\u8868\u73b0](7)\u8111\u6027\u5229\u94a0\u80bd:[\u5728\u5fc3\u5ba4\u5145\u76c8\u538b\u529b\u589e\u9ad8\u65f6\u5206\u6ccc\u589e\u52a0\uff0c\u6025\u6027\u671f\u589e\u9ad8]
p39
ssV\u4ea7\u6bd2\u6027\u7ec6\u83cc\u5f15\u8d77\u7684\u80a0\u708e
p40
(dp41
g3
V(1)\u8d77\u75c5\u8f83\u6025(2)\u8f7b\u75c7:[1]\u8179\u6cfb:[\u4ec5\u5927\u4fbf\u6b21\u6570\u7a0d\u589e\uff0c\u6027\u72b6\u8f7b\u5fae\u6539\u53d8](3)\u91cd\u75c7:[1]\u8179\u6cfb:[\u8179\u6cfb\u9891\u7e41\uff0c\u91cf\u591a\uff0c\u5448\u6c34\u6837\u6216\u86cb\u82b1\u6837\u6df7\u6709\u9ecf\u6db2][2]\u5455\u5410$\u8131\u6c34$\u7535\u89e3\u8d28\u548c\u9178\u78b1\u5e73\u8861\u7d0a\u4e71(4)\u81ea\u9650\u6027\u75be\u75c5:[\u81ea\u7136\u75c5\u7a0b\u4e00\u822c3\uff5e7\u5929\uff0c\u4ea6\u53ef\u8f83\u957f]
p42
sg5
g40
sg6
V\u955c\u68c0\u65e0\u767d\u7ec6\u80de
p43
ssV\u6bdb\u7ec6\u652f\u6c14\u7ba1\u708e
p44
(dp45
g3
V(1)\u6301\u7eed\u6027\u5e72\u54b3$\u53d1\u4f5c\u6027\u5598\u618b:[\u5e38\u5728\u4e0a\u611f\u540e2\uff5e3\u65e5\u51fa\u73b0][\u54b3\u55fd\u4e0e\u5598\u618b\u540c\u65f6\u53d1\u751f\u4e3a\u672c\u75c5\u7279\u70b9\u3002\u75c7\u72b6\u8f7b\u91cd\u4e0d\u7b49\uff0c\u91cd\u8005\u547c\u5438\u56f0\u96be\u53d1\u5c55\u751a\u5feb\uff0c\u54b3\u55fd\u7565\u4f3c\u767e\u65e5\u54b3\u4f46\u65e0\u56de\u58f0\u3002\u4f53\u6e29\u9ad9\u4f4e\u4e0d\u4e00\uff0c\u5c11\u89c1\u9ad8\u70ed\uff0c\u4e0e\u75c5\u60c5\u5e76\u65e0\u5e73\u884c\u5173\u7cfb\u3002\u56e0\u80ba\u6c14\u80bf\u53ca\u80f8\u8154\u81a8\u80c0\u538b\u8feb\u8179\u90e8\uff0c\u5e38\u5f71\u54cd\u542e\u5976\u53ca\u8fdb\u98df](2)\u67e5\u4f53\u7ed3\u679c:[\u4f53\u683c\u68c0\u67fb\u7684\u7a81\u51fa\u7279\u70b9\u4e3a\u547c\u5438\u6d45\u5feb\uff0c\u7ea660\uff5e80\u6b21/\u5206\uff0c\u751a\u81f3100\u6b21\u4ee5\u4e0a\uff0c\u8109\u5feb\u800c\u7ec6\uff0c\u5e38\u8fbe160\uff5e200\u6b21/\u5206\uff0c\u6709\u660e\u663e\u9f3b\u6247\u3001\u4e09\u51f9\u5f81]{1}\u547c\u5438\u6d45\u5feb$\u9f3b\u6247$\u4e09\u51f9\u5f81(3)\u9762\u8272\u82cd\u767d$\u53d1\u7ec0:[\u91cd\u75c7\u75c5\u513f]\u3002[4]\u547c\u5438\u7cfb\u7edf\u75c7\u72b6:[\u80f8\u90e8\u53e9\u8bca\u5448\u9f13\u97f3\uff0c\u5e38\u4f34\u547c\u6c14\u76f8\u547c\u5438\u97f3\u5ef6\u957f\uff0c\u547c\u6c14\u6027\u5598\u9e23\u3002\u5f53\u6bdb\u7ec6\u652f\u6c14\u7ba1\u63a5\u8fd1\u5b8c\u5168\u6897\u963b\u65f6\uff0c\u547c\u5438\u97f3\u660e\u663e\u51cf\u4f4e\uff0c\u6216\u542c\u4e0d\u89c1\u3002\u5728\u5598\u618b\u53d1\u4f5c\u65f6\u5f80\u5f80\u542c\u4e0d\u5230\u6e7f\u5570\u97f3\uff0c\u5f53\u5598\u618b\u7a0d\u7f13\u89e3\uff0c\u53ef\u6709\u5f25\u6f2b\u6027\u7ec6\u6e7f\u5570\u97f3\u6216\u4e2d\u6e7f\u5570\u97f3\u3002](4)\u9f13\u97f3$\u547c\u5438\u97f3\u5ef6\u957f$\u547c\u6c14\u6027\u5598\u9e23$\u5f25\u6f2b\u6027\u7ec6\u6e7f\u5570\u97f3$\u4e2d\u6e7f\u5570\u97f3(5)\u8131\u6c34:[\u56e0\u4e0d\u663e\u6027\u5931\u6c34\u589e\u52a0\u548c\u6db2\u4f53\u6444\u5165\u4e0d\u8db3\uff0c\u90e8\u5206\u60a3\u513f\u6709\u8f83\u4e25\u91cd\u7684\u8131\u6c34](6)\u4ee3\u8c22\u6027\u9178\u4e2d\u6bd2:[\u90e8\u5206\u60a3\u513f\u6709\u8f83\u4e25\u91cd\u7684\u8131\u6c34\uff0c\u5c0f\u5a74\u513f\u8fd8\u53ef\u80fd\u6709\u4ee3\u8c22\u6027\u9178\u4e2d\u6bd2](7)\u5e76\u53d1\u75c7:[\u91cd\u8005\u53ef\u53d1\u5c55\u6210\u5fc3\u529b\u8870\u7aed\u53ca\u547c\u5438\u8870\u7aed][1]\u5fc3\u529b\u8870\u7aed[2]\u547c\u5438\u8870\u7aed(5)\u6b7b\u4ea1:[\u672c\u75c5\u6700\u5371\u9669\u7684\u65f6\u671f\u662f\u54b3\u55fd\u53ca\u547c\u5438\u56f0\u96be\u53d1\u751f\u540e\u768448\uff5e72\u5c0f\u65f6\u3002\u75c5\u6b7b\u7387\u4e3a1%\uff0c\u4e3b\u8981\u6b7b\u4e8e\u957f\u65f6\u95f4\u547c\u5438\u6682\u505c\u3001\u4e25\u91cd\u5931\u4ee3\u507f\u6027\u547c\u5438\u6027\u9178\u4e2d\u6bd2\u3001\u4e25\u91cd\u8131\u6c34\u7b49\u3002]{1}\u957f\u65f6\u95f4\u547c\u5438\u6682\u505c$\u4e25\u91cd\u5931\u4ee3\u507f\u6027\u547c\u5438\u6027\u9178\u4e2d\u6bd2$\u4e25\u91cd\u8131\u6c34
p46
sg5
g44
sg6
V(1)X\u7ebf\u68c0\u67e5:[\u53ef\u89c1\u5168\u80ba\u6709\u4e0d\u540c\u7a0b\u5ea6\u7684\u6897\u963b\u6027\u80ba\u6c14\u80bf\uff0c\u80ba\u7eb9\u7406\u589e\u7c97\uff0c\u53ef\u663e\u73b0\u5468\u56f4\u708e\u5f81\u8c61\u30021/3\u75c5\u4eba\u6709\u6563\u5728\u5c0f\u5b9e\u53d8(\u80ba\u4e0d\u5f20\u6216\u80ba\u6ce1\u708e\u75c7)\uff0c\u4f46\u65e0\u5927\u7247\u5b9e\u53d8](2)\u5b9e\u9a8c\u5ba4\u68c0\u67e5:[\u767d\u7ec6\u80de\u603b\u6570\u53ca\u5206\u7c7b\u591a\u5728\u6b63\u5e38\u8303\u56f4\u3002\u75c5\u60c5\u8f83\u91cd\u7684\u5c0f\u5a74\u513f\u8840\u6c14\u5206\u6790\u591a\u6709\u4ee3\u8c22\u6027\u9178\u4e2d\u6bd2\uff0c\u7ea61/10\u75c5\u4f8b\u53ef\u6709\u547c\u5438\u6027\u9178\u4e2d\u6bd2\u3002\u7528\u514d\u75ab\u8367\u5149\u6280\u672f\u3001\u9176\u6807\u6297\u4f53\u67d3\u8272\u6cd5\u6216ELISA\u7b49\u65b9\u6cd5\u53ef\u8fdb\u884c\u75c5\u6bd2\u5feb\u901f\u8bca\u65ad]
p47
ssV\u970d\u5947\u91d1\u6dcb\u5df4\u7624
p48
(dp49
g3
V(1)\u53d1\u70ed$\u4e4f\u529b$\u538c\u98df$\u8f7b\u5ea6\u6d88\u7626$\u7619\u75d2:[\u975e\u7279\u5f02\u6027\u5168\u8eab\u75c7\u72b6](2)\u6dcb\u5df4\u7ed3\u80bf\u5927:[\u65e0\u75db\u6027\u9501\u9aa8\u4e0a\u3001\u9888\u90e8\u6216\u5176\u4ed6\u90e8\u4f4d\u6dcb\u5df4\u7ed3\u80bf\u5927\u6700\u5e38\u89c1\uff0c\u6dcb\u5df4\u7ed3\u8d28\u786c\u6709\u8c61\u76ae\u6837\u611f\u89c9\u3002\u7ea62\uff0f3\u7684\u75c5\u4eba\u5c31\u8bca\u65f6\u6709\u4e0d\u540c\u7a0b\u5ea6\u7684\u7eb5\u9694\u6dcb\u5df4\u7ed3\u6d78\u6da6\uff0c\u5f15\u8d77\u54b3\u55fd\u7b49\u6c14\u7ba1\u652f\u6c14\u7ba1\u53d7\u538b\u75c7\u72b6][1]\u54b3\u55fd(3)\u8840\u5c0f\u677f\u51cf\u5c11$\u51fa\u8840\u503e\u5411$\u8840\u5c0f\u677f\u76f8\u5173\u6297\u4f53\u589e\u9ad8$\u9aa8\u9ad3\u5de8\u6838\u7ec6\u80de\u6210\u719f\u969c\u788d:[\u5408\u5e76\u514d\u75ab\u6027\u8840\u5c0f\u677f\u51cf\u5c11\u75c7](4)\u8d2b\u8840$\u9ec4\u75b8$\u7f51\u7ec7\u7ea2\u7ec6\u80de\u5347\u9ad8$Coombs\u8bd5\u9a8c\u9633\u6027:[\u5408\u5e76\u514d\u75ab\u6027\u6eb6\u8840\u6027\u8d2b\u8840\u65f6]
p50
sg5
g48
sg6
V(1)\u80bf\u5757\u75c5\u7406\u6d3b\u68c0:[\u5f53\u53d1\u73b0\u65e0\u75db\u6027\u6dcb\u5df4\u7ed3\u589e\u5927\u6000\u7591HL\u65f6\u5e94\u53ca\u65f6\u4f5c\u80bf\u5757\u75c5\u7406\u6d3b\u68c0\uff0c\u8bca\u65ad\u5fc5\u987b\u4f9d\u8d56\u75c5\u7406\u786e\u8bca](2)\u80f8\u90e8CT$\u8179\u90e8CT$\u76c6\u8154CT$MRI\u6216\u8d85\u58f0\u5f71\u50cf\u5b66\u68c0\u67e5$\u9aa8\u9ad3\u6d3b\u68c0\u53ca\u6d82\u7247\u68c0\u67e5:[\u786e\u8bca\u540e]
p51
ssV\u5e7c\u5e74\u76ae\u808c\u708e
p52
(dp53
g3
V(1)\u4e4f\u529b$\u4f4e\u70ed$\u4f53\u91cd\u51cf\u8f7b$\u98df\u6b32\u51cf\u9000:[\u9690\u533f\u6216\u4e9a\u6025\u6027\u8d77\u75c5\u65f6](2)\u9ad8\u70ed$\u808c\u8089\u65e0\u529b:[\u6025\u6027\u8d77\u75c5](3)\u8fd1\u7aef\u808c\u7fa4\u5bf9\u79f0\u6027\u808c\u65e0\u529b$\u6df1\u8171\u53cd\u5c04\u5b58\u5728$\u808c\u8089\u75db$\u89e6\u75db$\u56db\u80a2\u5f3a\u76f4\uff0c\u4e0d\u80fd\u6b65\u884c$\u4e0d\u80fd\u722c\u697c\u6216\u7a7f\u8863$\u4e0d\u80fd\u4ece\u5730\u4e0a\u722c\u8d77:[\u51e0\u4e4e\u6240\u6709\u60a3\u8005\u5747\u53ef\u51fa\u73b0\u4e0d\u540c\u7a0b\u5ea6\u7684\u8fd1\u7aef\u808c\u7fa4\u5bf9\u79f0\u6027\u808c\u65e0\u529b\u800c\u6df1\u8171\u53cd\u5c04\u5b58\u5728\uff0c\u4e0b\u80a2\u7684\u80a2\u5e26\u808c\u8089\u6700\u5148\u53d7\u7d2f\uff0c\u968f\u540e\u662f\u80a9\u80db\u808c\u548c\u4e0a\u80a2\u8fd1\u7aef\u808c\u8089\uff0c\u53d7\u7d2f\u7684\u808c\u8089\u5076\u5c14\u6709\u6c34\u80bf\u548c\u786c\u7ed3\u3002\u60a3\u513f\u4e5f\u53ef\u51fa\u73b0\u808c\u8089\u75db\u3001\u89e6\u75db\u3001\u56db\u80a2\u5f3a\u76f4\uff0c\u4e0d\u80fd\u6b65\u884c\uff0c\u4e0d\u80fd\u722c\u697c\u6216\u7a7f\u8863\u3002\u5e38\u89c1\u7684\u75c7\u72b6\u662f\u4e0d\u80fd\u4ece\u5730\u4e0a\u722c\u8d77\uff0c\u4f46\u6ca1\u6709\u5178\u578b\u7684Gower\u8d77\u5e8a\u52a8\u4f5c\u3002\u5168\u8eab\u808c\u8089\u5747\u53ef\u53d7\u7d2f\uff0c\u51fa\u73b0\u76f8\u5e94\u7684\u75c7\u72b6](4)\u76ae\u75b9:[\u5e7c\u5e74\u76ae\u808c\u708e\u51e0\u4e4e\u90fd\u4f34\u6709\u76ae\u75b9\uff0c80\uff05\u7684\u60a3\u513f\u51fa\u73b0\u7ea2\u6591\uff1b](5)\u7ea2\u6591:[\u5e7c\u5e74\u76ae\u808c\u708e\u51e0\u4e4e\u90fd\u4f34\u6709\u76ae\u75b9\uff0c80\uff05\u7684\u60a3\u513f\u51fa\u73b0\u7ea2\u6591\uff1b](6)\u5411\u9633\u75b9:[\u5411\u9633\u75b9\u662f\u6307\u5728\u773c\u5468\u56f4\u7684\u7d2b\u8272\u7684\u7ea2\u6591](7)Gottron\u4e18\u75b9:[Gottron\u4e18\u75b9\u591a\u89c1\u4e8e\u638c\u6307\u5173\u8282\u3001\u6307\u95f4\u5173\u8282\u3001\u8098\u6216\u819d\u5173\u8282\u4f38\u9762.\u6025\u6027\u671f\u8868\u73b0\u4e3a\u80a5\u539a\u6027\u7684\u6de1\u7ea2\u8272\u9cc4\u9c7c\u76ae\u6837\u4e18\u75b9\uff0c\u6162\u6027\u671f\u5448\u840e\u7f29\u6027\u7684\u8272\u7d20\u51cf\u9000\u6027\u4e18\u75b9\u3002][1]\u6de1\u7ea2\u8272\u9cc4\u9c7c\u76ae\u6837\u4e18\u75b9:[\u6025\u6027\u671f\u8868\u73b0\u4e3a\u80a5\u539a\u6027\u7684\u6de1\u7ea2\u8272\u9cc4\u9c7c\u76ae\u6837\u4e18\u75b9][2]\u8272\u7d20\u51cf\u9000\u6027\u4e18:[\u6162\u6027\u671f\u5448\u840e\u7f29\u6027\u7684\u8272\u7d20\u51cf\u9000\u6027\u4e18\u75b9\u3002](8)\u7532\u76b1\u6bdb\u7ec6\u8840\u7ba1\u6539\u53d8:[50\uff05JDM\u8d77\u75c5\u521d\u671f\u5373\u53ef\u89c1\u7532\u76b1\u6bdb\u7ec6\u8840\u7ba1\u6539\u53d8](9)\u76ae\u80a4\u9499\u8d28\u6c89\u7740:[20\uff05\uff5e50\uff05JDM\u4e8e\u75be\u75c5\u540e\u671f\u53d1\u751f\u76ae\u80a4\u548c\u808c\u7ec4\u7ec7\u7684\u9499\u8d28\u6c89\u7740\uff0c\u5e38\u4f34\u968f\u5c40\u90e8\u808c\u8089\u840e\u7f29](10)\u808c\u7ec4\u7ec7\u9499\u8d28\u6c89\u7740:[20\uff05\uff5e50\uff05JDM\u4e8e\u75be\u75c5\u540e\u671f\u53d1\u751f\u76ae\u80a4\u548c\u808c\u7ec4\u7ec7\u7684\u9499\u8d28\u6c89\u7740\uff0c\u5e38\u4f34\u968f\u5c40\u90e8\u808c\u8089\u840e\u7f29](11)\u5c40\u90e8\u808c\u8089\u840e\u7f29:[20\uff05\uff5e50\uff05JDM\u4e8e\u75be\u75c5\u540e\u671f\u53d1\u751f\u76ae\u80a4\u548c\u808c\u7ec4\u7ec7\u7684\u9499\u8d28\u6c89\u7740\uff0c\u5e38\u4f34\u968f\u5c40\u90e8\u808c\u8089\u840e\u7f29](12)\u6d88\u5316\u9053\u75c7\u72b6:[22\uff05\uff5e37\uff05\u6d88\u5316\u9053\u53d7\u7d2f\uff0c\u53ef\u8868\u73b0\u541e\u54bd\u56f0\u96be\u3001\u98df\u7269\u53cd\u6d41\u3001\u8179\u75db\u3001\u4fbf\u79d8\u3001\u8179\u6cfb\u3001\u6d88\u5316\u9053\u6e83\u75a1\u3001\u51fa\u8840\u751a\u81f3\u7a7f\u5b54\uff1b][1]\u541e\u54bd\u56f0\u96be$\u98df\u7269\u53cd\u6d41$\u8179\u75db$\u4fbf\u79d8$\u8179\u6cfb$\u6d88\u5316\u9053\u6e83\u75a1$\u51fa\u8840$\u7a7f\u5b54(13)\u5173\u8282\u75db:[23\uff05\uff5e58\uff05\u60a3\u513f\u53ef\u6709\u5173\u8282\u75db\u3002](14)\u810f\u5668\u75c7\u72b6:[\uff05\uff5e43\uff05\u80ba\u810f\u53d7\u7d2f\uff0c\u53ef\u4e3a\u95f4\u8d28\u6027\u80ba\u708e\u3001\u5438\u5165\u6027\u80ba\u708e\u3001\u80ba\u4e0d\u5f20\u548c\u80ba\u7ea4\u7ef4\u5316\uff1b\u5fc3\u810f\u53d7\u7d2f\u5c11\u89c1\uff1b]\u95f4\u8d28\u6027\u80ba\u708e$\u5438\u5165\u6027\u80ba\u708e$\u80ba\u4e0d\u5f20$\u80ba\u7ea4\u7ef4\u5316(15)\u60ca\u53a5\u53d1\u4f5c:[\u4e2d\u67a2\u795e\u7ecf\u7cfb\u7edf\u53d7\u7d2f\u53ef\u6709\u60ca\u53a5\u53d1\u4f5c]
p54
sg5
g52
sg6
V(1)\u8840\u6e05\u9aa8\u9abc\u808c\u808c\u9176:[\u808c\u9176\u5305\u62ec\u808c\u9178\u6fc0\u9176(CK)\u3001\u4e73\u9178\u8131\u6c22\u9176(LDH)\u3001\u95e8\u51ac\u6c28\u9178\u6c28\u57fa\u8f6c\u79fb\u9176(AST)\u3001\u4e19\u6c28\u9178\u6c28\u57fa\u8f6c\u79fb\u9176(ALT)\u7b49\u6d3b\u6027\u589e\u9ad8\u662fJDM\u7684\u7279\u5f81\u4e4b\u4e00\uff0c\u4ee5CK\u6700\u654f\u611f](2)MRI:[\u5bf9\u65e9\u671f\u808c\u7ec4\u7ec7\u75c5\u53d8\u548c\u9499\u8d28\u6c89\u7740\u654f\u611f\uff0c\u53ef\u53d1\u73b0\u808c\u8089\u840e\u7f29\u3001\u8102\u80aa\u6d78\u6da6\u6216\u63d0\u793a\u75be\u75c5\u6d3b\u52a8\u7684\u5f02\u5e38\u4fe1\u53f7\uff0c\u53ef\u63d0\u9ad8\u808c\u7535\u56fe\u53ca\u808c\u6d3b\u68c0\u7684\u9633\u6027\u7387\uff0c\u53ef\u7528\u4e8e\u8bc4\u4f30\u75be\u75c5\u6d3b\u52a8\u6027\u3001\u7d2f\u53ca\u635f\u5bb3\u548c\u5bf9\u6cbb\u7597\u7684\u53cd\u5e94](3)\u808c\u7535\u56fe:[\u7edd\u5927\u591a\u6570\u60a3\u8005\u51fa\u73b0\u808c\u6e90\u6027\u635f\u5bb3\u7684\u8868\u73b0\uff0c\u5178\u578b\u7684\u808c\u7535\u56fe\u5448\u4e09\u8054\u5f81:\u63d2\u5165\u7535\u4f4d\u5ef6\u957f\u3001\u7ea4\u98a4\u6ce2\u3001\u6b63\u9510\u6ce2\uff1b\u81ea\u53d1\u5f02\u5e38\u7684\u9ad8\u9891\u653e\u7535\uff1b\u4f4e\u5e45\u3001\u77ed\u65f6\u9650\u7684\u591a\u76f8\u6ce2](4)\u9aa8\u9abc\u808c\u6d3b\u68c0:[\u808c\u8089\u75c5\u7406\u6539\u53d8:\u808c\u8089\u5e7f\u6cdb\u6027\u6216\u5c40\u7076\u6027\u708e\u75c7\u53ca\u574f\u6b7b\uff0c\u5176\u6539\u53d8\u4e3a\u975e\u7279\u5f02\u6027\uff0c\u4e0d\u80fd\u4f5c\u4e3aJDM\u786e\u8bca\u4f9d\u636e](5)\u7532\u8936\u6bdb\u7ec6\u8840\u7ba1\u663e\u5fae\u955c\u68c0\u67e5:[\u534a\u6570JDM\u8868\u73b0\u4e3a\u8840\u7ba1\u73af\u7684\u6269\u5f20\u3001\u6bdb\u7ec6\u8840\u7ba1\u897b\u626d\u66f2\u6216\u5448\u6811\u679d\u72b6\u7c07\u96c6\u7b49\u73b0\u8c61\uff0c\u8fd9\u662fJDM\u7684\u663e\u8457\u7279\u5f81](6)\u8840\u5e38\u89c4:[\u53ef\u6709\u8d2b\u8840\u53ca\u767d\u7ec6\u80de\u589e\u9ad8]\uff1b(7)\u80ba\u529f\u80fd\u68c0\u67e5:[\u53ef\u663e\u793a\u9650\u5236\u6027\u901a\u6c14\u969c\u788d](8)X\u7ebf\u5e73\u7247:[\u53ef\u4ee5\u786e\u5b9a\u9aa8\u9abc\u808c\u9499\u5316\u8303\u56f4]
p55
ssV\u8bfa\u5982\u75c5\u6bd2\u6027\u80a0\u708e
p56
(dp57
g3
V(1)\u6025\u6027\u8d77\u75c5:[\u6f5c\u4f0f\u671f1\uff5e2\u5929](2)\u9635\u53d1\u75c9\u631b\u6027\u8179\u75db$\u6076\u5fc3$\u5455\u5410$\u8179\u6cfb:[\u9996\u53d1\u75c7\u72b6](3)\u754f\u5bd2$\u53d1\u70ed$\u5934\u75db$\u4e4f\u529b$\u808c\u75db$\u547c\u5438\u9053\u75c7\u72b6\u3002(4)\u8131\u6c34$\u9178\u4e2d\u6bd2$\u4f4e\u94be:[\u5410\u6cfb\u9891\u7e41\u8005](5)\u75c5\u7a0b:[\u672c\u75c5\u4e3a\u81ea\u9650\u6027\u75be\u75c5\uff0c\u75c7\u72b6\u6301\u7eed1\uff5e3\u5929]
p58
sg5
g56
sg6
V\u65e0
p59
ssV\u5b8c\u5168\u6027\u80ba\u9759\u8109\u5f02\u4f4d\u5f15\u6d41
p60
(dp61
g3
V(1)\u547c\u5438\u6025\u4fc3$\u53d1\u7ec0$\u9888\u9759\u8109\u9971\u6ee1$\u809d\u810f\u8fdb\u884c\u6027\u589e\u5927:[\u4f34\u80ba\u9759\u8109\u6897\u963b\u8005\uff0c\u51fa\u751f\u540e1\uff5e2\u5929\u5185\u51fa\u73b0\u53d1\u7ec0\uff0c\u53ef\u51fa\u73b0\u547c\u5438\u6025\u4fc3\u3001\u53d1\u7ec0\u3001\u9888\u9759\u8109\u9971\u6ee1\u53ca\u809d\u810f\u8fdb\u884c\u6027\u589e\u5927\u7b49](2)\u55b7\u5c04\u6027\u6536\u7f29\u671f\u6742\u97f3$\u7b2c\u4e8c\u97f3\u589e\u5f3a\u5206\u88c2$\u8212\u5f20\u671f\u9686\u9686\u6837\u6742\u97f3:[\u4f53\u5f81\u4e0e\u623f\u95f4\u9694\u7f3a\u635f\u76f8\u4f3c\uff0c\u80f8\u9aa8\u5de6\u7f182\uff5e3\u808b\u95f4\u53ef\u95fb\u53ca\u55b7\u5c04\u6027\u6536\u7f29\u671f\u6742\u97f3\uff0c\u80ba\u52a8\u8109\u74e3\u533a\u7b2c\u4e8c\u97f3\u589e\u5f3a\u5206\u88c2\uff0c\u5206\u6d41\u91cf\u5927\u8005\u80f8\u9aa8\u5de6\u7f183\uff5e4\u808b\u95f4\u53ef\u95fb\u53ca\u76f8\u5bf9\u6027\u4e09\u5c16\u74e3\u72ed\u7a84\u6240\u81f4\u7684\u8212\u5f20\u671f\u9686\u9686\u6837\u6742\u97f3]
p62
sg5
g60
sg6
V(1)\u5fc3\u7535\u56fe:[\u5fc3\u7535\u8f74\u53f3\u504f\uff0c\u53f3\u5fc3\u623f\u589e\u5927\uff0c\u53f3\u5fc3\u5ba4\u80a5\u5927](2)X\u7ebf\u68c0\u67e5:[\u5fc3\u5f71\u589e\u5927\u3002\u4f34\u80ba\u9759\u8109\u6897\u963b\u8005\uff0c\u80ba\u91ce\u5448\u5f25\u6f2b\u3001\u6a21\u7cca\u7684\u7f51\u72b6\u6539\u53d8(\u80ba\u6de4\u8840)\u3002\u65e0\u80ba\u9759\u8109\u6897\u963b\u65f6\uff0c\u53f3\u5fc3\u623f\u3001\u53f3\u5fc3\u5ba4\u589e\u5927\uff0c\u80ba\u5145\u8840\uff0c\u80ba\u52a8\u8109\u6bb5\u51f8\u51fa\u3002\u5fc3\u4e0a\u578b\u8005\u80ba\u9759\u8109\u4e0e\u5de6\u65e0\u540d\u9759\u8109\u8fde\u63a5\u7684\u5fc3\u5f71\u53ef\u54488\u5b57\u5f62\u6216\u96ea\u4eba\u5f62(\u7531\u5de6\u4fa7\u5782\u76f4\u9759\u8109\u3001\u5de6\u65e0\u540d\u9759\u8109\u53ca\u53f3\u4e0a\u8154\u9759\u8109\u6269\u5f20\u4f7f\u4e0a\u7eb5\u9694\u5411\u4e24\u4fa7\u81a8\u9686\u6240\u81f4)](3)\u8d85\u58f0\u5fc3\u52a8\u56fe:[\u4e8c\u7ef4\u8d85\u58f0\u53ef\u89c1\u5de6\u5fc3\u623f\u5c0f\uff0c\u65e0\u80ba\u9759\u8109\u4e0e\u4e4b\u8fde\u63a5\uff0c\u53f3\u5fc3\u623f\u3001\u53f3\u5fc3\u5ba4\u589e\u5927\u3002\u7ed3\u5408\u591a\u79cd\u5207\u9762\u68c0\u67e5\u53ef\u53d1\u73b0\u80ba\u9759\u8109\u5f02\u4f4d\u5f15\u6d41\u7684\u90e8\u4f4d\u3002\u591a\u666e\u52d2\u8d85\u58f0\u6709\u52a9\u8bca\u65ad\u80ba\u9759\u8109\u6897\u963b](4)\u5fc3\u5bfc\u7ba1\u68c0\u67e5\u53ca\u5fc3\u8840\u7ba1\u9020\u5f71:[\u5fc3\u5bfc\u7ba1\u5728\u5f02\u5e38\u90e8\u4f4d\u53ef\u63d2\u5165\u80ba\u9759\u8109\uff0c\u5de6\u65e0\u540d\u9759\u8109\u3001\u53f3\u4e0a\u8154\u9759\u8109\u6216\u53f3\u5fc3\u623f\u8840\u6c27\u9971\u548c\u5ea6\u660e\u663e\u589e\u9ad8\u4e3a\u8bca\u65ad\u4f9d\u636e\u3002\u786e\u8bca\u6709\u8d56\u4e8e\u9009\u62e9\u6027\u80ba\u52a8\u8109\u9020\u5f71]
p63
ssV\u65b0\u751f\u513f\u5de8\u7ec6\u80de\u75c5\u6bd2\u611f\u67d3
p64
(dp65
g3
V(1)\u65e9\u4ea7$\u5bab\u5185\u53d1\u80b2\u8fdf\u7f13$\u591a\u810f\u5668\u529f\u80fd\u635f\u5bb3$\u76ae\u80a4\u7600\u70b9$\u7600\u6591$\u809d\u813e\u80bf\u5927$\u9ec4\u75b8$\u80ba\u708e:[\u65e9\u671f\u8868\u73b0]\u3002(2)\u6c14\u4fc3$\u54b3\u55fd$\u9f3b\u585e$\u547c\u5438\u6682\u505c:[\u80ba\u708e\u8868\u73b0\u548c\u5176\u4ed6\u5c0f\u5a74\u513f\u65e0\u70ed\u80ba\u708e\u76f8\u4f3c\uff0c\u6709\u6c14\u4fc3\u3001\u54b3\u55fd\u3001\u9f3b\u585e\u3001\u547c\u5438\u6682\u505c]\u3002(3)\u5c0f\u5934\u7578\u5f62$\u8111\u5ba4\u5468\u56f4\u9499\u5316\u7076$\u53ca\u8111\u5ba4\u6269\u5927$\u76ae\u8d28\u840e\u7f29(4)\u53d1\u80b2\u843d\u540e$\u542c\u529b\u4e27\u5931$\u89c6\u529b\u53d7\u635f:[\u540e\u9057\u75c7](5)\u611f\u89c9\u795e\u7ecf\u6027\u8033\u804b:[\u6700\u5e38\u89c1\u540e\u9057\u75c7](6)\u9ec4\u75b8$\u809d\u813e\u80bf\u5927$\u80ba\u708e$\u542c\u529b\u4e27\u5931:[\u56f4\u751f\u671f\u83b7\u5f97\u6027\u611f\u67d3]
p66
sg5
g64
sg6
V(1)\u8131\u843d\u7ec6\u80de\u68c0\u67e5:[\u53d6\u65b0\u9c9c\u6668\u5c3f\u6216\u8111\u810a\u6db2\u7684\u6c89\u6e23\u4f5c\u6d82\u7247\uff0c\u745e\u6c0f\u3001\u5409\u59c6\u8428\u67d3\u8272\u4f5c\u5149\u955c\u68c0\u67fb\uff0c\u53d7\u611f\u67d3\u7684\u7ec6\u80de\u53d8\u5927\u3001\u6838\u5185\u6709\u55dc\u9178\u6027\u5de8\u7ec6\u80de\u5305\u6db5\u4f53\uff0c\u76f4\u5f848\uff5e10\u03bcm\uff0c\u5360\u6838\u4e2d\u592e\u533a\u7684\u5927\u90e8\u5206\uff0c\u4f3c\u732b\u5934\u9e70\u773c\u3002\u672c\u6cd5\u7279\u5f02\u6027\u9ad8\uff0c\u4f46\u9633\u6027\u7387\u4f4e\uff0c\u6709\u65f6\u9700\u591a\u6b21\u91c7\u6837\u624d\u83b7\u9633\u6027\u7ed3\u679c](2)\u8840\u6e05\u5b66\u68c0\u67fb:[\u7528ELISA\u65b9\u6cd5\u68c0\u6d4b\u8840\u6e05\u4e2dCMV-IgG\u3001IgM\u6297\u4f53\uff0cIgG\u9633\u6027\uff0c\u53ef\u80fd\u4e3a\u6765\u81ea\u6bcd\u4f53\u7684\u6297\u4f53\uff0c\u82e5\u53cc\u4efd\u8840\u6e05IgG\u6ef4\u5ea6\u8d85\u8fc74\u500d\u5347\u9ad8\u63d0\u793a\u8fd1\u671f\u611f\u67d3\u3002IggM\u6297\u4f53\u4e0d\u80fd\u901a\u8fc7\u80ce\u76d8\uff0c\u82e5\u5347\u9ad8\u6709\u8bca\u65ad\u4ef7\u503c](3)\u75c5\u6bd2\u5206\u79bb:[\u5c3f\u3001\u553e\u6db2\u3001\u8111\u810a\u6db2\u6807\u672c\u6216\u6d3b\u68c0\u7ec4\u7ec7\u63a5\u79cd\u4e8e\u6210\u7ea4\u7ef4\u7ec6\u80de\u53ef\u5206\u79bb\u51fa\u75c5\u6bd2\uff0c\u4f46\u8017\u65f6\u957f\uff0c\u97002\uff5e6\u5468\uff0c\u9633\u6027\u7387\u4f4e\u3002\u65b0\u8fd1\u53d1\u5c55\u7684\u5feb\u901f\u75c5\u6bd2\u57f9\u517b\u6280\u672f(Shell vial culture)\u7528\u8367\u5149\u6807\u8bb0\u7684\u5355\u514b\u9686\u6297\u4f53\u5bf9\u57f9\u517b\u7ec6\u80de\u8fdb\u884c\u67d3\u8272\uff0c\u57f9\u517b24\uff5e72\u5c0f\u65f6\u540e\u5c31\u53ef\u4ee5\u68c0\u6d4b\u51fa\u53d7\u67d3\u7ec6\u80de\u4e2d\u7684\u65e9\u671f\u6297\u539f\uff0c\u4e3a\u65e9\u671f\u8bca\u65ad\u63d0\u4f9b\u4f9d\u636e](4)\u805a\u5408\u9176\u94fe\u53cd\u5e94:[\u53ef\u68c0\u6d4b\u5c3f\u3001\u8111\u810a\u6db2\u548c\u7ec4\u7ec7\u4e2d\u7684CMV-DNA\uff0c\u5176\u654f\u611f\u6027\u9ad8\uff0c\u4f46\u5bb9\u6613\u51fa\u73b0\u5047\u9633\u6027\u7ed3\u679c](5)\u80f8\u7247:[\u53ef\u89c1\u80ba\u90e8\u8fc7\u5ea6\u5145\u6c14\uff0c\u7eb9\u7406\u589e\u591a\u3001\u589e\u7c97\uff0c\u5c40\u7076\u6027\u80ba\u4e0d\u5f20](6)\u5b9e\u9a8c\u5ba4\u68c0\u67e5:[\u53ef\u53d1\u73b0\u809d\u9176\u589e\u9ad8\u3001\u9ad8\u76f4\u63a5\u80c6\u7ea2\u7d20\u8840\u75c7\u3001\u8840\u5c0f\u677f\u51cf\u5c11\u3001\u8d2b\u8840\u7b49]
p67
ssV\u8840\u53cb\u75c5
p68
(dp69
g3
V(1)\u51fa\u8840\u96be\u6b62:[\u4e34\u5e8a\u7279\u5f81\u4e3a\u5173\u8282\u3001\u808c\u8089\u3001\u5185\u810f\u548c\u6df1\u90e8\u7ec4\u7ec7\u81ea\u53d1\u6027\u6216\u8f7b\u5fae\u5916\u4f24\u540e\u51fa\u8840\u96be\u6b62\uff0c\u5e38\u5728\u513f\u7ae5\u671f\u968f\u7740\u6d3b\u52a8\u589e\u52a0\u800c\u51fa\u73b0\u4e34\u5e8a\u51fa\u8840\u8868\u73b0\u3002\u5176\u4e25\u91cd\u7a0b\u5ea6\u4e0e\u56e0\u5b50\u2167\u6216\u56e0\u5b50\u2168\u6d3b\u6027\u6c34\u5e73\u76f8\u5173]{1}\u5173\u8282\u51fa\u8840\u96be\u6b62$\u808c\u8089\u51fa\u8840\u96be\u6b62$\u5185\u810f\u51fa\u8840\u96be\u6b62$:[\u4e34\u5e8a\u7279\u5f81\u4e3a\u5173\u8282\u3001\u808c\u8089\u3001\u5185\u810f\u548c\u6df1\u90e8\u7ec4\u7ec7\u81ea\u53d1\u6027\u6216\u8f7b\u5fae\u5916\u4f24\u540e\u51fa\u8840\u96be\u6b62](2)\u5206\u578b:[\u6839\u636e\u56e0\u5b50\u2167:C\u6216\u56e0\u5b50\u2168:C\u6d3b\u6027\u6c34\u5e73\u7684\u9ad8\u4f4e\uff0c\u5c06\u8840\u53cb\u75c5A\u6216\u8840\u53cb\u75c5B\u5206\u4e3a:\u91cd\u578b(<1\uff05)\u3001\u4e2d\u578b(1\uff05\uff5e5\uff05)\u3001\u8f7b\u578b(5\uff05\uff5e25\uff05)\u53ca\u4e9a\u4e34\u5e8a\u578b(25\uff05\uff5e45\uff05)4\u79cd\u4e34\u5e8a\u7c7b\u578b][1]\u91cd\u578b:[\u591a\u57281\u5c81\u524d\u51fa\u73b0\u81ea\u53d1\u6027\u51fa\u8840\uff0c\u51fa\u8840\u90e8\u4f4d\u591a\u4e14\u4e25\u91cd\uff0c\u53cd\u590d\u5173\u8282\u5185\u6216\u6df1\u90e8\u7ec4\u7ec7(\u808c\u8089\u3001\u5185\u810f)\u51fa\u8840\uff0c\u5173\u8282\u7578\u5f62\u591a\u89c1]{1}\u81ea\u53d1\u6027\u51fa\u8840:[\u591a\u57281\u5c81\u524d\u51fa\u73b0\u81ea\u53d1\u6027\u51fa\u8840\uff0c\u51fa\u8840\u90e8\u4f4d\u591a\u4e14\u4e25\u91cd]{2}\u5173\u8282\u51fa\u8840:[\u53cd\u590d\u5173\u8282\u5185\u6216\u6df1\u90e8\u7ec4\u7ec7(\u808c\u8089\u3001\u5185\u810f)\u51fa\u8840]{3}\u808c\u8089\u51fa\u8840:[\u53cd\u590d\u5173\u8282\u5185\u6216\u6df1\u90e8\u7ec4\u7ec7(\u808c\u8089\u3001\u5185\u810f)\u51fa\u8840]{4}\u5185\u810f\u51fa\u8840:[\u53cd\u590d\u5173\u8282\u5185\u6216\u6df1\u90e8\u7ec4\u7ec7(\u808c\u8089\u3001\u5185\u810f)\u51fa\u8840]{5}\u5173\u8282\u7578\u5f62:[\u5173\u8282\u7578\u5f62\u591a\u89c1][2]\u4e2d\u95f4\u578b:[\u4e00\u822c\u57281\uff5e2\u5c81\u65f6\u53d1\u75c5\uff0c\u521b\u4f24\u540e\u53ef\u5f15\u8d77\u5927\u51fa\u8840\uff0c\u5173\u8282\u3001\u808c\u8089\u51fa\u8840\u591a\u89c1\uff0c\u4f46\u53cd\u590d\u53d1\u4f5c\u6b21\u6570\u5c11\uff0c\u5f88\u5c11\u5728\u672a\u6210\u5e74\u524d\u51fa\u73b0\u5173\u8282\u7578\u5f62\uff0c\u81ea\u53d1\u6027\u51fa\u8840\u5c11\u89c1]{1}\u521b\u4f24\u540e\u5927\u51fa\u8840:[\u521b\u4f24\u540e\u53ef\u5f15\u8d77\u5927\u51fa\u8840]{2}\u5173\u8282\u51fa\u8840$\u808c\u8089\u51fa\u8840:[\u5173\u8282\u3001\u808c\u8089\u51fa\u8840\u591a\u89c1\uff0c\u4f46\u53cd\u590d\u53d1\u4f5c\u6b21\u6570\u5c11][3]\u8f7b\u578b:[\u591a\u57282\u5c81\u540e\u53d1\u75c5\uff0c\u8f7b\u5fae\u635f\u4f24\u6216\u624b\u672f\u540e\u6709\u51fa\u8840\u4e0d\u6b62\uff0c\u65e0\u81ea\u53d1\u6027\u51fa\u8840\u53ca\u5173\u8282\u51fa\u8840]{1}\u672f\u540e\u51fa\u8840\u4e0d\u6b62:[\u591a\u57282\u5c81\u540e\u53d1\u75c5\uff0c\u8f7b\u5fae\u635f\u4f24\u6216\u624b\u672f\u540e\u6709\u51fa\u8840\u4e0d\u6b62]\u3001{2}\u521b\u4f24\u540e\u51fa\u8840\u4e0d\u6b62:[\u8f7b\u5fae\u635f\u4f24\u6216\u624b\u672f\u540e\u6709\u51fa\u8840\u4e0d\u6b62]{3}\u65e0\u81ea\u53d1\u6027\u51fa\u8840$\u65e0\u5173\u8282\u51fa\u8840[4]\u4e9a\u4e34\u5e8a\u578b:[\u4ec5\u5728\u4e25\u91cd\u521b\u4f24\u3001\u5927\u624b\u672f\u540e\u51fa\u8840\u4e0d\u6b62\u624d\u53d1\u73b0\u672c\u75c5\uff0c\u5bb9\u6613\u6f0f\u8bca]{1}\u5927\u624b\u672f\u540e\u51fa\u8840\u4e0d\u6b62:[\u4ec5\u5728\u4e25\u91cd\u521b\u4f24\u3001\u5927\u624b\u672f\u540e\u51fa\u8840\u4e0d\u6b62\u624d\u53d1\u73b0\u672c\u75c5\uff0c\u5bb9\u6613\u6f0f\u8bca]{2}\u4e25\u91cd\u521b\u4f24\u540e\u51fa\u8840\u4e0d\u6b62:[\u4ec5\u5728\u4e25\u91cd\u521b\u4f24\u3001\u5927\u624b\u672f\u540e\u51fa\u8840\u4e0d\u6b62\u624d\u53d1\u73b0\u672c\u75c5\uff0c\u5bb9\u6613\u6f0f\u8bca]
p70
sg5
g68
sg6
V(1)\u7b5b\u9009\u8bd5\u9a8c:[\u5185\u6e90\u9014\u5f84\u51dd\u8840\u8bd5\u9a8c(\u90e8\u5206\u51dd\u8840\u6d3b\u9176\u65f6\u95f4\uff0cAPTT)\u3001\u5916\u6e90\u9014\u5f84\u51dd\u8840\u8bd5\u9a8c(\u51dd\u8840\u9176\u539f\u65f6\u95f4\uff0cPT)\u3001\u7ea4\u7ef4\u86cb\u767d\u539f(Fg)\u6216\u51dd\u8840\u9176\u65f6\u95f4(TT)\u3001\u51fa\u8840\u65f6\u95f4\u3001\u8840\u5c0f\u677f\u8ba1\u6570\u3001\u8840\u5c0f\u677f\u805a\u96c6\u8bd5\u9a8c\u7b49\u3002\u4ee5\u4e0a\u8bd5\u9a8c\u9664APTT\u5916\uff0c\u5176\u4ed6\u5747\u6b63\u5e38](2)\u786e\u8bca\u8bd5\u9a8c:[\u56e0\u5b50\u2167\u6d3b\u6027(F\u2167:C)\u6d4b\u5b9a\u548c\u56e0\u5b50\u2168\u6d3b\u6027(FIX:C)\u6d4b\u5b9a\u53ef\u4ee5\u786e\u8bca\u8840\u53cb\u75c5A\u548c\u8840\u53cb\u75c5B](3)\u57fa\u56e0\u8bca\u65ad\u8bd5\u9a8c:[\u4e3b\u8981\u7528\u4e8e\u643a\u5e26\u8005\u68c0\u6d4b\u548c\u4ea7\u524d\u8bca\u65ad]
p71
ssV\u6e7f\u75b9\u8840\u5c0f\u677f\u51cf\u5c11\u4f34\u514d\u75ab\u7f3a\u9677
p72
(dp73
g3
V(1)\u8840\u5c0f\u677f\u51cf\u5c11$\u6e7f\u75b9$\u514d\u75ab\u529f\u80fd\u5f02\u5e38:[\u5178\u578b\u75c7\u72b6\u4e3a\u8840\u5c0f\u677f\u51cf\u5c11\uff0c\u6e7f\u75b9\u548c\u514d\u75ab\u529f\u80fd\u5f02\u5e38\u4e09\u8054\u5f81\uff0c\u4f46\u662f\u540c\u65f6\u51fa\u73b0\u4e09\u8054\u5f81\u8005\u4ec5\u536027\uff05](2)\u8840\u4fbf$\u7600\u6591\u7600\u70b9$\u54af\u8840$\u8840\u5c3f(3)\u6d88\u5316\u9053\u5927\u51fa\u8840$\u9885\u5185\u51fa\u8840:[\u91cd\u8005\u53ef\u51fa\u73b0\u5a01\u80c1\u751f\u547d\u7684\u6d88\u5316\u9053\u5927\u51fa\u8840\u548c\u9885\u5185\u51fa\u8840](4)\u5f02\u4f4d\u6027\u6e7f\u75b9:[\u53d1\u751f\u7ea6\u536080\uff05](5)\u6613\u60a3\u611f\u67d3:[\u73b0\u4e3a\u5bb9\u6613\u7f79\u60a3\u5404\u79cd\u611f\u67d3\uff0c\u5176\u4e2d\u5316\u8113\u6027\u5916\u8033\u9053\u708e\u6700\u591a\u89c1\uff0c\u536078\uff05\uff0c\u8fd8\u6709\u9f3b\u7aa6\u708e\u3001\u80ba\u708e\u7b49\uff0c\u4e25\u91cd\u8005\u53d1\u751f\u8d25\u8840\u75c7\u548c\u8111\u819c\u708e\uff1b][1]\u514d\u75ab\u529f\u80fd\u5f02\u5e38$\u5316\u8113\u6027\u5916\u8033\u9053\u708e$\u9f3b\u7aa6\u708e$\u80ba\u708e$\u8d25\u8840\u75c7$\u8111\u819c\u708e(6)\u5e76\u53d1\u75c7:[\u5e38\u4f34\u53d1\u81ea\u8eab\u514d\u75ab\u6027\u75be\u75c5\uff0c\u5305\u62ec\u81ea\u8eab\u514d\u75ab\u6027\u6eb6\u8840\u6027\u8d2b\u8840\u3001\u8840\u7ba1\u708e\u3001\u5173\u8282\u708e\u548c\u80be\u810f\u75be\u75c5\uff1b\u9752\u6625\u671f\u4ee5\u540e10\uff05\uff5e20\uff05\u7684\u60a3\u513f\u53ef\u53d1\u751f\u80bf\u7624\uff0c\u4e3b\u8981\u6709\u6dcb\u5df4\u7f51\u72b6\u6076\u6027\u80bf\u7624\uff0c\u4ee5EB\u75c5\u6bd2\u9633\u6027\u7684B\u7ec6\u80de\u6dcb\u5df4\u7624\u6700\u5e38\u89c1]{1}\u81ea\u8eab\u514d\u75ab\u6027\u6eb6\u8840\u6027\u8d2b\u8840$\u8840\u7ba1\u708e$\u5173\u8282\u708e$\u80be\u810f\u75be\u75c5$\u6dcb\u5df4\u7f51\u72b6\u6076\u6027\u80bf\u7624(7)T\u6dcb\u5df4\u7ec6\u80de\u529f\u80fd\u7f3a\u9677:[\u6700\u5e38\u89c1\u7684\u514d\u75ab\u529f\u80fd\u5f02\u5e38\uff0c\u4e14\u968f\u5e74\u9f84\u800c\u9010\u6e10\u52a0\u91cd]
p74
sg5
g72
sg6
V[1]\u8840\u5e38\u89c4:[\u5c0f\u7ec6\u80de\u6027\u8d2b\u8840\uff0c\u8840\u5c0f\u677f\u6570\u91cf\u51cf\u5c11\u3001\u4f53\u79ef\u51cf\u5c0f;T\u6dcb\u5df4\u7ec6\u80de\u51cf\u5c11\uff0c\u4f46\u5176\u7a0b\u5ea6\u8f83\u8f7b\uff0c80\uff05\u4ee5\u4e0a\u60a3\u8005\u7684T\u6dcb\u5df4\u7ec6\u80de\u7edd\u5bf9\u503c>1000/\u03bcl\uff0c\u53e6\u5916T\u7ec6\u80de\u7684\u4e1d\u88c2\u539f\u523a\u6fc0\u6dcb\u5df4\u7ec6\u80de\u589e\u6b96\u53cd\u5e94\u5f02\u5e38][2]\u8840\u6e05\u6297\u4f53\u68c0\u6d4b:[IgG\u3001IgA\u548cIgM\u964d\u4f4e\u800cIgE\u6c34\u5e73\u5347\u9ad8][3]\u8840\u51dd\u7d20\u68c0\u6d4b:[\u540c\u65cf\u8840\u51dd\u7d20\u6ef4\u5ea6\u5f02\u5e38\u548c\u5bf9\u5404\u79cd\u75ab\u82d7(\u5305\u62ec\u86cb\u767d\u8d28\u3001\u591a\u7cd6\u6216\u7ed3\u5408\u75ab\u82d7)\u7684\u53cd\u5e94\u51cf\u5f31][4]\u57fa\u56e0\u68c0\u6d4b:[\u68c0\u6d4b\u5230\u7a81\u53d8\u4f4d\u70b9\u5373\u53ef\u660e\u786e\u8bca\u65ad\uff1b\u76ee\u524d\u5df2\u7ecf\u53d1\u73b0300\u591a\u79cdWASP\u57fa\u56e0\u7684\u7a81\u53d8\u3002\u4e5f\u53ef\u5e94\u7528\u6d41\u5f0f\u7ec6\u80de\u4eea\u8fdb\u884cWASP\u8868\u8fbe\u7684\u68c0\u6d4b\u6765\u660e\u786e\u8bca\u65ad]
p75
ssV\u8fd1\u7aef\u80be\u5c0f\u7ba1\u9178\u4e2d\u6bd2
p76
(dp77
g3
V(1)\u751f\u957f\u53d1\u80b2\u843d\u540e(2)\u4f4e\u94be(3)\u9ad8\u6c2f\u6027\u4ee3\u8c22\u6027\u9178\u4e2d\u6bd2\u75c7\u72b6\uff1b
p78
sg5
g76
sg6
V(1)\u8840\u6db2\u751f\u5316\u68c0\u67e5:[\u8840pH\u3001 \u6216CO2CP\u964d\u4f4e\uff1b\u8840\u6c2f\u663e\u8457\u5347\u9ad8\uff0c\u8840\u94be\u663e\u8457\u964d\u4f4e\uff0c\u9634\u79bb\u5b50\u95f4\u9699\u53ef\u6b63\u5e38](2)\u5c3f\u6db2\u68c0\u67e5:[\u5c3f\u6bd4\u91cd\u548c\u6e17\u900f\u538b\u964d\u4f4e\uff1b\u5f53\u9178\u4e2d\u6bd2\u52a0\u91cd\uff0c\u8840 \uff1c16mmol/L\u65f6\uff0c\u5c3fpH\uff1c5.5,\u6392\u6cc4\u5206\u6570\uff1e15%\u3002(3)\u5224\u522b\u8bd5\u9a8c:[\u6c2f\u5316\u94f5\u8d1f\u8377\u8bd5\u9a8c\u5c3fpH\uff1c5.5]
p79
ssV\u65b0\u751f\u513f\u7f3a\u6c27\u7f3a\u8840\u6027\u8111\u75c5
p80
(dp81
g3
V(1)\u610f\u8bc6\u969c\u788d$\u808c\u5f20\u529b\u53ca\u539f\u59cb\u53cd\u5c04\u6539\u53d8$\u9885\u5185\u9ad8\u538b$\u4e2d\u67a2\u6027\u547c\u5438\u8870\u7aed\u3002(2)\u60ca\u53a5:[\u5e38\u53d1\u751f\u5728\u51fa\u751f\u540e12\uff5e24\u5c0f\u65f6](3)\u8111\u6c34\u80bf:[\u5219\u572836\uff5e72\u5c0f\u65f6\u5185\u6700\u660e\u663e]
p82
sg5
g80
sg6
V(1)\u5b9e\u9a8c\u5ba4\u68c0\u67e5:[\u51fa\u751f\u65f6\u901a\u8fc7\u65b0\u751f\u513f\u8110\u8840\u7684\u8840\u6c14\u5206\u6790\u7ed3\u679c\uff0c\u4e86\u89e3\u60a3\u513f\u7684\u5bab\u5185\u7f3a\u6c27\u72b6\u51b5\u3002\u8840\u6e05\u808c\u9178\u6fc0\u9176\u7684\u540c\u5de5\u9176CK-BB\u4e3b\u8981\u5b58\u5728\u4e8e\u8111\u548c\u795e\u7ecf\u7ec4\u7ec7\u4e2d\uff0c\u795e\u7ecf\u5143\u7279\u5f02\u6027\u70ef\u9187\u5316\u9176(NSE)\u4e3b\u8981\u5b58\u5728\u4e8e\u795e\u7ecf\u5143\u548c\u795e\u7ecf\u5185\u5206\u6ccc\u7ec6\u80de\u4e2d\uff0c\u6545HIE\u65f6\u8840\u6d46\u4e2dCK-BB(\u6b63\u5e38\u503c\uff1c10U/L)\u53caNSE(\u6b63\u5e38\u503c\uff1c6\u03bcg/L)\u6d3b\u6027\u5347\u9ad8\uff0c\u53ef\u5e2e\u52a9\u5224\u5b9a\u8111\u635f\u4f24\u7684\u7a0b\u5ea6](2)\u5f71\u50cf\u5b66\u68c0\u67e5:[B\u8d85\u5177\u6709\u65e0\u521b\u4ef7\u5ec9\u7684\u4f18\u70b9\uff0c\u5e76\u53ef\u5728\u5e8a\u65c1\u8fdb\u884c\u64cd\u4f5c\uff0c\u5bf9\u8111\u6c34\u80bf\u65e9\u671f\u8bca\u65ad\u8f83\u4e3a\u654f\u611f\uff0c\u4f46\u5bf9\u77e2\u72b6\u65c1\u533a\u7684\u635f\u4f24\u96be\u4ee5\u8bc6\u522b\u3002CT\u6709\u52a9\u4e8e\u4e86\u89e3\u9885\u5185\u51fa\u8840\u7684\u90e8\u4f4d\u548c\u7a0b\u5ea6\uff0c\u5bf9\u8bc6\u522b\u57fa\u5e95\u8282\u4e18\u8111\u635f\u4f24\u3001\u8111\u6897\u6b7b\u3001\u8111\u5ba4\u5468\u56f4\u767d\u8d28\u8f6f\u5316\u4e5f\u6709\u4e00\u5b9a\u7684\u53c2\u8003\u4f5c\u7528\u3002\u78c1\u5171\u632f\u6210\u50cf(MRI)\u5219\u662f\u76ee\u524d\u660e\u786eHIE\u75c5\u7406\u7c7b\u578b(\u7279\u522b\u662fB\u8d85\u548cCT\u96be\u4ee5\u8bc6\u5225\u7684\u77e2\u72b6\u65c1\u533a\u635f\u4f24)\u3001\u5224\u5b9a\u75c5\u53d8\u7a0b\u5ea6\u53ca\u8bc4\u4ef7\u9884\u540e\u7684\u91cd\u8981\u624b\u6bb5\uff0c\u7279\u522b\u662f\u5f25\u6563\u52a0\u6743\u6210\u50cf(DWI)\u5bf9\u65e9\u671f(\u75c5\u540e1\u62162\u5929)\u8bc4\u4ef7\u8111\u635f\u4f24\u63d0\u4f9b\u4e86\u91cd\u8981\u7684\u5f71\u50cf\u5b66\u4fe1\u606f]
p83
ssV\u91cd\u75c7\u808c\u65e0\u529b
p84
(dp85
g3
V(1)\u513f\u7ae5\u671f\u91cd\u75c7\u808c\u65e0\u529b:[1]I\u578b(\u773c\u808c\u578b):{1}\u773c\u808c\u9ebb\u75f9[2]\u2161a\u578b(\u8f7b\u5ea6\u5168\u8eab\u578b):{1}\u8fdb\u5c55\u7f13\u6162{2}\u773c\u5916\u808c\u53d7\u7d2f$\u7d2f\u53ca\u54bd\u5589\u90e8\u808c\u8089{3}\u5bf9\u80c6\u78b1\u916f\u9176\u6291\u5236\u5242\u53cd\u5e94\u826f\u597d[3]\u2161b\u578b(\u4e2d\u5ea6\u5168\u8eab\u578b):{1}\u5168\u8eab\u808c\u8089\u53d7\u7d2f{2}\u547c\u5438\u808c\u4e0d\u53d7\u7d2f{3}\u5bf9\u80c6\u78b1\u916f\u9176\u6291\u5236\u5242\u4e0d\u654f\u611f\u3002[4]\u2162\u578b(\u6025\u6027\u5feb\u901f\u8fdb\u5c55\u578b):{1}\u7a81\u7136\u53d1\u75c5:[\u5728\u6570\u5468\u81f3\u6570\u6708\u5185\u8fdb\u5c55\u8fc5\u901f]{2}\u547c\u5438\u808c\u53d7\u7d2f:[\u65e9\u671f]{3}\u56db\u80a2\u808c\u548c\u8eaf\u5e72\u808c\u4e25\u91cd\u53d7\u7d2f{4}\u80c6\u78b1\u916f\u9176\u6291\u5236\u5242\u53cd\u5e94\u5dee{5}\u5e38\u5408\u5e76\u80f8\u817a\u7624[5]\u2163\u578b(\u6162\u6027\u4e25\u91cd\u578b):{1}\u75c5\u7a0b:[\u75c5\u521d\u4e3aI\u578b\u6216\u2161a\u578b\uff0c2\u5e74\u6216\u66f4\u957f\u65f6\u95f4\u540e\u75c5\u60c5\u7a81\u7136\u6076\u5316]{2}\u5bf9\u80c6\u78b1\u916f\u9176\u6291\u5236\u5242\u53cd\u5e94\u4e0d\u660e\u663e{3}\u5e38\u5408\u5e76\u80f8\u817a\u7624(2)\u65b0\u751f\u513f\u671f\u91cd\u75c7\u808c\u65e0\u529b:[1]\u65b0\u751f\u513f\u6682\u65f6\u6027\u91cd\u75c7\u808c\u65e0\u529b:[\u53c8\u79f0\u65b0\u751f\u513f\u4e00\u8fc7\u6027\u91cd\u75c7\u808c\u65e0\u529b\uff0c\u4ec5\u89c1\u4e8eMG\u6bcd\u4eb2\u6240\u751f\u65b0\u751f\u513f\uff0c\u5982\u6bcd\u4eb2\u60a3MG\uff0c\u7ea61\uff0f7\u7684\u65b0\u751f\u513f\u56e0\u4f53\u5185\u9057\u7559\u6bcd\u4eb2\u6297Ach-R\u6297\u4f53\uff0c\u53ef\u80fd\u4e8e\u751f\u540e\u51fa\u73b0\u5168\u8eab\u808c\u8089\u65e0\u529b\uff0c\u4e25\u91cd\u8005\u9700\u8981\u547c\u5438\u673a\u8f85\u52a9\u547c\u5438\u6216\u80c3\u7ba1\u5582\u517b\u3002\u773c\u808c\u65e0\u529b\u75c7\u72b6\u5c11\u89c1\u3002\u5982\u5ea6\u8fc7\u5371\u9669\u671f\uff0c\u6570\u5929\u6216\u6570\u5468\u540e\uff0c\u5a74\u513f\u4f53\u5185\u7684\u6297Ach-R\u6297\u4f53\u6d88\u5931\uff0c\u808c\u529b\u5373\u53ef\u6062\u590d\u6b63\u5e38\uff0c\u4e14\u4ee5\u540e\u5e76\u4e0d\u5b58\u5728\u53d1\u751fMG\u7684\u7279\u522b\u5371\u9669\u6027]{1}\u808c\u8089\u65e0\u529b:[\u53ef\u80fd\u4e8e\u751f\u540e\u51fa\u73b0\u5168\u8eab\u808c\u8089\u65e0\u529b\uff0c\u4e25\u91cd\u8005\u9700\u8981\u547c\u5438\u673a\u8f85\u52a9\u547c\u5438\u6216\u80c3\u7ba1\u5582\u517b\u3002][2]\u5148\u5929\u6027\u808c\u65e0\u529b\u7efc\u5408\u5f81:[\u90e8\u5206\u53ef\u4ee5\u5728\u65b0\u751f\u513f\u671f\u8d77\u75c5\uff0c\u6b64\u7ec4\u75be\u75c5\u662f\u4e00\u7ec4\u5e38\u67d3\u8272\u4f53\u9690\u6027\u9057\u4f20\u6027\u795e\u7ecf\u808c\u8089\u4f20\u9012\u969c\u788d\uff0c\u4e0e\u6bcd\u4eb2\u662f\u5426\u60a3MG\u65e0\u5173\u3002\u60a3\u513f\u51fa\u751f\u540e\u5373\u53ef\u51fa\u73b0\u5168\u8eab\u808c\u65e0\u529b\u548c\u773c\u5916\u808c\u53d7\u7d2f\uff0c\u75c7\u72b6\u5f88\u96be\u81ea\u7136\u7f13\u89e3\uff0c\u80c6\u78b1\u916f\u9176\u6291\u5236\u5242\u548c\u8840\u6d46\u7f6e\u6362\u6cbb\u7597\u65e0\u6548](3)\u91cd\u75c7\u808c\u65e0\u529b\u60a3\u513f:[\u91cd\u75c7\u808c\u65e0\u529b\u60a3\u513f\u53ef\u7a81\u7136\u51fa\u73b0\u4e24\u79cd\u4e0d\u540c\u7684\u5371\u8c61\u3002\u4e00\u79cd\u662f\u91cd\u75c7\u808c\u65e0\u529b\u5371\u8c61\uff0c\u53e6\u4e00\u79cd\u662f][1]\u91cd\u75c7\u808c\u65e0\u529b\u5371\u8c61:[\u4e00\u79cd\u662f\u91cd\u75c7\u808c\u65e0\u529b\u5371\u8c61\uff0c\u662f\u6307\u60a3\u513f\u672c\u8eab\u75c5\u60c5\u52a0\u91cd\u6216\u6cbb\u7597\u4e0d\u5f53\u5f15\u8d77\u547c\u5438\u808c\u65e0\u529b\u6240\u81f4\u7684\u4e25\u91cd\u547c\u5438\u529f\u80fd\u4e0d\u5168\u72b6\u6001\uff0c\u6b64\u79cd\u5371\u8c61\u60a3\u513f\u5e38\u6709\u53cd\u590d\u611f\u67d3\u3001\u4f4e\u94a0\u8840\u75c7\u3001\u8131\u6c34\u3001\u9178\u4e2d\u6bd2\u6216\u4e0d\u89c4\u5219\u7528\u836f\u53f2\u3002]{1}\u53cd\u590d\u611f\u67d3$\u4f4e\u94a0\u8840\u75c7$\u8131\u6c34$\u9178\u4e2d\u6bd2[2]\u80c6\u78b1\u80fd\u5371\u8c61:[\u53e6\u4e00\u79cd\u662f\u80c6\u78b1\u80fd\u5371\u8c61\uff0c\u9664\u6709\u660e\u663e\u808c\u65e0\u529b\u5916\uff0c\u8fd8\u6709\u6297\u80c6\u78b1\u916f\u9176\u836f\u7269\u8fc7\u91cf\u7684\uff0c\u5982\u9762\u8272\u82cd\u767d\u3001\u8179\u6cfb\u3001\u5455\u5410\u3001\u9ad8\u8840\u538b\u3001\u5fc3\u52a8\u8fc7\u7f13\u3001\u77b3\u5b54\u7f29\u5c0f\u53ca\u9ecf\u819c\u5206\u6ccc\u7269\u589e\u591a\u7b49\u3002]{1}\u9762\u8272\u82cd\u767d$\u8179\u6cfb$\u5455\u5410$\u9ad8\u8840\u538b$\u5fc3\u52a8\u8fc7\u7f13$\u77b3\u5b54\u7f29\u5c0f$\u9ecf\u819c\u5206\u6ccc\u7269\u589e\u591a[3]\u9274\u522b:[\u5982\u9047\u4e0a\u8ff0\u75c7\u72b6\u4e0d\u5178\u578b\u7684\u75c5\u4f8b\uff0c\u53ef\u501f\u808c\u6ce8\u4f9d\u915a\u6c2f\u94f51mg\u505a\u9274\u522b\u8bca\u65ad\u6216\u6307\u5bfc\u6cbb\u7597\u3002\u5982\u60a3\u513f\u7528\u836f\u540e\u75c7\u72b6\u6539\u5584\uff0c\u5219\u8003\u8651\u4e3a\u808c\u65e0\u529b\u5371\u8c61\uff0c\u4ecd\u53ef\u7ee7\u7eed\u5e94\u7528\u6297\u80c6\u78b1\u916f\u9176\u836f\u7269\u3002\u5982\u7528\u836f\u540e\u75c7\u72b6\u52a0\u91cd\uff0c\u5219\u8003\u8651\u4e3a\u80c6\u78b1\u80fd\u5371\u8c61\uff0c\u5e94\u505c\u7528\u6297\u80c6\u78b1\u916f\u9176\u836f\u7269]
p86
sg5
g84
sg6
V(1)\u836f\u7269\u8bca\u65ad\u6027\u8bd5\u9a8c:[\u4f9d\u915a\u6c2f\u94f5(tensilon)\u6216\u65b0\u65af\u7684\u660e(neostigmine)\u836f\u7269\u8bd5\u9a8c\u6709\u52a9\u4e8e\u8bca\u65ad\u3002\u524d\u8005\u662f\u80c6\u78b1\u916f\u9176\u7684\u77ed\u6548\u6291\u5236\u5242\uff0c\u663e\u6548\u8fc5\u901f\uff0c\u4f46\u6709\u65f6\u53ef\u5bfc\u81f4\u5fc3\u5f8b\u5931\u5e38\uff0c\u6545\u4e00\u822c\u4e0d\u7528\u4e8e\u5a74\u513f\u3002\u7528\u4e8e\u513f\u7ae5\u65f6\u6bcf\u6b210.2mg\uff0fkg(\u6700\u5927\u4e0d\u8d85\u8fc710mg)\uff0c\u9759\u8109\u6216\u808c\u6ce8\uff0c\u7528\u836f\u540e1\u5206\u949f\u5373\u53ef\u89c1\u808c\u529b\u660e\u663e\u6539\u5584\uff0c2\uff5e5\u5206\u949f\u540e\u4f5c\u7528\u6d88\u5931\u3002\u65b0\u65af\u7684\u660e\u867d\u663e\u6548\u8f83\u6162\uff0c\u4f46\u5f88\u5c11\u6709\u5fc3\u5f8b\u5931\u5e38\u4e0d\u826f\u53cd\u5e94\u3002\u6bcf\u6b210.04mg\uff0fkg\uff0c\u808c\u5185\u6ce8\u5c04\uff0c\u6216\u65b0\u751f\u513f0.1\uff5e0.15mg\uff0c\u513f\u7ae50.25\uff5e0.5mg\uff0c\u6700\u5927\u4e0d\u8d85\u8fc71mg\u3002\u6700\u5927\u4f5c\u7528\u5728\u7528\u836f\u540e15\uff5e40\u5206\u949f\u3002\u5a74\u513f\u53cd\u5e94\u9634\u6027\u800c\u53c8\u9ad8\u5ea6\u6000\u7591\u672c\u75c5\u65f6\uff0c\u53ef\u4e8e4\u5c0f\u65f6\u540e\u52a0\u91cf\u4e3a0.08mg\uff0fkg\u3002\u4e3a\u9632\u6b62\u65b0\u65af\u7684\u660e\u5f15\u8d77\u7684\u9762\u8272\u82cd\u767d\u3001\u8179\u75db\u3001\u8179\u6cfb\u3001\u5fc3\u7387\u51cf\u6162\u3001\u6c14\u7ba1\u5206\u6ccc\u7269\u589e\u591a\u7b49\u6bd2\u8548\u78b1\u6837\u4e0d\u826f\u53cd\u5e94\uff0c\u6ce8\u5c04\u8be5\u836f\u524d\u5e94\u5148\u5907\u597d\u963f\u6258\u54c1\uff0c\u4e00\u65e6\u51fa\u73b0\u4e0a\u8ff0\u75c7\u72b6\uff0c\u53ef\u808c\u5185\u6ce8\u5c04\u963f\u6258\u54c10.01mg\uff0fkg](2)\u808c\u7535\u56fe\u68c0\u67e5:[\u4f4e\u9891\u91cd\u590d\u523a\u6fc0(\u901a\u5e38\u75283\u6b21\uff0f\u79d2)\u68c0\u67e5\u5bf9\u8bca\u65ad\u8be5\u75c5\u6709\u91cd\u8981\u4ef7\u503c\u3002\u7279\u5f81\u6027\u8868\u73b0\u662f\u91cd\u590d\u523a\u6fc0\u540e\u808c\u8089\u52a8\u4f5c\u7535\u4f4d\u5e45\u5ea6\u9012\u51cf\uff0c\u8870\u51cf\u5927\u4e8e10\uff05](3)\u8840\u6e05\u6297Ach-R\u6297\u4f53\u68c0\u67e5:[\u9633\u6027\u8005\u5bf9\u8bca\u65ad\u6709\u91cd\u8981\u610f\u4e49\uff0c\u4f46\u9634\u6027\u8005\u5e76\u4e0d\u80fd\u6392\u9664\u8be5\u75c5\u3002\u5a74\u5e7c\u513f\u9633\u6027\u7387\u4f4e\uff0c\u4ee5\u540e\u968f\u5e74\u9f84\u589e\u52a0\u800c\u589e\u9ad8\u3002\u773c\u808c\u578b(\u7ea640\uff05)\u53c8\u8f83\u5168\u8eab\u578b(70\uff05)\u4f4e](4)\u80f8\u90e8\u5f71\u50cf\u5b66\u68c0\u67e5:[\u80f8\u7247\u68c0\u67e5\u53ef\u9057\u6f0f\u7ea625\uff05\u7684\u80f8\u817a\u80bf\u7624\u3002\u80f8\u90e8CT\u6216MRI\u53ef\u660e\u663e\u63d0\u9ad8\u9633\u6027\u7387]
p87
ssV\u4e2d\u6bd2\u578b\u7ec6\u83cc\u6027\u75e2\u75be
p88
(dp89
g3
V(1)\u8d77\u75c5\u6025\u9aa4(2)\u9ad8\u70ed:[\u8d77\u75c5\u540e\u4f53\u6e29\u5f88\u5feb\u4e0a\u5347\u81f339\u2103\u4ee5\u4e0a\uff0c\u53ef\u8fbe40\uff5e41\u2103](3)\u60ca\u53a5$\u4e2d\u6bd2\u75c7\u72b6$\u5934\u75db$\u754f\u5bd2$\u80a0\u9053\u75c7\u72b6(4)\u611f\u67d3\u6027\u4f11\u514b:[\u521d\u8d77\u9762\u8272\u7070\u767d\uff0c\u5507\u5468\u9752\u7070\uff0c\u56db\u80a2\u51b7\uff0c\u6307\u8dbe\u7532\u53d1\u767d\uff0c\u8109\u7ec6\u901f\uff0c\u5fc3\u7387\u589e\u5feb\u3002\u540e\u671f\u51fa\u73b0\u9752\u7d2b\uff0c\u8840\u538b\u4e0b\u964d\uff0c\u5c3f\u91cf\u51cf\u5c11\uff0c\u8109\u7ec6\u901f\u6216\u7ec6\u5f31\uff0c\u751a\u81f3\u4e0d\u80fd\u89e6\u53ca\uff0c\u5fc3\u97f3\u4f4e\u949d\uff0c\u65e0\u5c3f\u3002\u91cd\u8005\u9752\u7d2b\u4e25\u91cd\uff0c\u5fc3\u7387\u51cf\u6162\uff0c\u5fc3\u97f3\u5fae\u5f31\uff0c\u8840\u538b\u6d4b\u4e0d\u51fa\u3002\u5e76\u53ef\u540c\u65f6\u4f34\u5fc3\u3001\u80ba\u3001\u8840\u6db2\u53ca\u80be\u810f\u7b49\u591a\u5668\u5b98\u529f\u80fd\u4e0d\u5168\u7684\u8868\u73b0][1]\u521d\u671f\u75c7\u72b6:[\u521d\u8d77\u9762\u8272\u7070\u767d\uff0c\u5507\u5468\u9752\u7070\uff0c\u56db\u80a2\u51b7\uff0c\u6307\u8dbe\u7532\u53d1\u767d\uff0c\u8109\u7ec6\u901f\uff0c\u5fc3\u7387\u589e\u5feb\u3002]{1}\u9762\u8272\u7070\u767d$\u5507\u5468\u9752\u7070$\u56db\u80a2\u51b7$\u6307\u8dbe\u7532\u53d1\u767d$\u8109\u7ec6\u901f$\u5fc3\u7387\u589e\u5feb[2]\u540e\u671f\u75c7\u72b6:[\u540e\u671f\u51fa\u73b0\u9752\u7d2b\uff0c\u8840\u538b\u4e0b\u964d\uff0c\u5c3f\u91cf\u51cf\u5c11\uff0c\u8109\u7ec6\u901f\u6216\u7ec6\u5f31\uff0c\u751a\u81f3\u4e0d\u80fd\u89e6\u53ca\uff0c\u5fc3\u97f3\u4f4e\u949d\uff0c\u65e0\u5c3f\u3002\u91cd\u8005\u9752\u7d2b\u4e25\u91cd\uff0c\u5fc3\u7387\u51cf\u6162\uff0c\u5fc3\u97f3\u5fae\u5f31\uff0c\u8840\u538b\u6d4b\u4e0d\u51fa\u3002\u5e76\u53ef\u540c\u65f6\u4f34\u5fc3\u3001\u80ba\u3001\u8840\u6db2\u53ca\u80be\u810f\u7b49\u591a\u5668\u5b98\u529f\u80fd\u4e0d\u5168\u7684\u8868\u73b0]{1}\u9752\u7d2b$\u8840\u538b\u4e0b\u964d$\u5c3f\u91cf\u51cf\u5c11$\u8109\u7ec6\u901f$\u7ec6\u5f31$\u5fc3\u97f3\u4f4e\u949d$\u65e0\u5c3f{2}\u5fc3\u7387\u51cf\u6162$\u5fc3\u97f3\u5fae\u5f31$\u8840\u538b\u6d4b\u4e0d\u51fa{3}\u5668\u5b98\u529f\u80fd\u4e0d\u5168:\u5fc3\u3001\u80ba\u3001\u8840\u6db2\u53ca\u80be\u810f\u7b49\u591a\u5668\u5b98\u529f\u80fd\u4e0d\u5168(5)\u5fae\u5faa\u73af\u969c\u788d:[\u75c5\u521d\u8d77\u65f6\u5c0f\u513f\u70e6\u8e81\u6216\u840e\u9761\u3001\u55dc\u7761\uff0c\u4e25\u91cd\u8005\u51fa\u73b0\u60ca\u53a5\u3002\u60ca\u53a5\u53ef\u53cd\u590d\u53d1\u4f5c\uff0c\u75c5\u521d\u53d1\u4f5c\u524d\u540e\u795e\u5fd7\u6e05\u695a\uff0c\u7ee7\u4e4b\u53ef\u8f6c\u5165\u8c35\u5984\u660f\u8ff7\uff0c\u5e76\u53ef\u5728\u6301\u7eed\u60ca\u53a5\u540e\u547c\u5438\u7a81\u7136\u505c\u6b62\uff0c\u8fd9\u662f\u7531\u4e8e\u8111\u7ec6\u80de\u7f3a\u6c27\u5f15\u8d77\u8111\u6c34\u80bf\u4ea7\u751f\u8111\u759d\u6240\u81f4\u3002\u773c\u5e95\u68c0\u67e5\u53ef\u89c1\u5c0f\u52a8\u8109\u76f4\u5f84\u53d8\u7ec6\uff0c\u5c0f\u9759\u8109\u6de4\u8840\u6269\u5f20\u3002\u6b64\u578b\u8f83\u91cd\uff0c\u75c5\u6b7b\u7387\u9ad8][1]\u80ba\u5fae\u5faa\u73af\u969c\u788d:[\u4e3b\u8981\u8868\u73b0\u4e3a\u547c\u5438\u7a98\u8feb\u7efc\u5408\u5f81\u3002\u4ee5\u80ba\u5fae\u5faa\u73af\u969c\u788d\u4e3a\u4e3b\uff0c\u5e38\u7531\u4e2d\u6bd2\u578b\u7ec6\u83cc\u6027\u75e2\u75be\u7684\u4f11\u514b\u578b\u6216\u8111\u578b\u53d1\u5c55\u800c\u6765\uff0c\u75c5\u60c5\u5371\u91cd\uff0c\u75c5\u6b7b\u7387\u9ad8][2]:[\u75c5\u521d\u8d77\u65f6\u5c0f\u513f\u70e6\u8e81\u6216\u840e\u9761\u3001\u55dc\u7761\uff0c\u4e25\u91cd\u8005\u51fa\u73b0\u60ca\u53a5\u3002]{1}\u70e6\u8e81$\u840e\u9761$\u55dc\u7761$\u60ca\u53a5
p90
sg5
g88
sg6
V(1)\u8840\u5e38\u89c4:[\u767d\u7ec6\u80de\u603b\u6570\u53ca\u4e2d\u6027\u7c92\u7ec6\u80de\u589e\u9ad8\uff0c\u4f46\u53d1\u70ed\u4ec5\u6570\u5c0f\u65f6\u7684\u60a3\u513f\u53ef\u4ee5\u4e0d\u9ad8](2)\u5927\u4fbf\u5e38\u89c4:[\u53ef\u89c1\u6210\u5806\u767d\u7ec6\u80de\u3001\u541e\u566c\u7ec6\u80de\u548c\u7ea2\u7ec6\u80de\u3002\u5c1a\u65e0\u8179\u6cfb\u7684\u65e9\u671f\u75c5\u4f8b\uff0c\u5e94\u7528\u751f\u7406\u76d0\u6c34\u704c\u80a0\u540e\u4f5c\u7caa\u4fbf\u68c0\u67e5\u3002\u7caa\u4fbf\u5e38\u89c4\u4e00\u6b21\u6b63\u5e38\uff0c\u4e0d\u80fd\u6392\u9664\u8be5\u75c5\u7684\u8bca\u65ad\uff0c\u9700\u8981\u590d\u67e5](3)\u5927\u4fbf\u57f9\u517b:[\u53ef\u5206\u79bb\u51fa\u5fd7\u8d3a\u83cc\u5c5e\u75e2\u75be\u6746\u83cc](4)\u7279\u5f02\u6027\u6838\u9178\u68c0\u6d4b:[\u91c7\u7528\u6838\u9178\u6742\u4ea4\u6216\u805a\u5408\u9176\u94fe\u53cd\u5e94\u53ef\u76f4\u63a5\u68c0\u67e5\u5927\u4fbf\u4e2d\u7684\u75e2\u75be\u6746\u83cc\u6838\u9178\uff0c\u5176\u7075\u654f\u5ea6\u8f83\u9ad8\uff0c\u7279\u5f02\u6027\u8f83\u5f3a\uff0c\u5feb\u6377\u65b9\u4fbf\uff0c\u662f\u8f83\u6709\u53d1\u5c55\u524d\u9014\u7684\u68c0\u6d4b\u65b9\u6cd5]
p91
ssV\u8840\u7ba1\u8ff7\u8d70\u6027\u6655\u53a5
p92
(dp93
g3
V(1)\u5934\u6655$\u5934\u75bc$\u773c\u524d\u53d1\u9ed1$\u6076\u5fc3$\u8179\u75db$\u9762\u8272\u82cd\u767d$\u51fa\u6c57:[\u6655\u53a5\u5148\u5146\u75c7\u72b6](2)\u6655\u53a5:[\u5728\u4e00\u6bb5\u65f6\u95f4\u5185\u53ef\u53cd\u590d\u53d1\u4f5c\uff0c\u6301\u7eed\u65f6\u95f4\u591a\uff1c5\u5206\u949f\uff0c\u5e73\u5367\u540e\u610f\u8bc6\u8f83\u5feb\u6062\u590d](3)\u5168\u8eab\u65e0\u529b$\u5934\u6655$\u53e3\u6e34:[\u82cf\u9192\u540e]
p94
sg5
g92
sg6
V(1)\u76f4\u7acb\u503e\u659c\u8bd5\u9a8c:[\u5e2e\u52a9\u8bca\u65adVVS\u53ca\u8fdb\u884c\u4e0d\u540c\u8840\u6db2\u52a8\u529b\u5b66\u5206\u578b\u3002HUTT\u5305\u62ec\u57fa\u7840\u76f4\u7acb\u503e\u659c\u8bd5\u9a8c\u53ca\u836f\u7269\u6fc0\u53d1\u76f4\u7acb\u503e\u659c\u8bd5\u9a8c\uff0c\u513f\u7ae5\u9996\u9009\u6fc0\u53d1\u836f\u7269\u4e3a\u785d\u9178\u7518\u6cb9](2)\u5fc3\u7535\u56fe$\u8d85\u58f0\u5fc3\u52a8\u56fe$24\u5c0f\u65f6\u52a8\u6001\u5fc3\u7535\u56fe$\u8111\u7535\u56fe$\u5934\u9885\u5f71\u50cf\u5b66
p95
ssV\u94c5\u4e2d\u6bd2
p96
(dp97
g3
V(1)\u8179\u9690\u75db$\u4fbf\u79d8$\u8d2b\u8840$\u591a\u52a8$\u6613\u51b2\u52a8:[\u513f\u7ae5\u94c5\u4e2d\u6bd2\u53ef\u4f34\u6709\u67d0\u4e9b\u975e\u7279\u5f02\u7684\u4e34\u5e8a\u75c7\u72b6\uff0c\u5982\u8179\u9690\u75db\u3001\u4fbf\u79d8\u3001\u8d2b\u8840\u3001\u591a\u52a8\u3001\u6613\u51b2\u52a8\u7b49](2)\u660f\u8ff7$\u60ca\u53a5:[\u8840\u94c5\u7b49\u4e8e\u6216\u9ad8\u4e8e700\u03bcg/L\u65f6\uff0c\u53ef\u4f34\u6709\u660f\u8ff7\u3001\u60ca\u53a5\u7b49\u94c5\u4e2d\u6bd2\u8111\u75c5\u8868\u73b0]
p98
sg5
g96
sg6
V\u8840\u94c5\u68c0\u6d4b:[\u8fde\u7eed\u4e24\u6b21\u9759\u8109\u8840\u94c5\u6c34\u5e73\u4e3a100\uff5e199\u03bcg/L\u4e3a\u9ad8\u94c5\u8840\u75c7\uff1b\u8fde\u7eed\u4e24\u6b21\u9759\u8109\u8840\u94c5\u6c34\u5e73\u7b49\u4e8e\u6216\u9ad8\u4e8e200\u03bcg/L\u4e3a\u94c5\u4e2d\u6bd2]
p99
ssV\u65b0\u751f\u513f\u4f4e\u9499\u8840\u75c7
p100
(dp101
g3
V(1)\u591a\u51fa\u73b0\u4e8e\u751f\u540e5\uff5e10\u5929\u3002(2)\u547c\u5438\u6682\u505c$\u70e6\u8e81\u4e0d\u5b89$\u808c\u8089\u62bd\u52a8\u9707\u98a4$\u60ca\u8df3$\u60ca\u53a5$\u53d1\u7ec0(3)\u5455\u5410$\u4fbf\u8840$\u5598\u606f:[\u4e25\u91cd\u80c3\u80a0\u5e73\u6ed1\u808c\u75c9\u631b\u53ef\u81f4\u5455\u5410\u3001\u4fbf\u8840\u7b49\u80c3\u80a0\u9053\u75c7\u72b6\uff0c\u652f\u6c14\u7ba1\u75c9\u631b\u53ef\u81f4\u5598\u606f](4)\u808c\u5f20\u529b\u9ad8$\u8171\u53cd\u5c04\u589e\u5f3a$\u8e1d\u9635\u631b\u9633\u6027\u3002
p102
sg5
g100
sg6
V(1)\u8840\u751f\u5316\u68c0\u67e5:[\u8840\u6e05\u603b\u9499\uff1c1.75mmol/L(7mg/dl)\uff0c\u8840\u6e05\u6e38\u79bb\u9499\uff1c1mmol/L(4mg/dl)\uff0c\u8840\u6e05\u78f7\u5e38\uff1e2.6mmol/L(8mg/dl)\uff0c\u78b1\u6027\u78f7\u9178\u9176\u591a\u6b63\u5e38](2)\u5fc3\u7535\u56fe:[QT\u95f4\u671f\u5ef6\u957f](3)\u80f8\u7247:[\u770b\u4e0d\u5230\u80f8\u817a\u5f71\u53ef\u80fd\u63d0\u793aDiGeorge\u7efc\u5408\u5f81]
p103
ssV\u623f\u95f4\u9694\u7f3a\u635f
p104
(dp105
g3
V(1)\u75c7\u72b6:[1]\u5a74\u513f\u671f{1}\u65e0\u75c7\u72b6:[\u4e00\u822c\u7531\u5e38\u89c4\u4f53\u683c\u68c0\u67e5\u6216\u95fb\u53ca\u6742\u97f3\u800c\u53d1\u73b0\u6b64\u75c5][2]\u513f\u7ae5\u671f{1}\u4e4f\u529b$\u6d3b\u52a8\u540e\u6c14\u4fc3$\u4f53\u683c\u8f83\u5c0f$\u6d88\u7626$\u591a\u6c57{2}\u9752\u7d2b:[\u5f53\u54ed\u95f9\u3001\u60a3\u80ba\u708e\u6216\u5fc3\u529b\u8870\u7aed\u65f6\uff0c\u53f3\u5fc3\u623f\u538b\u529b\u53ef\u8d85\u8fc7\u5de6\u5fc3\u623f\uff0c\u51fa\u73b0\u6682\u65f6\u6027\u53f3\u5411\u5de6\u5206\u6d41\u800c\u5448\u73b0\u9752\u7d2b](2)\u4f53\u5f81:[1]\u53f3\u5fc3\u640f\u52a8\u589e\u5f3a$\u5fc3\u6d4a\u97f3\u754c\u6269\u5927\u3002[2]\u55b7\u5c04\u6027\u6742\u97f3:[\u7b2c\u4e00\u5fc3\u97f3\u6b63\u5e38\u6216\u5206\u88c2\uff0c\u540e\u8005\u4e3b\u8981\u7531\u4e8e\u4e8c\u5c16\u74e3\u5173\u95ed\u97f3\u63d0\u524d\u6240\u81f4\u3002\u901a\u8fc7\u80ba\u52a8\u8109\u74e3\u7684\u8840\u6d41\u589e\u52a0\uff0c\u9020\u6210\u80ba\u52a8\u8109\u74e3\u76f8\u5bf9\u72ed\u7a84\uff0c\u80f8\u9aa8\u5de6\u7f18\u7b2c2\u30013\u808b\u95f4\u4ea7\u751f\u6536\u7f29\u4e2d\u671f\u2161\uff5e\u2162\u7ea7\u55b7\u5c04\u6027\u6742\u97f3][3]\u7b2c\u4e8c\u5fc3\u97f3\u56fa\u5b9a\u5206\u88c2:[\u80ba\u52a8\u8109\u74e3\u5ef6\u8fdf\u5173\u95ed\uff0c\u4ea7\u751f\u4e0d\u53d7\u547c\u5438\u5f71\u54cd\u7684\u80ba\u52a8\u8109\u74e3\u533a\u7b2c\u4e8c\u5fc3\u97f3\u56fa\u5b9a\u5206\u88c2][4]\u6536\u7f29\u65e9\u671f\u5580\u5587\u97f3:[\u5206\u6d41\u91cf\u5927\u65f6\uff0c\u901a\u8fc7\u4e09\u5c16\u74e3\u7684\u8840\u6d41\u91cf\u589e\u591a\uff0c\u9020\u6210\u4e09\u5c16\u74e3\u76f8\u5bf9\u72ed\u7a84\uff0c\u80f8\u9aa8\u5de6\u7f18\u4e0b\u65b9\u53ef\u95fb\u53ca\u8212\u5f20\u671f\u9686\u9686\u6837\u6742\u97f3\u3002\u80ba\u52a8\u8109\u6269\u5f20\u660e\u663e\u6216\u6709\u80ba\u52a8\u8109\u9ad8\u538b\u8005\uff0c\u53ef\u5728\u80ba\u52a8\u8109\u74e3\u533a\u542c\u5230\u7b2c\u4e8c\u97f3\u4ea2\u8fdb\u548c\u6536\u7f29\u65e9\u671f\u5580\u5587\u97f3][5]\u5168\u6536\u7f29\u671f\u6216\u6536\u7f29\u665a\u671f\u6742\u97f3:[\u540c\u65f6\u5408\u5e76\u4e8c\u5c16\u74e3\u8131\u5782]\u3002(3)\u5e76\u53d1\u75c7:[\u80ba\u52a8\u8109\u9ad9\u538b\u3001\u623f\u6027\u5fc3\u5f8b\u5931\u5e38\u3001\u4e09\u5c16\u74e3\u6216\u4e8c\u5c16\u74e3\u7684\u5173\u95ed\u4e0d\u5168\u3001\u5fc3\u529b\u8870\u7aed\u3001\u611f\u67d3\u6027\u5fc3\u5185\u819c\u708e]
p106
sg5
g104
sg6
V(1)\u5fc3\u7535\u56fe:[\u7535\u8f74\u53f3\u504f\uff0c\u53f3\u5fc3\u5ba4\u80a5\u5927\uff0cQRS\u6ce2\u6837\u5448\u4e3arsR\u2019\u578b\uff0cP-R\u95f4\u671f\u53ef\u5ef6\u957f\u3002P\u6ce2\u9ad8\u5c16](2)X\u7ebf\u68c0\u67e5:[\u53f3\u5fc3\u623f\u3001\u53f3\u5fc3\u5ba4\u3001\u80ba\u52a8\u8109\u5747\u53ef\u6269\u5927\uff0c\u80ba\u95e8\u8840\u7ba1\u5f71\u589e\u7c97\uff0c\u640f\u52a8\u5f3a\u70c8\uff0c\u900f\u89c6\u4e0b\u53ef\u89c1\u80ba\u52a8\u8109\u603b\u5e72\u53ca\u5206\u652f\u968f\u5fc3\u810f\u640f\u52a8\u800c\u4e00\u660e\u4e00\u6697\u7684\u201c\u80ba\u95e8\u821e\u8e48\u201d\u5f81\u3002\u539f\u53d1\u5b54\u578b\u623f\u7f3a\u4e8c\u5c16\u74e3\u6709\u4e25\u91cd\u53cd\u6d41\u65f6\uff0c\u5de6\u5fc3\u623f\u3001\u5de6\u5fc3\u5ba4\u6269\u5927](3)\u8d85\u58f0\u5fc3\u52a8\u56fe:[\u53f3\u5fc3\u623f\u3001\u53f3\u5fc3\u5ba4\u3001\u53f3\u5fc3\u5ba4\u6d41\u51fa\u9053\u6269\u5927\uff0c\u5ba4\u95f4\u9694\u4e0e\u5de6\u5fc3\u5ba4\u540e\u58c1\u5448\u77db\u76fe\u8fd0\u52a8(\u5373\u540c\u5411\u8fd0\u52a8)\uff0c\u7cfb\u53f3\u5fc3\u5ba4\u8212\u5f20\u671f\u5bb9\u91cf\u8d1f\u8377\u8fc7\u91cd\u6240\u81f4\u3002\u4e8c\u7ef4\u8d85\u58f0\u5fc3\u52a8\u56fe\u53ef\u76f4\u63a5\u63a2\u6d4b\u5230\u623f\u95f4\u9694\u7f3a\u635f\u7684\u90e8\u4f4d\u53ca\u5927\u5c0f\uff0c\u901a\u8fc7\u53e0\u52a0\u8109\u51b2\u548c\u5f69\u8272\u591a\u666e\u52d2\u89c2\u5bdf\u8840\u6d41\u7279\u70b9\u53ef\u8fdb\u4e00\u6b65\u660e\u786e\u8bca\u65ad\u3002\u5927\u591a\u6570\u5355\u7eaf\u623f\u95f4\u9694\u7f3a\u635f\u7ecf\u8d85\u58f0\u5fc3\u52a8\u56fe\u68c0\u67e5\u540e\u53ef\u660e\u786e\u8bca\u65ad\uff0c\u65e0\u9700\u5fc3\u5bfc\u7ba1\u68c0\u67e5\u800c\u53ef\u76f4\u63a5\u63a5\u53d7\u77eb\u6cbb\u624b\u672f](4)\u5fc3\u5bfc\u7ba1\u68c0\u67e5:[\u5f53\u4e34\u5e8a\u8d44\u6599\u4e0e\u8bca\u65ad\u4e0d\u4e00\u81f4\uff0c\u6216\u6000\u7591\u6709\u4e25\u91cd\u80ba\u52a8\u8109\u9ad8\u538b\u5b58\u5728\uff0c\u9700\u505a\u5fc3\u5bfc\u7ba1\u68c0\u67e5\u3002\u53f3\u5fc3\u5bfc\u7ba1\u53ef\u53d1\u73b0\u53f3\u5fc3\u623f\u8840\u6c27\u542b\u91cf\u8f83\u4e0a\u3001\u4e0b\u8154\u9759\u8109\u5e73\u5747\u8840\u6c27\u9ad8\u3002\u5bfc\u7ba1\u53ef\u901a\u8fc7\u7f3a\u635f\u7ecf\u53f3\u5fc3\u623f\u8fdb\u5165\u5de6\u5fc3\u623f\uff0c\u8fd8\u80fd\u4e86\u89e3\u80ba\u52a8\u8109\u538b\u529b\u3001\u963b\u529b\u53ca\u5206\u6d41\u5927\u5c0f]
p107
ssV\u53f3\u4f4d\u5fc3
p108
(dp109
g3
V(1)\u65e0\u75c7\u72b6:[\u5355\u7eaf\u955c\u50cf\u53f3\u4f4d\u5fc3\uff0c\u4e0d\u4f34\u5176\u4ed6\u5fc3\u810f\u7578\u5f62\u8005\uff0c\u623f\u5ba4\u8154\u4e0e\u5927\u52a8\u8109\u5173\u7cfb\u6b63\u5e38\uff0c\u4e00\u822c\u65e0\u4efb\u4f55\u75c7\u72b6\uff0c\u4ec5\u5728\u4f53\u683c\u68c0\u67e5\u65f6\u53d1\u73b0]
p110
sg5
g108
sg6
V(1)\u5fc3\u7535\u56fe:[QRS\u4e3b\u6ce2\u5411\u4e0b\uff0c\u2160\u5bfc\u8054P\u6ce2\u5012\u7f6e\uff0c\u2165\u5bfc\u8054P\u6ce2\u5012\u7f6e\uff0caVR\u5bfc\u8054P\u76f4\u7acb\uff1b\u2161\u5bfc\u8054\u4e92\u6362\uff0c\u2162\u5bfc\u8054\u4e92\u6362\uff0caVR\u6ce2\u4e92\u6362\uff0caVL\u6ce2\u4e92\u6362\uff1bV1\uff5eV6R\u6ce2\u6e10\u51cf\u5c0f\uff0cS\u6ce2\u6e10\u589e\u6df1\uff0cR/S\u6bd4\u4f8b\u6e10\u51cf\u5c0f](2)X\u7ebf\u68c0\u67e5:[\u955c\u50cf\u53f3\u4f4d\u5fc3\u4f34\u5168\u90e8\u5185\u810f\u53cd\u4f4d\u8005\uff0cX\u7ebf\u53ef\u89c1\u5fc3\u5f71\u504f\u53f3\u4fa7\uff0c\u80c3\u6ce1\u4f4d\u4e8e\u53f3\u4e0a\u8179\uff0c\u809d\u5728\u5de6\u4fa7\uff0c\u5176\u4ed6\u8179\u8154\u810f\u5668\u4e5f\u90fd\u5de6\u53f3\u98a0\u5012\u3002\u5185\u810f\u4e0d\u8f6c\u4f4d\u8005\uff0c\u5219X\u7ebf\u53ef\u89c1\u5fc3\u5f71\u5728\u53f3\u4fa7\uff0c\u4f46\u80c3\u6ce1\u4ecd\u5728\u5de6\u4e0a\u8179\u90e8](3)\u8d85\u58f0\u5fc3\u52a8\u56fe:[\u663e\u793a\u5fc3\u810f\u7684\u5927\u90e8\u5206\u548c\u5fc3\u5c16\u4f4d\u4e8e\u53f3\u4fa7\u80f8\u8154\uff0c\u53ef\u5224\u5b9a\u5fc3\u623f\u65b9\u4f4d\u3001\u623f\u5ba4\u8fde\u63a5\u3001\u5fc3\u5ba4\u5f62\u6001\u53ca\u5fc3\u5ba4\u5927\u52a8\u8109\u8fde\u63a5\uff0c\u5e76\u663e\u793a\u76f8\u5173\u7684\u5fc3\u5185\u7578\u5f62\u5982\u74e3\u819c\u3001\u74e3\u73af\u3001\u623f\u5ba4\u95f4\u9694\u7684\u6539\u53d8\u53ca\u5fc3\u5185\u5f02\u5e38\u8840\u6d41](4)\u5fc3\u5bfc\u7ba1\u68c0\u67e5\u53ca\u5fc3\u8840\u7ba1\u9020\u5f71:[\u4f34\u6709\u590d\u6742\u5fc3\u8840\u7ba1\u7578\u5f62\u65f6\u9700\u8981\u4f5c\u5fc3\u5bfc\u7ba1\u68c0\u67e5\u53ca\u5fc3\u8840\u7ba1\u9020\u5f71\u4ee5\u534f\u52a9\u8bca\u65ad]
p111
ssV\u4fb5\u88ad\u6027\u7ec6\u83cc\u5f15\u8d77\u7684\u80a0\u708e
p112
(dp113
g3
V(1)\u6025\u6027\u8d77\u75c5(2)\u9ad8\u70ed$\u70ed\u60ca\u53a5\u3002(3)\u8179\u6cfb:[\u5927\u4fbf\u5448\u9ecf\u6db2\u72b6\uff0c\u5e26\u8113\u8840\uff0c\u6709\u8165\u81ed\u5473](4)\u6076\u5fc3$\u5455\u5410$\u8179\u75db$\u91cc\u6025\u540e\u91cd$\u9ad8\u70ed$\u610f\u8bc6\u6539\u53d8$\u611f\u67d3\u6027\u4f11\u514b\u3002(5)\u6dcb\u5df4\u7ed3\u80bf\u5927(6)\u6df1\u7eff\u8272\u9ecf\u6db2\u8113\u4fbf$\u767d\u8272\u80f6\u51bb\u6837\u4fbf:[\u9f20\u4f24\u5bd2\u6c99\u95e8\u83cc\u5c0f\u80a0\u7ed3\u80a0\u708e]
p114
sg5
g112
sg6
V(1)\u5927\u4fbf\u955c\u68c0:[\u6709\u5927\u91cf\u767d\u7ec6\u80de\u53ca\u6570\u91cf\u4e0d\u7b49\u7684\u7ea2\u7ec6\u80de\u3002\u7caa\u4fbf\u7ec6\u83cc\u57f9\u517b\u53ef\u627e\u5230\u76f8\u5e94\u7684\u81f4\u75c5\u83cc]
p115
ssV\u91cd\u578b\u03b1\u5730\u4e2d\u6d77\u8d2b\u8840
p116
(dp117
g3
V(1)\u6d41\u4ea7$\u6b7b\u80ce$\u5a29\u51fa\u540e\u534a\u5c0f\u65f6\u5185\u6b7b\u4ea1(2)\u91cd\u5ea6\u8d2b\u8840$\u9ec4\u75b8$\u6c34\u80bf$\u809d\u813e\u80bf\u5927$\u8179\u6c34$\u80f8\u6c34$\u80ce\u76d8\u5de8\u5927\u4e14\u8d28\u8106\u3002
p118
sg5
g116
sg6
V(2)\u8840\u5e38\u89c4:[\u5916\u5468\u8840\u6210\u719f\u7ea2\u7ec6\u80de\u5f62\u6001\u6539\u53d8\u5982\u91cd\u578b\u03b2\u5730\u8d2b\uff0c\u6709\u6838\u7ea2\u7ec6\u80de\u548c\u7f51\u7ec7\u7ea2\u7ec6\u80de\u660e\u663e\u589e\u9ad8\u3002\u8840\u7ea2\u86cb\u767d\u4e2d\u51e0\u4e4e\u5168\u662fHb Bart\u6216\u540c\u65f6\u6709\u5c11\u91cfHbH\uff0c\u65e0HbA\u3001HbA2\u548cHbF]
p119
ssV\u65b0\u751f\u513f\u6eb6\u8840\u75c5
p120
(dp121
g3
V(1)\u9ec4\u75b8:[\u5927\u591a\u6570Rh\u6eb6\u8840\u75c5\u60a3\u513f\u751f\u540e24\u5c0f\u65f6\u5185\u51fa\u73b0\u9ec4\u75b8\u5e76\u8fc5\u901f\u52a0\u91cd\uff0c\u800c\u591a\u6570ABO\u6eb6\u8840\u75c5\u5728\u7b2c2\uff5e3\u5929\u51fa\u73b0\u3002\u8840\u6e05\u80c6\u7ea2\u7d20\u4ee5\u672a\u7ed3\u5408\u578b\u4e3a\u4e3b\uff0c\u4f46\u5982\u6eb6\u8840\u4e25\u91cd\uff0c\u9020\u6210\u80c6\u6c41\u6de4\u79ef\uff0c\u7ed3\u5408\u80c6\u7ea2\u7d20\u4e5f\u53ef\u5347\u9ad8](2)\u8d2b\u8840:[\u7a0b\u5ea6\u4e0d\u4e00\u3002\u91cd\u75c7Rh\u6eb6\u8840\uff0c\u751f\u540e\u5373\u53ef\u6709\u4e25\u91cd\u8d2b\u8840\u6216\u4f34\u6709\u5fc3\u529b\u8870\u7aed\u3002\u90e8\u5206\u60a3\u513f\u56e0\u5176\u6297\u4f53\u6301\u7eed\u5b58\u5728\uff0c\u4e5f\u53ef\u4e8e\u751f\u540e3\uff5e6\u5468\u53d1\u751f\u665a\u671f\u8d2b\u8840](3)\u809d\u813e\u5927:[Rh\u6eb6\u8840\u75c5\u60a3\u513f\u591a\u6709\u4e0d\u540c\u7a0b\u5ea6\u7684\u809d\u813e\u589e\u5927\uff0cABO\u6eb6\u8840\u75c5\u60a3\u513f\u5219\u4e0d\u660e\u663e](4)\u80c6\u7ea2\u7d20\u8111\u75c5:[\u4e3a\u65b0\u751f\u513f\u6eb6\u8840\u75c5\u6700\u4e25\u91cd\u7684\u5e76\u53d1\u75c7\uff0c\u4e3b\u8981\u89c1\u4e8e\u8840\u6e05\u603b\u80c6\u7ea2\u7d20(TSB)\uff1e20mg/dl(342\u03bcmol/L)\u6216(\u548c)\u4e0a\u5347\u901f\u5ea6\uff1e0.5mg/dl(8.5\u03bcmol/L)\u3001\u80ce\u9f84 \uff1e35\u5468\u65b0\u751f\u513f\uff1b\u4f4e\u51fa\u751f\u4f53\u91cd\u513f\u751a\u81f3\u572810\uff5e14mg/dl(171\uff5e239\u03bcmol/L)\u4e5f\u53ef\u53d1\u751f\uff1b\u591a\u4e8e\u751f\u540e4\uff5e7\u5929\u51fa\u73b0\u75c7\u72b6\u3002\u5f53\u672a\u7ed3\u5408\u80c6\u7ea2\u7d20\u6c34\u5e73\u8fc7\u9ad8\uff0c\u900f\u8fc7\u8840-\u8111\u5c4f\u969c\uff0c\u53ef\u9020\u6210\u4e2d\u67a2\u795e\u7ecf\u7cfb\u7edf\u529f\u80fd\u969c\u788d\uff0c\u5982\u4e0d\u7ecf\u6cbb\u7597\u5e72\u9884\uff0c\u53ef\u9020\u6210\u6c38\u4e45\u6027\u635f\u5bb3\u3002\u80c6\u7ea2\u7d20\u5e38\u9020\u6210\u57fa\u5e95\u795e\u7ecf\u8282\u3001\u6d77\u9a6c\u3001\u4e0b\u4e18\u8111\u795e\u7ecf\u6838\u548c\u5c0f\u8111\u795e\u7ecf\u5143\u574f\u6b7b\uff1b\u5c38\u4f53\u89e3\u5256\u53ef\u89c1\u76f8\u5e94\u7684\u795e\u7ecf\u6838\u9ec4\u67d3\uff0c\u6545\u53c8\u79f0\u4e3a\u6838\u9ec4\u75b8]
p122
sg5
g120
sg6
V(1)\u6bcd\u5b50\u8840\u578b\u68c0\u67e5:[\u68c0\u67fb\u6bcd\u5b50ABO\u548cRh\u8840\u578b\uff0c\u8bc1\u5b9e\u6709\u8840\u578b\u4e0d\u5408\u5b58\u5728](2)\u6eb6\u8840\u68c0\u67e5:[\u6eb6\u8840\u65f6\u7ea2\u7ec6\u80de\u548c\u8840\u7ea2\u86cb\u767d\u51cf\u5c11\uff0c\u65e9\u671f\u65b0\u751f\u513f\u8840\u7ea2\u86cb\u767d\uff1c145g/L\u53ef\u8bca\u65ad\u4e3a\u8d2b\u8840\uff1b\u7f51\u7ec7\u7ea2\u7ec6\u80de\u589e\u9ad8(\uff1e6%)\uff1b\u8840\u6d82\u7247\u6709\u6838\u7ea2\u7ec6\u80de\u589e\u591a(\uff1e10/100\u4e2a\u767d\u7ec6\u80de)\u3001\u7403\u5f62\u7ea2\u7ec6\u80de\u589e\u591a\uff1b\u8840\u6e05\u603b\u80c6\u7ea2\u7d20\u548c\u672a\u7ed3\u5408\u80c6\u7ea2\u7d20\u660e\u663e\u589e\u52a0](3)\u547c\u51fa\u6c14\u4e00\u6c27\u5316\u78b3\u542b\u91cf\u6d4b\u5b9a:[\u8840\u7ea2\u7d20\u5728\u5f62\u6210\u80c6\u7ea2\u7d20\u7684\u8fc7\u7a0b\u4e2d\u4f1a\u91ca\u653e\u51faCO\u3002\u6d4b\u5b9a\u547c\u51fa\u6c14\u4e2dCO\u7684\u542b\u91cf\u53ef\u4ee5\u53cd\u5e94\u80c6\u7ea2\u7d20\u751f\u6210\u7684\u901f\u5ea6\uff0c\u56e0\u6b64\u5728\u6eb6\u8840\u75c7\u60a3\u513f\u53ef\u7528\u4ee5\u9884\u6d4b\u53d1\u751f\u91cd\u5ea6\u9ad8\u80c6\u7ea2\u7d20\u8840\u75c7\u7684\u53ef\u80fd\u3002\u82e5\u6ca1\u6709\u6761\u4ef6\u6d4b\u5b9aETCOc\uff0c\u68c0\u6d4b\u8840\u6db2\u4e2d\u78b3\u6c27\u8840\u7ea2\u86cb\u767d(COHb)\u6c34\u5e73\u4e5f\u53ef\u4f5c\u4e3a\u80c6\u7ea2\u7d20\u751f\u6210\u7684\u60c5\u51b5\u7684\u53c2\u8003](4)\u81f4\u654f\u7ea2\u7ec6\u80de\u548c\u8840\u578b\u6297\u4f53\u6d4b\u5b9a[1]\u6539\u826f\u76f4\u63a5\u6297\u4eba\u7403\u86cb\u767d\u8bd5\u9a8c:[\u662f\u7528\u201c\u6700\u9002\u7a00\u91ca\u5ea6\u201d\u7684\u6297\u4eba\u7403\u86cb\u767d\u8840\u6e05\u4e0e\u5145\u5206\u6d17\u6da4\u540e\u7684\u53d7\u68c0\u7ea2\u7ec6\u80de\u76d0\u6c34\u60ac\u6db2\u6df7\u5408\uff0c\u5982\u6709\u7ea2\u7ec6\u80de\u51dd\u805a\u4e3a\u9633\u6027\uff0c\u8868\u660e\u7ea2\u7ec6\u80de\u5df2\u81f4\u654f\u3002\u8be5\u9879\u4e3a\u786e\u8bca\u5b9e\u9a8c\u3002Rh\u6eb6\u8840\u75c5\u5176\u9633\u6027\u7387\u9ad8\u800cABO\u6eb6\u8840\u75c5\u9633\u6027\u7387\u4f4e][2]\u6297\u4f53\u91ca\u653e\u8bd5\u9a8c:[\u901a\u8fc7\u52a0\u70ed\u4f7f\u60a3\u513f\u8840\u4e2d\u81f4\u654f\u7ea2\u7ec6\u80de\u7684\u8840\u578b\u6297\u4f53\u91ca\u653e\u4e8e\u91ca\u653e\u6db2\u4e2d\uff0c\u5c06\u4e0e\u60a3\u513f\u76f8\u540c\u8840\u578b\u7684\u6210\u4eba\u7ea2\u7ec6\u80de(ABO\u7cfb\u7edf)\u6216O\u578b\u6807\u51c6\u7ea2\u7ec6\u80de(Rh\u7cfb\u7edf)\u52a0\u5165\u91ca\u653e\u6db2\u4e2d\u81f4\u654f\uff0c\u518d\u52a0\u5165\u6297\u4eba\u7403\u86cb\u767d\u8840\u6e05\uff0c\u5982\u6709\u7ea2\u7ec6\u80de\u51dd\u805a\u4e3a\u9633\u6027\u3002\u662f\u68c0\u6d4b\u81f4\u654f\u7ea2\u7ec6\u80de\u7684\u654f\u611f\u8bd5\u9a8c\uff0c\u4e5f\u4e3a\u786e\u8bca\u5b9e\u9a8c\u3002Rh\u548cABO\u6eb6\u8840\u75c5\u4e00\u822c\u5747\u4e3a\u9633\u6027][3]\u6e38\u79bb\u6297\u4f53\u8bd5\u9a8c:[\u5728\u60a3\u513f\u8840\u6e05\u4e2d\u52a0\u5165\u4e0e\u5176\u76f8\u540c\u8840\u578b\u7684\u6210\u4eba\u7ea2\u7ec6\u80de(ABO\u7cfb\u7edf)\u6216O\u578b\u6807\u51c6\u7ea2\u7ec6\u80de(Rh\u7cfb\u7edf)\u81f4\u654f\uff0c\u518d\u52a0\u5165\u6297\u4eba\u7403\u86cb\u767d\u8840\u6e05\uff0c\u5982\u6709\u7ea2\u7ec6\u80de\u51dd\u805a\u4e3a\u9633\u6027\u3002\u8868\u660e\u8840\u6e05\u4e2d\u5b58\u5728\u6e38\u79bb\u7684ABO\u6216Rh\u8840\u578b\u6297\u4f53\uff0c\u5e76\u53ef\u80fd\u4e0e\u7ea2\u7ec6\u80de\u7ed3\u5408\u5f15\u8d77\u6eb6\u8840\u3002\u6b64\u9879\u5b9e\u9a8c\u6709\u52a9\u4e8e\u4f30\u8ba1\u662f\u5426\u7ee7\u7eed\u6eb6\u8840\u3001\u6362\u8840\u540e\u7684\u6548\u679c\uff0c\u4f46\u4e0d\u662f\u786e\u8bca\u8bd5\u9a8c]
p123
ssV\u65b0\u751f\u513f\u7a92\u606f
p124
(dp125
g3
V(1)\u80ce\u513f\u5bab\u5185\u7a98\u8feb[1]\u80ce\u52a8\u589e\u52a0$\u80ce\u5fc3\u589e\u5feb$\u80ce\u5fc3\u7387\u2265160\u6b21/\u5206:[\u65e9\u671f][2]\u80ce\u52a8\u51cf\u5c11(\uff1c20\u6b21/12\u5c0f\u65f6)$\u80ce\u5fc3\u51cf\u6162$\u80ce\u5fc3\u7387\uff1c100\u6b21/\u5206:[\u665a\u671f][3]\u5fc3\u810f\u505c\u640f:[\u4e25\u91cd\u65f6][4]\u7f8a\u6c34\u5448\u9ec4\u7eff\u8272:[\u7a92\u606f\u53ef\u5bfc\u81f4\u809b\u95e8\u62ec\u7ea6\u808c\u677e\u5f1b\uff0c\u6392\u51fa\u80ce\u4fbf\uff0c\u4f7f\u7f8a\u6c34\u5448\u9ec4\u7eff\u8272](2)\u7a92\u606f\u7a0b\u5ea6\u5224\u5b9a:[Apgar\u8bc4\u5206\u662f\u4e34\u5e8a\u8bc4\u4ef7\u51fa\u751f\u7a92\u606f\u7a0b\u5ea6\u7684\u7ecf\u5178\u800c\u7b80\u6613\u65b9\u6cd5][1]\u8bc4\u4ef7\u65f6\u95f4:[\u5206\u522b\u4e8e\u751f\u540e1\u5206\u949f\u548c5\u5206\u949f\u8fdb\u884c][2]\u8bc4\u4ef7\u5185\u5bb9:[\u5305\u62ec\u76ae\u80a4\u989c\u8272\u3001\u5fc3\u7387\u3001\u5bf9\u523a\u6fc0\u7684\u53cd\u5e94\u3001\u808c\u5f20\u529b\u3001\u547c\u5438]{1}0\u5206:[\u76ae\u80a4\u9752\u7d2b\u6216\u82cd\u767d\uff0c\u5fc3\u7387\u65e0\uff0c\u5f39\u8db3\u5e95\u6216\u63d2\u9f3b\u7ba1\u540e\u65e0\u53cd\u5e94\uff0c\u808c\u5f20\u529b\u677e\u5f1b\uff0c\u547c\u5438\u65e0]{2}1\u5206:[\u8eaf\u5e72\u7ea2\uff0c\u56db\u80a2\u7d2b\uff0c\u5fc3\u7387\u5c0f\u4e8e100\u6b21/\u5206\uff0c\u5f39\u8db3\u5e95\u6216\u63d2\u9f3b\u7ba1\u540e\u6709\u76b1\u7709\u52a8\u4f5c\uff0c\u56db\u80a2\u7565\u5c48\u66f2\uff0c\u547c\u5438\u6162\u4e14\u4e0d\u89c4\u5219]{3}2\u5206:[\u5168\u8eab\u76ae\u80a4\u7ea2\uff0c\u5fc3\u7387\u5927\u4e8e100\u6b21/\u5206\uff0c\u5f39\u8db3\u5e95\u6216\u63d2\u9f3b\u7ba1\u540e\u54ed\u6216\u55b7\u568f\uff0c\u56db\u80a2\u6d3b\u52a8\uff0c\u547c\u5438\u6b63\u5e38\uff0c\u54ed\u58f0\u54cd][3]\u8bc4\u4ef7\u6807\u51c6:[\u6bcf\u98790\uff5e2\u5206\uff0c\u603b\u517110\u5206\u30021\u5206\u949fApgar\u8bc4\u52068\uff5e10\u4e3a\u6b63\u5e38\uff0c4\uff5e7\u5206\u4e3a\u8f7b\u5ea6\u7a92\u606f\uff0c0\uff5e3\u5206\u4e3a\u91cd\u5ea6\u7a92\u606f][4]\u8bc4\u4f30\u7684\u610f\u4e49:[1\u5206\u949f\u8bc4\u5206\u53cd\u6620\u7a92\u606f\u4e25\u91cd\u7a0b\u5ea6\uff0c5\u5206\u949f\u8bc4\u5206\u9664\u53cd\u6620\u7a92\u606f\u4e25\u91cd\u7a0b\u5ea6\u5916\uff0c\u8fd8\u53ef\u53cd\u6620\u7a92\u606f\u590d\u82cf\u7684\u6548\u679c\u53ca\u5e2e\u52a9\u5224\u65ad\u9884\u540e][5]\u6ce8\u610f\u4e8b\u9879:[\u5e94\u5ba2\u89c2\u3001\u5feb\u901f\u53ca\u51c6\u786e\u8fdb\u884c\u8bc4\u4f30\uff1b\u80ce\u9f84\u5c0f\u7684\u65e9\u4ea7\u513f\u6210\u719f\u5ea6\u4f4e\uff0c\u867d\u65e0\u7a92\u606f\uff0c\u4f46\u8bc4\u5206\u8f83\u4f4e\uff1b\u5b55\u6bcd\u5e94\u7528\u9547\u9759\u836f\u7b49\uff0c\u8bc4\u5206\u53ef\u8f83\u5b9e\u9645\u7684\u4f4e]
p126
sg5
g124
sg6
V(1)\u8840\u6c14\u5206\u6790:[\u5bf9\u5bab\u5185\u7f3a\u6c27\u80ce\u513f\uff0c\u80ce\u5934\u9732\u51fa\u5bab\u53e3\u65f6\u53d6\u5934\u76ae\u8840\u8fdb\u884c\u8840\u6c14\u5206\u6790\uff0c\u4ee5\u4f30\u8ba1\u5bab\u5185\u7f3a\u6c27\u7a0b\u5ea6](2)\u52a8\u8109\u8840\u6c14$\u8840\u7cd6$\u7535\u89e3\u8d28$\u8840\u5c3f\u7d20\u6c2e$\u808c\u9150:[\u68c0\u6d4b\u6307\u6807]
p127
ssV\u5206\u79bb\u7126\u8651\u969c\u788d
p128
(dp129
g3
V(1)\u8fc7\u5206\u62c5\u5fc3\u4e0e\u4f9d\u9644\u5bf9\u8c61:[\u591a\u4e3a\u60a3\u513f\u7684\u6bcd\u4eb2\uff0c\u4e5f\u53ef\u4ee5\u662f\u60a3\u513f\u7684\u7236\u4eb2\u3001\u7956\u7236\u6bcd\u6216\u5176\u4ed6\u629a\u517b\u7167\u7ba1\u8005;\u5206\u79bb\u540e\uff0c\u4f9d\u9644\u5bf9\u8c61\u53ef\u80fd\u4f1a\u9047\u5230\u4f24\u5bb3\uff0c\u6216\u8005\u4e00\u53bb\u4e0d\u590d\u8fd4\uff1b\u8fc7\u5206\u62c5\u5fc3\u4f9d\u9644\u5bf9\u8c61\u4e0d\u5728\u8eab\u8fb9\u65f6\u81ea\u5df1\u4f1a\u8d70\u5931\u3001\u88ab\u7ed1\u67b6\u3001\u88ab\u6740\u5bb3\u6216\u4f4f\u9662\uff0c\u4ee5\u81f4\u518d\u4e5f\u89c1\u4e0d\u5230\u4eb2\u4eba\uff1b\u975e\u5e38\u5bb3\u6015\u4e0e\u4f9d\u9644\u8005\u5206\u79bb\u800c\u4e0d\u60f3\u4e0a\u5b66\uff0c\u751a\u81f3\u62d2\u7edd\u4e0a\u5b66\uff1b\u975e\u5e38\u5bb3\u6015\u4e00\u4e2a\u4eba\u72ec\u5904\uff0c\u6216\u6ca1\u6709\u4f9d\u9644\u5bf9\u8c61\u966a\u540c\u7edd\u5bf9\u4e0d\u5916\u51fa\u6d3b\u52a8\uff1b\u591c\u95f4\u6ca1\u6709\u4f9d\u9644\u5bf9\u8c61\u5728\u8eab\u8fb9\u5373\u4e0d\u613f\u610f\u4e0a\u5e8a\u5c31\u5bdd\uff0c\u6216\u53cd\u590d\u51fa\u73b0\u4e0e\u5206\u79bb\u6709\u5173\u7684\u5669\u68a6\uff0c\u4ee5\u81f4\u591a\u6b21\u60ca\u9192\uff1b\u4e0e\u4f9d\u9644\u5bf9\u8c61\u5206\u79bb\u65f6\u6216\u5206\u79bb\u540e\u51fa\u73b0\u8fc7\u5ea6\u7684\u60c5\u7eea\u53cd\u5e94\uff0c\u5982\u70e6\u8e81\u4e0d\u5b89\u3001\u54ed\u558a\u3001\u53d1\u813e\u6c14\u3001\u75db\u82e6\u3001\u6de1\u6f20\u6216\u793e\u4f1a\u6027\u9000\u7f29\uff0c\u6216\u6bcf\u6b21\u5206\u79bb\u65f6\u51fa\u73b0\u5934\u75db\u3001\u6076\u5fc3\u3001\u5455\u5410\u7b49\u8eaf\u4f53\u75c7\u72b6]
p130
sg5
g128
sg6
V(1)\u65e0
p131
ssV\u7898\u7f3a\u4e4f\u75c7
p132
(dp133
g3
V(1)\u6b7b\u80ce$\u65e9\u4ea7$\u5148\u5929\u6027\u7578\u5f62:[\u80ce\u513f\u671f\u7f3a\u7898\u53ef\u81f4\u6b7b\u80ce\u3001\u65e9\u4ea7\u53ca\u5148\u5929\u6027\u7578\u5f62](2)\u7532\u72b6\u817a\u529f\u80fd\u51cf\u9000:[\u65b0\u751f\u513f\u671f\u5219\u8868\u73b0\u4e3a\u7532\u72b6\u817a\u529f\u80fd\u51cf\u9000](3)\u667a\u529b\u635f\u5bb3$\u4f53\u683c\u53d1\u80b2\u969c\u788d:[\u513f\u7ae5\u548c\u9752\u6625\u671f\u5219\u5f15\u8d77\u5730\u65b9\u6027\u7532\u72b6\u817a\u80bf\u3001\u5730\u65b9\u6027\u7532\u72b6\u817a\u529f\u80fd\u51cf\u9000\u75c7\uff0c\u4e3b\u8981\u8868\u73b0\u4e3a\u513f\u7ae5\u667a\u529b\u635f\u5bb3\u548c\u4f53\u683c\u53d1\u80b2\u969c\u788d](4)\u4e9a\u4e34\u5e8a\u578b\u7532\u72b6\u817a\u529f\u80fd\u51cf\u9000\u75c7$\u4f53\u683c\u751f\u957f\u843d\u540e:[\u513f\u7ae5\u957f\u671f\u8f7b\u5ea6\u7f3a\u7898\u5219\u53ef\u51fa\u73b0\u4e9a\u4e34\u5e8a\u578b\u7532\u72b6\u817a\u529f\u80fd\u51cf\u9000\u75c7\uff0c\u5e38\u4f34\u6709\u4f53\u683c\u751f\u957f\u843d\u540e]
p134
sg5
g132
sg6
V(1)\u7532\u72b6\u817a\u80bf\u7387$\u5c3f\u7898$\u8840\u6d46TSH:[\u53ef\u7528\u4e8e\u4e2a\u4f53\u548c\u7fa4\u4f53\u7684\u7898\u8425\u517b\u72b6\u6001\u7684\u8bc4\u4f30](2)\u89e6\u8bca\u6cd5$B\u8d85:[\u5f53\u4e24\u8005\u8bca\u65ad\u7ed3\u679c\u4e0d\u4e00\u81f4\u65f6\uff0c\u4ee5B\u8d85\u6cd5\u7684\u8bca\u65ad\u7ed3\u679c\u4e3a\u51c6](3)\u5c3f\u7898\u6d53\u5ea6\u68c0\u6d4b:[\u662f\u8bc4\u4f30\u4eba\u7fa4\u7898\u8425\u517b\u72b6\u6001\u7684\u5f88\u597d\u7684\u6307\u6807\uff0c\uff1c20\u03bcg/L\u4e3a\u91cd\u5ea6\u7898\u7f3a\u4e4f\uff1b20\uff5e49\u03bcg/L\u4e3a\u4e2d\u5ea6\u7898\u7f3a\u4e4f\uff1b50\uff5e9\u03bcg/L\u4e3a\u8f7b\u5ea6\u7898\u7f3a\u4e4f\uff1b100\uff5e199\u03bcg/L\u4e3a\u6b63\u5e38\uff1b200\uff5e299\u03bcg/L\u4e3a\u5927\u4e8e\u6b63\u5e38\u503c\uff1b\u2265300\u03bcg/L\u4e3a\u7898\u8fc7\u91cf\u3002\u5168\u8840TSH\u53ef\u4f5c\u4e3a\u8bc4\u4ef7\u7898\u8425\u517b\u72b6\u6001\u7684\u95f4\u63a5\u6307\u6807\uff0c\u5e76\u88ab\u7528\u4e8e\u7b5b\u67e5\u65b0\u751f\u513f\u7532\u72b6\u817a\u529f\u80fd\u51cf\u9000\u75c7\uff0c\u5168\u8840TSH\u6b63\u5e38\u503c\u4e3a0.17\uff5e2.90\u03bcU/ml\u3002]
p135
ssV\u65b0\u751f\u513f\u8863\u539f\u4f53\u611f\u67d3
p136
(dp137
g3
V(1)\u5305\u6db5\u4f53\u7ed3\u819c\u708e$\u80ba\u708e$\u4e2d\u8033\u708e$\u9f3b\u54bd\u708e(2)\u8863\u539f\u4f53\u7ed3\u819c\u708e:[\u9634\u9053\u5206\u5a29\u65f6\u66b4\u9732\u4e8e\u8863\u539f\u4f53\u7684\u65b0\u751f\u513f\u5927\u7ea6\u4e09\u5206\u4e4b\u4e00\u51fa\u73b0\u8863\u539f\u4f53\u7ed3\u819c\u708e\uff0c\u5176\u6f5c\u4f0f\u671f\u4e00\u822c\u4e3a5\uff5e14\u5929\uff0c\u5206\u6ccc\u7269\u521d\u4e3a\u6d46\u6db2\u6027\uff0c\u5f88\u5feb\u8f6c\u4e3a\u8113\u6027\u3002\u773c\u7751\u80bf\u80c0\u660e\u663e\uff0c\u7ed3\u819c\u5145\u8840\u589e\u539a\uff0c\u4ee5\u4e0b\u7751\u7ed3\u819c\u548c\u4e0b\u7a79\u9686\u5904\u6700\u4e3a\u663e\u8457\uff0c\u53ef\u4ee5\u6709\u5047\u819c\u5f62\u6210\uff0c\u9020\u6210\u7247\u72b6\u7622\u75d5\u3002\u7531\u4e8e\u65b0\u751f\u513f\u7f3a\u4e4f\u6dcb\u5df4\u6837\u7ec4\u7ec7\uff0c\u6545\u6ee4\u6ce1\u589e\u751f\u5c11\u89c1\u3002\u89d2\u819c\u4e00\u822c\u4e0d\u53d7\u7d2f](3)\u8863\u539f\u4f53\u80ba\u708e:[\u53d1\u75c5\u8f83\u8fdf\uff0c\u5927\u591a\u4e8e\u751f\u540e2\uff5e4\u5468\u51fa\u73b0\u75c7\u72b6\u3002\u65e9\u671f\u8868\u73b0\u4e3a\u9f3b\u585e\u3001\u65e0\u70ed\u6216\u4f4e\u70ed\u7b49\u4e0a\u547c\u5438\u9053\u611f\u67d3\u75c7\u72b6\uff0c\u5e38\u65e0\u660e\u663e\u6d41\u6d95\uff0c\u534a\u6570\u75c5\u4eba\u4f34\u6709\u7ed3\u819c\u708e\u3002\u968f\u540e\u51fa\u73b0\u6c14\u4fc3\u3001\u547c\u5438\u6682\u505c\u6216\u9635\u53d1\u95f4\u65ad\u6027\u54b3\u55fd\uff0c\u751a\u81f3\u5f71\u54cd\u8fdb\u98df\u548c\u7761\u7720\u3002\u5438\u6c14\u65f6\u5e38\u6709\u7ec6\u6e7f\u5570\u97f3\u6216\u637b\u53d1\u97f3\uff0c\u5c11\u6709\u547c\u6c14\u6027\u5598\u9e23\u3002\u80f8\u90e8X\u7ebf\u8868\u73b0\u8f83\u4e34\u5e8a\u75c7\u72b6\u4e3a\u91cd\uff0c\u8868\u73b0\u4e3a\u80ba\u900f\u4eae\u5ea6\u589e\u9ad8\uff0c\u53cc\u4fa7\u5bf9\u79f0\u6027\u95f4\u8d28\u6d78\u6da6\uff0c\u7f55\u89c1\u80f8\u8154\u79ef\u6db2\u3002\u5e38\u6301\u7eed\u6570\u5468\u81f3\u6570\u6708\u3002\u5982\u4e0d\u6cbb\u7597\uff0c\u75c5\u7a0b\u8fc1\u5ef6\u6570\u5468\u81f3\u6570\u6708]
p138
sg5
g136
sg6
V(1)\u5b9e\u9a8c\u5ba4\u68c0\u67e5:[\u767d\u7ec6\u80de\u8ba1\u6570\u6b63\u5e38\uff0c\u55dc\u9178\u6027\u7ec6\u80de\u5e38\u589e\u591a](2)\u8840\u6e05\u5b66\u68c0\u67fb:[\u5bf9\u8863\u539f\u4f53\u80ba\u708e\u7684\u8bca\u65ad\u5f88\u6709\u5e2e\u52a9,\u51e0\u4e4e\u6240\u6709\u51fa\u73b0\u663e\u8457\u75c7\u72b6\u7684\u60a3\u513f\u8840\u6e05\u7279\u5f02\u6027IgM\u6297\u4f53\u90fd\u660e\u663e\u4e0a\u5347,\u4f46\u662fIgG\u6297\u4f53\u53ef\u80fd\u6765\u81ea\u6bcd\u4f53](3)PCR\u6280\u672f\u68c0\u6d4b:[\u5177\u6709\u8f83\u9ad8\u654f\u611f\u6027\u3002\u56e0\u6c99\u773c\u8863\u539f\u4f53\u5b58\u5728\u4e8e\u7ed3\u819c\u7684\u4e0a\u76ae\u7ec6\u80de\u5185\uff0c\u6545\u6807\u672c\u5e94\u53d6\u81ea\u773c\u4e0b\u7a79\u9686\u548c\u4e0b\u7751\u7ed3\u819c\u7684\u522e\u7247\uff0c\u800c\u975e\u8113\u6027\u5206\u6ccc\u7269\u3002\u522e\u7247\u7528\u59ec\u59c6\u8428\u67d3\u8272\u6216\u7898\u67d3\u8272\u53ef\u627e\u5230\u80de\u8d28\u5185\u5305\u6db5\u4f53\uff1b\u6216\u8005\u7528\u76f4\u63a5\u8367\u5149\u6297\u4f53\u6cd5\u6216\u9176\u8054\u514d\u75ab\u6cd5\u68c0\u6d4bCT\u6297\u539f\uff0c\u654f\u611f\u6027\u53ca\u7279\u5f02\u6027\u5747\u9ad8\uff0c\u8fbe95%\u4ee5\u4e0a\uff0c\u53ef\u7528\u4e8e\u8863\u539f\u4f53\u7ed3\u819c\u708e\u7684\u5feb\u901f\u8bca\u65ad]
p139
ssV\u65b0\u751f\u513f\u9885\u5185\u51fa\u8840
p140
(dp141
g3
V(1)\u4e00\u822c\u8868\u73b0[1]\u70e6\u8e81\u4e0d\u5b89$\u6fc0\u60f9$\u55dc\u7761$\u660f\u8ff7[2]\u547c\u5438\u8282\u5f8b\u4e0d\u89c4\u5219$\u547c\u5438\u6682\u505c\uff1b[3]\u9885\u9ad8\u538b:[\u524d\u56df\u9686\u8d77\uff0c\u8840\u538b\u589e\u9ad8\uff0c\u62bd\u6410\uff0c\u89d2\u5f13\u53cd\u5f20\uff0c\u8111\u6027\u5c16\u53eb][4]\u51dd\u89c6$\u659c\u89c6$\u773c\u7403\u9707\u98a4[5]\u77b3\u5b54\u4e0d\u7b49\u5927$\u5bf9\u5149\u53cd\u5c04\u6d88\u5931[6]\u539f\u59cb\u53cd\u5c04\u51cf\u5f31\u548c\u6d88\u5931\u3002[7]\u4e0d\u660e\u539f\u56e0\u7684\u4f4e\u4f53\u6e29$\u8d2b\u8840$\u9ec4\u75b8$\u9891\u7e41\u547c\u5438\u6682\u505c\u53ca\u4f11\u514b(2)\u5206\u578b:[1]\u8111\u5ba4\u5468\u56f4-\u8111\u5ba4\u5185\u51fa\u8840:[\u5e38\u89c1\u4e8e\u80ce\u9f84\uff1c32\u5468\u3001\u4f53\u91cd\uff1c1500g\u7684\u65e9\u4ea7\u513f\uff0c\u591a\u5728\u751f\u540e72\u5c0f\u65f6\u5185\u53d1\u751f\u3002\u53ef\u8868\u73b0\u4e3a\u547c\u5438\u6682\u505c\u3001\u55dc\u7761\u3001\u808c\u5f20\u529b\u51cf\u4f4e\u7b49\uff0c\u8fd8\u53ef\u4f34\u6709\u5fc3\u52a8\u8fc7\u7f13\u3001\u4f53\u6e29\u964d\u4f4e\u3001\u4ee3\u8c22\u6027\u9178\u4e2d\u6bd2\u3001\u4f4e\u8840\u538b\u7b49\uff0c\u4f46\u670925%\uff5e50%\u60a3\u513f\u53ef\u65e0\u660e\u663e\u75c7\u72b6\u3002\u6839\u636e\u5934\u9885B\u8d85\u6216CT\u68c0\u67e5\uff0c\u6309Papile\u5206\u5ea6\u6cd5\u5c06\u5176\u5206\u4e3a4\u7ea7:\u2160\u7ea7:\u5ba4\u7ba1\u819c\u4e0b\u80da\u80ce\u751f\u53d1\u5c42\u57fa\u8d28\u51fa\u8840\uff1b\u2161\u7ea7:SHE\u7834\u5165\u8111\u5ba4\uff0c\u5f15\u8d77\u8111\u5ba4\u5185\u51fa\u8840\uff0c\u4f46\u65e0\u8111\u5ba4\u6269\u5927\uff1b\u2162\u7ea7:\u8111\u5ba4\u5185\u51fa\u8840\u4f34\u8111\u5ba4\u6269\u5927\uff1b\u2163\u7ea7:\u2162\u7ea7\u51fa\u8840\u4f34\u53d1\u8111\u5b9e\u8d28\u51fa\u8840\u3002\u5176\u4e2d\u2162\u3001\u2163\u7ea7\u5e38\u7559\u6709\u795e\u7ecf\u7cfb\u7edf\u540e\u9057\u75c7][2]\u86db\u7f51\u819c\u4e0b\u8154\u51fa\u8840:[\u51fa\u8840\u591a\u6e90\u4e8e\u5c0f\u9759\u8109\uff0c\u5982\u86db\u7f51\u819c\u4e0b\u8154\u5185\u7684\u6865\u9759\u8109\u3002\u5e38\u4f4d\u4e8e\u5927\u8111\u8868\u9762\u548c\u9885\u540e\u7a9d\u5185\u3002\u8db3\u6708\u513f\u5e38\u7531\u4ea7\u4f24\u800c\u5f15\u8d77\uff0c\u65e9\u4ea7\u513f\u591a\u4e0e\u7a92\u606f\u7f3a\u6c27\u7b49\u6709\u5173\u3002\u5c11\u91cfSAH\u53ef\u65e0\u4e34\u5e8a\u75c7\u72b6\uff0c\u9884\u540e\u826f\u597d\u3002\u51fa\u8840\u4e25\u91cd\u8005\u8868\u73b0\u4e3a\u60ca\u53a5\u3001\u610f\u8bc6\u969c\u788d\u3001\u808c\u5f20\u529b\u51cf\u4f4e\u548c\u4e2d\u67a2\u6027\u547c\u5438\u8870\u7aed\uff0c\u751a\u81f3\u4e8e\u77ed\u671f\u5185\u6b7b\u4ea1\u3002\u4e2a\u522b\u51fa\u8840\u91cf\u8f83\u5927\u8005\u53ef\u56e0\u8111\u810a\u6db2\u7684\u5faa\u73af\u901a\u8def\u53d7\u963b\u6216\u5438\u6536\u969c\u788d\u800c\u5bfc\u81f4\u8111\u79ef\u6c34][3]\u786c\u819c\u4e0b\u51fa\u8840:[\u591a\u89c1\u4e8e\u5de8\u5927\u513f\u3001\u80ce\u4f4d\u5f02\u5e38\u3001\u96be\u4ea7\u6216\u4ea7\u94b3\u52a9\u4ea7\u8005\u3002\u56e0\u673a\u68b0\u6027\u635f\u4f24\u4f7f\u4e0a\u77e2\u72b6\u7aa6\u9644\u8fd1\u7684\u5927\u8111\u9570\u6216\u5c0f\u8111\u5e55\u6495\u88c2\uff0c\u9759\u8109\u7aa6\u548c\u5927\u8111\u8868\u6d45\u9759\u8109\u7834\u88c2\u5f15\u8d77\u7684\u51fa\u8840(\u56fe6-8-6)\u3002\u5c11\u91cf\u51fa\u8840\u53ef\u65e0\u75c7\u72b6\uff0c\u51fa\u8840\u91cf\u8f83\u5927\u8005\u5e38\u5728\u51fa\u751f24\u5c0f\u65f6\u540e\u51fa\u73b0\u60ca\u53a5\u3001\u504f\u762b\u548c\u659c\u89c6\u7b49\u795e\u7ecf\u7cfb\u7edf\u75c7\u72b6\u3002\u4e25\u91cd\u8005\u53ef\u5728\u51fa\u751f\u540e\u6570\u5c0f\u65f6\u5185\u6b7b\u4ea1\u3002\u4e5f\u6709\u60a3\u513f\u5728\u65b0\u751f\u513f\u671f\u75c7\u72b6\u4e0d\u660e\u663e\uff0c\u6570\u6708\u540e\u53d1\u751f\u6162\u6027\u7684\u786c\u819c\u4e0b\u79ef\u6db2][4]\u8111\u5b9e\u8d28\u51fa\u8840:[\u5e38\u89c1\u4e8e\u8db3\u6708\u513f\u3002\u591a\u7531\u4e8e\u5c0f\u9759\u8109\u6813\u585e\u540e\uff0c\u6bdb\u7ec6\u8840\u7ba1\u538b\u529b\u589e\u9ad8\u5bfc\u81f4\u7834\u88c2\u800c\u51fa\u8840\u3002tag_lcbx\u4e0e\u51fa\u8840\u90e8\u4f4d\u548c\u51fa\u8840\u91cf\u591a\u5c11\u5bc6\u5207\u76f8\u5173\u3002\u82e5\u51fa\u8840\u4f4d\u4e8e\u8111\u5e72\uff0c\u65e9\u671f\u53ef\u89c1\u77b3\u5b54\u53d8\u5316\u3001\u547c\u5438\u4e0d\u89c4\u5219\u548c\u5fc3\u52a8\u8fc7\u7f13\uff0c\u524d\u56df\u5f20\u529b\u53ef\u4e0d\u9ad8\u3002\u5e38\u7559\u6709\u4e0d\u540c\u7a0b\u5ea6\u7684\u795e\u7ecf\u7cfb\u7edf\u540e\u9057\u75c7\u5982\u8111\u762b\u3001\u766b\u75eb\u548c\u7cbe\u795e\u53d1\u80b2\u8fdf\u7f13\u7b49\u3002\u51fa\u8840\u90e8\u4f4d\u53ef\u6db2\u5316\u5f62\u6210\u56ca\u80bf\uff0c\u82e5\u56ca\u80bf\u4e0e\u8111\u5ba4\u76f8\u901a\uff0c\u79f0\u4e4b\u4e3a\u8111\u7a7f\u901a\u6027\u56ca\u80bf][5]\u5c0f\u8111\u51fa\u8840:[\u591a\u6709\u4ea7\u4f24\u548c\u7f3a\u6c27\u53f2\u3002\u5305\u62ec\u539f\u53d1\u6027\u5c0f\u8111\u51fa\u8840\u3001\u8111\u5ba4\u5185\u6216\u86db\u7f51\u819c\u4e0b\u8154\u51fa\u8840\u8513\u5ef6\u81f3\u5c0f\u8111\u3001\u9759\u8109\u51fa\u8840\u6027\u6897\u6b7b\u3001\u5c0f\u8111\u6495\u88c2\u548c\u8840\u7ba1\u7834\u88c2\u6240\u81f4\u3002\u5e38\u89c1\u4e8e32\u5468\u4ee5\u4e0b\u7684\u65e9\u4ea7\u513f\uff0c\u8db3\u6708\u513f\u591a\u7531\u4ea7\u4f24\u800c\u5f15\u8d77\u3002\u4e3b\u8981\u8868\u73b0\u4e3a\u8111\u5e72\u53d7\u538b\u7684\u75c7\u72b6\uff0c\u5982\u5c4f\u6c14\u3001\u547c\u5438\u4e0d\u89c4\u5219\u3001\u5fc3\u52a8\u8fc7\u7f13\u3001\u773c\u7403\u504f\u659c\u3001\u9762\u762b\u3001\u95f4\u6b47\u6027\u80a2\u4f53\u5f20\u529b\u589e\u9ad8\u3001\u89d2\u5f13\u53cd\u5f20\u7b49\u3002\u75c5\u60c5\u53ef\u8fc5\u901f\u6076\u5316\uff0c\u53ef\u5728\u53d1\u75c5\u540e\u77ed\u65f6\u95f4\u5185\u6b7b\u4ea1\u3002\u8f83\u5927\u60a3\u513f\u75c5\u7a0b\u53ef\u7f13\u6162\u8fdb\u5c55\u751a\u81f3\u4e34\u5e8a\u75c7\u72b6\u6539\u5584\uff0c\u4f46\u4e0d\u591a\u89c1]
p142
sg5
g140
sg6
V(1)\u65e0
p143
ssV\u95f4\u6b47\u6027\u66b4\u6012\u969c\u788d
p144
(dp145
g3
V(1)\u4e0d\u65ad\u51fa\u73b0\u7684\u65e0\u6cd5\u514b\u5236\u7684\u653b\u51fb\u51b2\u52a8(2)\u8fc7\u6fc0\u653b\u51fb:[\u4e0e\u60c5\u5883\u4e2d\u7684\u6311\u8845\u6216\u8005\u538b\u529b\u662f\u4e0d\u76f8\u7b26\u7684\u3002\u4ed6\u4eec\u5728\u51b2\u52a8\u884c\u4e3a\u66b4\u53d1\u524d\u6709\u7d27\u5f20\u611f\uff0c\u4f34\u65e0\u6cd5\u514b\u5236\u653b\u51fb\u7684\u6b32\u671b](3)\u7d27\u5f20$\u63d0\u5fc3\u540a\u80c6$\u4e0d\u5b89\u5168$\u81ea\u5351:[\u603b\u662f\u9700\u8981\u88ab\u4eba\u559c\u6b22\u548c\u63a5\u7eb3\uff0c\u5bf9\u62d2\u7edd\u548c\u6279\u8bc4\u8fc7\u5206\u654f\u611f\u3002\u56e0\u4e60\u60ef\u6027\u5730\u5938\u5927\u65e5\u5e38\u5904\u5883\u4e2d\u7684\u6f5c\u5728\u5371\u9669\uff0c\u800c\u6709\u56de\u907f\u67d0\u4e9b\u6d3b\u52a8\u7684\u503e\u5411](4)\u5931\u63a7$\u5931\u53bb\u7406\u667a$\u66b4\u529b\u884c\u4e3a:[\u51b2\u52a8\u884c\u4e3a\u53d1\u751f\u4ee5\u540e\uff0c\u60a3\u8005\u5bf9\u5176\u51b2\u52a8\u884c\u4e3a\u6709\u660e\u663e\u7684\u4e0d\u5b89\uff0c\u540e\u6094\u6216\u8005\u5185\u759a\u611f]
p146
sg5
g144
sg6
V(1)\u65e0
p147
ssV\u7ef4\u751f\u7d20D\u7f3a\u4e4f\u6027\u624b\u8db3\u62bd\u6410\u75c7
p148
(dp149
g3
V(1)\u9690\u533f\u578b:[\u8840\u6e05\u9499\u591a\u57281.75\uff5e1.88mmol/L\uff0c\u6ca1\u6709\u5178\u578b\u53d1\u4f5c\u7684\u75c7\u72b6\uff0c\u4f46\u53ef\u901a\u8fc7\u523a\u6fc0\u795e\u7ecf\u808c\u8089\u800c\u5f15\u51fa\u4e0b\u5217\u4f53\u5f81][1]\u9762\u795e\u7ecf\u5f81:[\u4ee5\u624b\u6307\u5c16\u6216\u53e9\u8bca\u9524\u9aa4\u51fb\u60a3\u513f\u98a7\u5f13\u4e0e\u53e3\u89d2\u95f4\u7684\u9762\u988a\u90e8(\u7b2c\u2166\u5bf9\u8111\u795e\u7ecf\u5b54\u5904)\uff0c\u5f15\u8d77\u773c\u7751\u548c\u53e3\u89d2\u62bd\u52a8\u4e3a\u9762\u795e\u7ecf\u5f81\u9633\u6027\uff0c\u65b0\u751f\u513f\u671f\u53ef\u5448\u5047\u9633\u6027][2]\u8153\u53cd\u5c04:[\u4ee5\u53e9\u8bca\u9524\u9aa4\u51fb\u819d\u4e0b\u5916\u4fa7\u8153\u9aa8\u5c0f\u5934\u4e0a\u8153\u795e\u7ecf\u5904\uff0c\u5f15\u8d77\u8db3\u5411\u5916\u4fa7\u6536\u7f29\u8005\u5373\u4e3a\u8153\u53cd\u5c04\u9633\u6027][3]\u9676\u745f\u5f81:[\u4ee5\u8840\u538b\u8ba1\u8896\u5e26\u5305\u88f9\u4e0a\u81c2\uff0c\u4f7f\u8840\u538b\u7ef4\u6301\u5728\u6536\u7f29\u538b\u4e0e\u8212\u5f20\u538b\u4e4b\u95f4\uff0c5\u5206\u949f\u4e4b\u5185\u8be5\u624b\u51fa\u73b0\u75c9\u631b\u75c7\u72b6\uff0c\u5c5e\u9676\u745f\u5f81\u9633\u6027](2)\u5178\u578b\u53d1\u4f5c:[\u8840\u6e05\u9499\u4f4e\u4e8e1.75mmol/L\u65f6\u53ef\u51fa\u73b0\u60ca\u53a5\u3001\u5589\u75c9\u631b\u548c\u624b\u8db3\u62bd\u6410,\u4ee5\u65e0\u70ed\u60ca\u53a5\u4e3a\u6700\u5e38\u89c1][1]\u60ca\u53a5:[\u7a81\u7136\u53d1\u751f\u56db\u80a2\u62bd\u52a8\u3001\u4e24\u773c\u4e0a\u7a9c\u3001\u9762\u808c\u98a4\u52a8\u3001\u795e\u5fd7\u4e0d\u6e05\uff0c\u53d1\u4f5c\u65f6\u95f4\u53ef\u77ed\u81f3\u6570\u79d2\u949f\uff0c\u6216\u957f\u8fbe\u6570\u5206\u949f\u4ee5\u4e0a\uff0c\u53d1\u4f5c\u65f6\u95f4\u957f\u8005\u53ef\u4f34\u53e3\u5468\u53d1\u7ec0\u3002\u53d1\u4f5c\u505c\u6b62\u540e\uff0c\u610f\u8bc6\u6062\u590d\uff0c\u7cbe\u795e\u840e\u9761\u800c\u5165\u7761\uff0c\u9192\u540e\u6d3b\u6cfc\u5982\u5e38\uff0c\u53d1\u4f5c\u6b21\u6570\u53ef\u6570\u65e5\u4e00\u6b21\u6216\u4e00\u65e5\u6570\u6b21\uff0c\u751a\u81f3\u591a\u81f3\u4e00\u65e5\u6570\u5341\u6b21\u3002\u4e00\u822c\u4e0d\u53d1\u70ed\uff0c\u53d1\u4f5c\u8f7b\u65f6\u4ec5\u6709\u77ed\u6682\u7684\u773c\u7403\u4e0a\u7a9c\u548c\u9762\u808c\u62bd\u52a8\uff0c\u795e\u5fd7\u6e05\u695a][2]\u624b\u8db3\u62bd\u6410:[\u53ef\u89c1\u4e8e\u8f83\u5927\u5a74\u513f\u3001\u5e7c\u513f\uff0c\u7a81\u53d1\u624b\u8db3\u75c9\u631b\u5448\u5f13\u72b6\uff0c\u53cc\u624b\u5448\u8155\u90e8\u5c48\u66f2\u72b6\uff0c\u624b\u6307\u4f38\u76f4\uff0c\u62c7\u6307\u5185\u6536\u638c\u5fc3\uff0c\u5f3a\u76f4\u75c9\u631b\uff1b\u8db3\u90e8\u8e29\u5173\u8282\u4f38\u76f4\uff0c\u8db3\u8dbe\u540c\u65f6\u5411\u4e0b\u5f2f\u66f2][3]\u5589\u75c9\u631b:[\u5a74\u513f\u89c1\u591a\uff0c\u5589\u90e8\u808c\u8089\u53ca\u58f0\u95e8\u7a81\u53d1\u75c9\u631b\uff0c\u547c\u5438\u56f0\u96be\uff0c\u6709\u65f6\u53ef\u7a81\u7136\u53d1\u751f\u7a92\u606f\u3001\u4e25\u91cd\u7f3a\u6c27\uff0c\u751a\u81f3\u6b7b\u4ea1]
p150
sg5
g148
sg6
V(1)\u8840\u9499\u68c0\u6d4b:[\u603b\u8840\u9499\u4f4e\u4e8e1.75mmol/L\uff0c\u79bb\u5b50\u9499\u4f4e\u4e8e1.0mmol/L]
p151
ssV\u504f\u5934\u75db
p152
(dp153
g3
V(1)\u4e00\u822c\u8868\u73b0[1]\u53cc\u4fa7\u6027\u5934\u75db$\u6301\u7eed30-60\u5206\u949f[2]\u754f\u5149$\u754f\u58f0:[\u60a3\u513f\u5f80\u5f80\u5bfb\u6c42\u4e00\u4e2a\u5b89\u9759\u3001\u9ed1\u6697\u7684\u73af\u5883][3]\u5934\u6655$\u89c6\u7269\u6a21\u7cca$\u9762\u90e8\u6f6e\u7ea2$\u591a\u6c57$\u9762\u8272\u82cd\u767d$\u6076\u5fc3$\u5455\u5410[4]\u538b\u529b\u5927$\u75b2\u52b3$\u7761\u7720\u4e0d\u4f73:[\u8bf1\u56e0]\u7761\u7720\u5f80\u5f80\u53ef\u4ee5\u7f13\u89e3\u5934\u75db\u3002(2)\u4e0d\u5178\u578b\u7684\u75c7\u72b6\u548c\u4f53\u5f81[1]\u53d1\u70ed$\u4f53\u91cd\u51cf\u8f7b$\u76ae\u75b9$\u5173\u8282\u75bc\u75db[2]\u8fdb\u5c55\u6027\u5934\u75db:[\u5934\u75db\u66f4\u4e25\u91cd\u548c(\u6216)\u66f4\u9891\u7e41][3]\u7206\u53d1\u6027\u6216\u7a81\u53d1\u6027\u5267\u70c8\u5934\u75db\uff1b[4]\u7761\u7720\u76f8\u5173\u6027\u5934\u75db$\u5bfc\u81f4\u89c9\u9192\u7684\u5934\u75db\uff1b[5]\u610f\u8bc6\u72b6\u6001\u6539\u53d8$\u89c6\u76d8\u6c34\u80bf$\u773c\u7403\u8fd0\u52a8\u5f02\u5e38$\u611f\u89c9\u5f02\u5e38$\u504f\u762b\u7b49\uff1b[6]\u8ba4\u77e5\u969c\u788d(3)\u5206\u578b:[1]\u4e0d\u4f34\u5148\u5146\u504f\u5934\u75db:[\u5360\u513f\u7ae5\u504f\u5934\u75db\u768460\uff05\uff5e85\uff05\uff0c\u53d1\u4f5c\u9891\u7387\u4e00\u822c\u4e0d\u8d85\u8fc76\uff5e8\u6b21\uff0f\u6708\u3002\u5934\u75db\u7684\u51fa\u73b0\u65f6\u95f4\u4e0e\u5e74\u9f84\u6709\u4e00\u5b9a\u5173\u7cfb\u3002\u5e74\u5e7c\u513f\u5e38\u5e38\u5728\u4e0b\u5348\u51fa\u73b0\uff0c10\u5c81\u5de6\u53f3\u7684\u513f\u7ae5\u5728\u4e2d\u5348\u51fa\u73b0\uff0c\u800c\u5e74\u957f\u513f\u901a\u5e38\u5728\u6e05\u6668\u51fa\u73b0\u3002\u886812-9-1\u4e3a\u4e0d\u4f34\u5148\u5146\u504f\u5934\u75db\u7684\u8bca\u65ad\u6807\u51c6\u3002\u9700\u8981\u6ce8\u610f\u7684\u662f\u504f\u5934\u75db\u53d1\u4f5c\u7684\u65f6\u95f4\u5728\u5e74\u5e7c\u513f\u7ae5\u7ecf\u5e38\u77ed\u4e8e1\u5c0f\u65f6\uff0c\u5934\u75db\u5e38\u5e38\u4e3a\u53cc\u4fa7][2]\u4f34\u5148\u5146\u504f\u5934\u75db:[\u5c11\u90e8\u5206\u60a3\u513f\u5728\u5934\u75db\u53d1\u751f\u4e4b\u524d\u6709\u5148\u5146\u5982\u89c6\u89c9\u5148\u5146(\u5355\u773c\u6216\u53cc\u773c\u7684\u89c6\u529b\u969c\u788d\u4f34\u76f2\u70b9\u3001\u89c6\u5e7b\u89c9\u6216\u89c6\u9519\u89c9)\uff0c\u8fd0\u52a8\u5148\u5146(\u504f\u762b)\uff0c\u611f\u89c9\u5148\u5146\uff0c\u5931\u8bed\u7b49\u3002\u5148\u5146\u5e38\u6301\u7eed\u6570\u5206\u949f\uff0c\u4e4b\u540e\u51fa\u73b0\u504f\u5934\u75db\uff0c\u90e8\u5206\u75c5\u4eba\u53ef\u95f4\u9694\u4e00\u6bb5\u65f6\u95f4(\u901a\u5e38\u57281\u5c0f\u65f6\u4ee5\u5185)\u540e\u51fa\u73b0\u504f\u5934\u75db\u3002\u4f34\u5148\u5146\u504f\u5934\u75db\u5305\u62ec\u4f34\u5178\u578b\u5148\u5146\u7684\u504f\u5934\u75db\u6027\u5934\u75db\u3001\u4f34\u5178\u578b\u5148\u5146\u7684\u975e\u504f\u5934\u75db\u6027\u5934\u75db\u3001\u5178\u578b\u5148\u5146\u4e0d\u4f34\u5934\u75db\u3001\u5bb6\u65cf\u6027\u504f\u762b\u6027\u504f\u5934\u75db\u3001\u6563\u53d1\u6027\u504f\u762b\u6027\u504f\u5934\u75db\u53ca\u57fa\u5e95\u578b\u504f\u5934\u75db]
p154
sg5
g152
sg6
V(1)\u65e0\u7279\u5f02\u6027\u68c0\u67e5:[\u76ee\u524d\u5c1a\u65e0\u8bca\u65ad\u504f\u5934\u75db\u7279\u5f02\u6027\u68c0\u67e5\u624b\u6bb5\uff0c\u76ee\u7684\u662f\u4e3a\u4e86\u6392\u9664\u5bfc\u81f4\u5934\u75db\u7684\u5176\u4ed6\u5668\u8d28\u6027\u75c5\u56e0\u3002\u5c24\u5176\u662f\u5bf9\u4e8e\u4e34\u5e8a\u75c7\u72b6\u3001\u4f53\u5f81\u6216\u75c5\u7a0b\u7ecf\u8fc7\u4e0d\u5178\u578b\u7684\u60a3\u8005\uff0c\u5e94\u8fdb\u4e00\u6b65\u884c\u76f8\u5173\u68c0\u67e5\u5982\u795e\u7ecf\u5f71\u50cf\u5b66\u68c0\u67e5\u3001\u8111\u810a\u6db2\u68c0\u67e5\u3001\u9057\u4f20\u4ee3\u8c22\u75c5\u7b5b\u67e5\u3001\u8111\u7535\u56fe\u6392\u9664\u5176\u4ed6\u75be\u75c5\u7684\u53ef\u80fd\u6027]
p155
ssV\u7cd6\u539f\u7d2f\u79ef\u75c5
p156
(dp157
g3
V(1)\u751f\u957f\u843d\u540e$\u8eab\u6750\u77ee\u5c0f$\u4f4e\u8840\u7cd6$\u809d\u5927$\u6613\u611f\u67d3:[\u5178\u578b\u8868\u73b0](2)\u5a03\u5a03\u8138$\u808c\u5f20\u529b\u4f4e\u4e0b(3)\u4e25\u91cd\u4f4e\u8840\u7cd6$\u9178\u4e2d\u6bd2$\u547c\u5438\u56f0\u96be$\u809d\u5927$\u4f4e\u8840\u7cd6\u60ca\u53a5:[\u91cd\u75c7](4)\u9ad8\u4e73\u9178\u8840\u75c7$\u9ad8\u5c3f\u9178\u8840\u75c7$\u9ad8\u8102\u8840\u75c7$\u4f4e\u8840\u7cd6\u3002(5)\u9aa8\u8d28\u758f\u677e$\u9f3b\u51fa\u8840
p158
sg5
g156
sg6
V(1)\u8840\u751f\u5316:[\u4f4e\u8840\u7cd6\u3001\u916e\u75c7\u9178\u4e2d\u6bd2\u3001\u4e73\u9178\u8840\u75c7\uff0c\u8840\u8102\u53ca\u5c3f\u9178\u5347\u9ad8\uff0c\u53ef\u6709\u809d\u529f\u80fd\u5f02\u5e38](2)\u80be\u4e0a\u817a\u7d20\u8bd5\u9a8c:[\u6b63\u5e38\u8005\u8840\u7cd6\u4e0a\u534740\uff05\uff5e60\uff05\uff1b\u60a3\u8005\u8840\u7cd6\u65e0\u660e\u663e\u4e0a\u5347](3)\u80f0\u9ad8\u8840\u7cd6\u7d20\u8bd5\u9a8c:[\u6b63\u5e38\u65f6\u572815\uff5e45min\u5185\u8840\u7cd6\u53ef\u5347\u9ad81.5\uff5e2.8mmol/L\uff0c\u60a3\u8005\u8840\u7cd6\u5347\u9ad8\u4e0d\u660e\u663e](4)\u809d\u7ec4\u7ec7\u6d3b\u4f53\u68c0\u67e5\u3001\u9176\u6d3b\u6027\u6d4b\u5b9a:[\u809d\u7ec4\u7ec7\u7cd6\u539f\u67d3\u8272\u89c1\u7cd6\u539f\u589e\u591a\uff0c\u7279\u5f02\u6027\u9176\u6d3b\u6027\u964d\u4f4e](5)\u57fa\u56e0\u8bca\u65ad:[\u5916\u5468\u8840\u767d\u7ec6\u80deDNA\u5206\u6790\uff0c\u8fdb\u884c\u57fa\u56e0\u8bca\u65ad]
p159
ssV\u65b0\u751f\u513f\u9ad8\u8840\u7cd6\u75c7
p160
(dp161
g3
V(1)\u65e0\u75c7\u72b6:[\u8f7b\u8005](2)\u9ad8\u6e17\u8840\u75c7$\u9ad8\u6e17\u6027\u5229\u5c3f$\u8131\u6c34$\u70e6\u6e34$\u591a\u5c3f$\u4f53\u91cd\u4e0b\u964d$\u60ca\u53a5:[\u8840\u7cd6\u589e\u9ad8\u663e\u8457\u6216\u6301\u7eed\u65f6\u95f4\u957f\u7684\u60a3\u513f](3)\u9885\u5185\u51fa\u8840:[\u4e25\u91cd\u8005](4)\u5c3f\u7cd6\u9633\u6027$\u5c3f\u916e\u4f53\u9633\u6027\u6216\u9634\u6027\u3002
p162
sg5
g160
sg6
V\u65e0
p163
ssV\u8180\u80f1\u8f93\u5c3f\u7ba1\u53cd\u6d41\u548c\u53cd\u6d41\u6027\u80be\u75c5
p164
(dp165
g3
V(1)\u53cd\u590d\u53d1\u4f5c\u7684\u6ccc\u5c3f\u9053\u611f\u67d3(2)\u8180\u80f1\u523a\u6fc0\u75c7\u72b6:[\u4ec5\u5728\u6ccc\u5c3f\u9053\u611f\u67d3\u6025\u6027\u671f\u51fa\u73b0](3)\u65e0\u75c7\u72b6\u6027\u53cd\u6d41:[\u65e0\u4efb\u4f55\u75c7\u72b6\u4f53\u5f81\uff0c\u4ec5\u5728\u56e0\u5176\u4ed6\u539f\u56e0\u4f5cB\u8d85\u6216\u6392\u5c3f\u6027\u8180\u80f1\u9020\u5f71\u65f6\u624d\u88ab\u53d1\u73b0\u3002\u8bb8\u591a\u60a3\u513f\u5728\u80ce\u513f\u671f\uff0c\u4f5cB\u8d85\u5e38\u89c4\u68c0\u67e5\u65f6\u5c31\u88ab\u53d1\u73b0\uff0c\u8868\u73b0\u4e3a\u80be\u76c2\u79ef\u6c34\u3001\u4e0a\u5c3f\u8def\u6269\u5f20\u6216\u5de8\u5927\u8180\u80f1\u3002\u51fa\u751f\u540eB\u8d85\u53ca\u6392\u5c3f\u6027\u8180\u80f1\u9020\u5f71\u672f\u53ef\u8fdb\u4e00\u6b65\u8bc1\u5b9e](4)\u6ccc\u5c3f\u7cfb\u611f\u67d3:[\u8180\u80f1\u8f93\u5c3f\u7ba1\u53cd\u6d41\u5e38\u5408\u5e76\u6ccc\u5c3f\u9053\u611f\u67d3\uff0c\u4e14\u6613\u53cd\u590d\uff0c\u6216\u8fc1\u5ef6\u96be\u6cbb\uff0c\u4f34\u6709\u5176\u4ed6\u5148\u5929\u6027\u5c3f\u8def\u7578\u5f62](5)\u53cd\u6d41\u6027\u80be\u75c5:[\u86cb\u767d\u5c3f\u53ef\u4e3a\u53cd\u6d41\u6027\u80be\u75c5\u7684\u9996\u53d1\u75c7\u72b6\uff0c\u4ea6\u53ef\u5728\u4e25\u91cd\u7622\u75d5\u5f62\u6210\u6570\u5e74\u540e\u624d\u51fa\u73b0\uff0c\u968f\u80be\u529f\u80fd\u51cf\u9000\uff0c\u86cb\u767d\u5c3f\u589e\u52a0\uff0c\u5c11\u6570\u75c5\u4eba\u751a\u81f3\u53ef\u51fa\u73b0\u5927\u91cf\u86cb\u767d\u5c3f\u3002\u86cb\u767d\u5c3f\u51fa\u73b0\uff0c\u63d0\u793aVUR\u5bfc\u81f4\u80be\u5c0f\u7403\u75c5\u53d8\u3002\u9ad8\u8840\u538b\u4e3aRN\u7684\u5e38\u89c1\u540e\u671f\u5e76\u53d1\u75c7\uff0c\u968f\u7622\u75d5\u8fdb\u5c55\uff0c\u9ad8\u8840\u538b\u53ef\u52a0\u901f\u80be\u529f\u80fd\u6076\u5316](6)\u591c\u5c3f$\u591a\u5c3f$\u9057\u5c3f$\u53cd\u590d\u53d1\u70ed$\u8170\u75db$\u8179\u75db$\u53d1\u80b2\u4e0d\u826f$\u5c3f\u8def\u7ed3\u77f3$\u80be\u8870\u7aed$\u8089\u773c\u8840\u5c3f$\u80be\u5c0f\u7ba1\u9178\u4e2d\u6bd2
p166
sg5
g164
sg6
V(1)\u5b9e\u9a8c\u5ba4\u68c0\u67e5:[\u6ccc\u5c3f\u9053\u611f\u67d3\u65f6\u5c3f\u5e38\u89c4\u68c0\u67e5\u6709\u8113\u5c3f\uff0c\u5c3f\u7ec6\u83cc\u57f9\u517b\u9633\u6027\u3002\u53cd\u6d41\u6027\u80be\u75c5\u65f6\u5c3f\u68c0\u53ef\u53d1\u73b0\u86cb\u767d\uff0c\u7ea2\u7ec6\u80de\u3001\u767d\u7ec6\u80de\u548c\u5404\u79cd\u7ba1\u578b\u3002\u80be\u529f\u80fd\u68c0\u67e5\u6b63\u5e38\u6216\u5f02\u5e38](2)\u8d85\u58f0\u68c0\u67e5:[\u901a\u8fc7B\u8d85\u53ef\u4f30\u8ba1\u8180\u80f1\u8f93\u5c3f\u7ba1\u8fde\u63a5\u90e8\u529f\u80fd\uff0c\u89c2\u5bdf\u8f93\u5c3f\u7ba1\u6269\u5f20\u3001\u8815\u52a8\u53ca\u8180\u80f1\u57fa\u5e95\u90e8\u7684\u8fde\u7eed\u6027\uff0c\u89c2\u5bdf\u80be\u76c2\u3001\u80be\u810f\u5f62\u6001\u53ca\u5b9e\u8d28\u6539\u53d8\u60c5\u51b5\u3002\u6709\u4eba\u5728B\u8d85\u65f6\u63d2\u5165\u5bfc\u5c3f\u7ba1\uff0c\u6ce8\u5165\u6c14\u4f53(\u5982CO2)\uff0c\u82e5\u6c14\u4f53\u8fdb\u5165\u8f93\u5c3f\u7ba1\u5219VUR\u53ef\u8bca\u65ad\u3002\u665a\u8fd1\u7528\u5f69\u8272\u591a\u666e\u52d2\u8d85\u58f0\u89c2\u6d4b\u8fde\u63a5\u90e8\u529f\u80fd\u53ca\u8f93\u5c3f\u7ba1\u5f00\u53e3\u4f4d\u7f6e\u3002\u4f46B\u8d85\u5bf9\u4e0a\u6781\u7622\u75d5\u63a2\u6d4b\u5177\u6709\u5c40\u9650\u6027\uff0c\u5bf9VUR\u4e0d\u80fd\u4f5c\u5206\u7ea7](3)X\u7ebf\u68c0\u67e5:[1]\u6392\u5c3f\u6027\u8180\u80f1\u5c3f\u6e38\u9020\u5f71:[\u6b64\u4e3a\u5e38\u7528\u7684\u786e\u8bcaVUR\u7684\u57fa\u672c\u65b9\u6cd5\u53ca\u5206\u7ea7\u7684\u201c\u91d1\u6807\u51c6\u201d\u3002\u56fd\u9645\u53cd\u6d41\u59d4\u5458\u4f1a\u63d0\u51fa\u7684\u4e94\u7ea7\u5206\u7c7b\u6cd5:\u2160\u7ea7:\u5c3f\u53cd\u6d41\u53ea\u9650\u4e8e\u8f93\u5c3f\u7ba1\uff1b\u2161\u7ea7:\u5c3f\u53cd\u6d41\u81f3\u8f93\u5c3f\u7ba1\u3001\u80be\u76c2\uff0c\u4f46\u65e0\u6269\u5f20\uff0c\u80be\u76cf\u7a79\u9686\u6b63\u5e38\uff1b\u2162\u7ea7:\u8f93\u5c3f\u7ba1\u8f7b\u3001\u4e2d\u5ea6\u6269\u5f20\u548c(\u6216)\u626d\u66f2\u3002\u80be\u76c2\u4e2d\u5ea6\u6269\u5f20\uff0c\u7a79\u9686\u65e0\u6216\u6709\u8f7b\u5ea6\u53d8\u949d\uff1b\u2163\u7ea7:\u8f93\u5c3f\u7ba1\u4e2d\u5ea6\u6269\u5f20\u548c\u626d\u66f2\uff0c\u80be\u76c2\u3001\u80be\u76cf\u4e2d\u5ea6\u6269\u5f20\uff0c\u7a79\u9686\u89d2\u5b8c\u5168\u6d88\u5931\uff0c\u5927\u591a\u6570\u80be\u76cf\u4fdd\u6301\u4e73\u5934\u538b\u8ff9\uff1b\u2164\u7ea7:\u8f93\u5c3f\u7ba1\u4e25\u91cd\u6269\u5f20\u548c\u626d\u66f2\uff0c\u80be\u76c2\u3001\u80be\u76cf\u4e25\u91cd\u6269\u5f20\uff0c\u5927\u591a\u6570\u80be\u76cf\u4e0d\u663e\u4e73\u5934\u538b\u8ff9][2]\u9759\u8109\u80be\u76c2\u9020\u5f71:[\u53ef\u8fdb\u4e00\u6b65\u786e\u8bca\u6709\u65e0\u80be\u840e\u7f29\u53ca\u80be\u7622\u75d5\u5f62\u6210\u3002\u8fd1\u5e74\u5b66\u8005\u4eec\u8ba4\u4e3a\u5927\u5242\u91cf\u9759\u8109\u80be\u76c2\u9020\u5f71\u52a0X\u7ebf\u65ad\u5c42\u7167\u7247\u66f4\u80fd\u663e\u793a\u7622\u75d5](4)\u653e\u5c04\u6027\u6838\u7d20\u68c0\u67e5:[1]\u653e\u5c04\u6027\u6838\u7d20\u8180\u80f1\u663e\u50cf:[\u5206\u76f4\u63a5\u6d4b\u5b9a\u6cd5\u548c\u95f4\u63a5\u6d4b\u5b9a\u6cd5\uff0c\u7528\u4e8e\u6d4b\u5b9a\u8180\u80f1\u8f93\u5c3f\u7ba1\u53cd\u6d41][2]DMSA\u626b\u63cf\u6280\u672f:[\u6709\u5b66\u8005\u8ba4\u4e3aDMSA\u626b\u63cf\u6444\u5f71\u7528\u4e8e\u5c3f\u65e0\u83cc\u7684\u75c5\u4eba\uff0c\u5bf9\u8bca\u65ad\u513f\u7ae5\u53cd\u6d41\u6027\u80be\u75c5\u662f\u552f\u4e00\u7684\u201c\u91d1\u6807\u51c6\u201d\uff0c\u7279\u522b\u662f\u57285\u5c81\u4ee5\u4e0a\u513f\u7ae5\u3002Coldraich\u6839\u636eDMSA\u626b\u63cf\u6444\u5f71\u5f81\u8c61\u5c06\u80be\u7622\u75d5\u5206\u6210\u56db\u7ea7:\u2160\u7ea7:\u4e00\u5904\u6216\u4e24\u5904\u7622\u75d5\uff1b\u2161\u7ea7:\u4e24\u5904\u4ee5\u4e0a\u7684\u7622\u75d5\uff0c\u4f46\u7622\u75d5\u4e4b\u95f4\u80be\u5b9e\u8d28\u6b63\u5e38\uff1b\u2162\u7ea7:\u6574\u4e2a\u80be\u810f\u5f25\u6f2b\u6027\u635f\u5bb3\uff0c\u7c7b\u4f3c\u963b\u6897\u6027\u80be\u75c5\u8868\u73b0\uff0c\u5373\u5168\u80be\u840e\u7f29\uff0c\u80be\u8f6e\u5ed3\u6709\u6216\u65e0\u7622\u75d5\uff1b\u2163\u7ea7:\u7ec8\u672b\u671f\u3001\u840e\u7f29\u80be\uff0c\u51e0\u4e4e\u65e0\u6216\u6839\u672c\u65e0DMSA\u6444\u53d6(\u5c0f\u4e8e\u5168\u80be\u529f\u80fd\u768410%)]
p167
ssV\u9635\u53d1\u6027\u5ba4\u4e0a\u6027\u5fc3\u52a8\u8fc7\u901f
p168
(dp169
g3
V(1)\u70e6\u8e81\u4e0d\u5b89$\u9762\u8272\u9752\u7070$\u76ae\u80a4\u6e7f\u51b7$\u547c\u5438\u589e\u5feb$\u8109\u640f\u7ec6\u5f31$\u5e72\u54b3$\u5455\u5410\u3002(2)\u5fc3\u60b8$\u5fc3\u524d\u533a\u4e0d\u9002$\u5934\u6655(3)\u5fc3\u7387\u7a81\u7136\u589e\u5feb:[\u5fc3\u7387\u7a81\u7136\u589e\u5feb\u5728160\uff5e300\u6b21/min\u4e4b\u95f4\uff0c\u591a\u6570\u5728200\u6b21/min\u4ee5\u4e0a\uff0c\u4e00\u6b21\u53d1\u4f5c\u53ef\u6301\u7eed\u6570\u79d2\u949f\u4e43\u81f3\u6570\u65e5](4)\u5fc3\u7387\u7a81\u7136\u51cf\u6162:[\u53d1\u4f5c\u505c\u6b62\u65f6](5)\u7b2c\u4e00\u5fc3\u97f3\u5f3a\u5ea6\u5b8c\u5168\u4e00\u81f4(6)\u5fc3\u529b\u8870\u7aed:[\u53d1\u4f5c\u6301\u7eed\u8d85\u8fc724\u5c0f\u65f6\u8005\uff0c\u6613\u5f15\u53d1\u5fc3\u529b\u8870\u7aed]
p170
sg5
g168
sg6
V\u5fc3\u7535\u56fe:[P\u6ce2\u5f62\u6001\u5f02\u5e38\u3002QRS\u6ce2\u5f62\u6001\u540c\u7aa6\u6027\u3002\u6682\u65f6\u6027ST\u6bb5\u53caT\u6ce2\u6539\u53d8\u3002]
p171
ssV\u6ccc\u5c3f\u9053\u611f\u67d3
p172
(dp173
g3
V(1)\u6025\u6027\u6ccc\u5c3f\u9053\u611f\u67d3[1]\u65b0\u751f\u513f:{1}\u53d1\u70ed$\u4f53\u6e29\u4e0d\u5347$\u82cd\u767d$\u5403\u5976\u5dee$\u5455\u5410$\u8179\u6cfb$\u9ec4\u75b8:{\u8f83\u591a\u89c1]{2}\u55dc\u7761$\u70e6\u8e81$\u60ca\u53a5:[\u90e8\u5206\u60a3\u513f]\u3002{3}\u8d25\u8840\u75c7[2]\u5a74\u5e7c\u513f:{1}\u53d1\u70ed:[\u6700\u7a81\u51fa]{2}\u62d2\u98df$\u5455\u5410$\u8179\u6cfb:[\u8f83\u660e\u663e]{3}\u9ec4\u75b8$\u7cbe\u795e\u840e\u9761$\u660f\u7761$\u6fc0\u60f9$\u60ca\u53a5:[\u6709\u65f6]\u3002{4}\u5c3f\u9891$\u6392\u5c3f\u56f0\u96be$\u8840\u5c3f$\u8113\u8840\u5c3f$\u5c3f\u6db2\u6df7\u6d4a$\u6392\u5c3f\u65f6\u54ed\u95f9\u4e0d\u5b89$\u5c3f\u5e03\u6709\u81ed\u5473$\u987d\u56fa\u6027\u5c3f\u5e03\u75b9:[3\u4e2a\u6708\u9f84\u4ee5\u4e0a\u513f\u7ae5][3]\u5e74\u957f\u513f:{1}\u53d1\u70ed$\u5bd2\u6218$\u8179\u75db$\u8170\u75db$\u80be\u533a\u53e9\u51fb\u75db$\u808b\u810a\u89d2\u538b\u75db{2}\u5c3f\u8def\u523a\u6fc0\u75c7\u72b6\u660e\u663e$\u5c3f\u9891$\u5c3f\u6025$\u5c3f\u75db$\u5c3f\u6db2\u6d51\u6d4a$\u8089\u773c\u8840\u5c3f\u3002(2)\u6162\u6027\u6ccc\u5c3f\u9053\u611f\u67d3:[\u662f\u6307\u75c5\u7a0b\u8fc1\u5ef6\u6216\u53cd\u590d\u53d1\u4f5c\u6301\u7eed\u4e00\u5e74\u4ee5\u4e0a\u8005][1]\u8d2b\u8840$\u6d88\u7626$\u751f\u957f\u8fdf\u7f13$\u9ad8\u8840\u538b$\u80be\u529f\u80fd\u4e0d\u5168(3)\u65e0\u75c7\u72b6\u6027\u83cc\u5c3f:[\u5728\u5e38\u89c4\u7684\u5c3f\u8fc7\u7b5b\u68c0\u67e5\u4e2d\uff0c\u53ef\u4ee5\u53d1\u73b0\u5065\u5eb7\u513f\u7ae5\u5b58\u5728\u7740\u6709\u610f\u4e49\u7684\u83cc\u5c3f\uff0c\u4f46\u65e0\u4efb\u4f55\u5c3f\u8def\u611f\u67d3\u75c7\u72b6\u3002\u8fd9\u79cd\u73b0\u8c61\u53ef\u89c1\u4e8e\u5404\u5e74\u9f84\u7ec4\uff0c\u5728\u513f\u7ae5\u4e2d\u4ee5\u5b66\u9f84\u5973\u5b69\u5e38\u89c1\u3002\u65e0\u75c7\u72b6\u6027\u83cc\u5c3f\u60a3\u513f\u5e38\u540c\u65f6\u4f34\u6709\u5c3f\u8def\u7578\u5f62\u548c\u65e2\u5f80\u75c7\u72b6\u5c3f\u8def\u611f\u67d3\u53f2\u3002\u75c5\u539f\u4f53\u591a\u6570\u662f\u5927\u80a0\u6746\u83cc]
p174
sg5
g172
sg6
V(1)\u5c3f\u5e38\u89c4\u68c0\u67e5:[\u5982\u6e05\u6d01\u4e2d\u6bb5\u5c3f\u79bb\u5fc3\u6c89\u6e23\u4e2d\u767d\u7ec6\u80de\uff1e10\u4e2a/HPF\uff0c\u5373\u53ef\u6000\u7591\u4e3a\u5c3f\u8def\u611f\u67d3\uff1b\u8840\u5c3f\u4e5f\u5f88\u5e38\u89c1\u3002\u80be\u76c2\u80be\u708e\u75c5\u4eba\u6709\u4e2d\u7b49\u86cb\u767d\u5c3f\u3001\u767d\u7ec6\u80de\u7ba1\u578b\u5c3f\u53ca\u6668\u5c3f\u7684\u6bd4\u91cd\u548c\u6e17\u900f\u538b\u51cf\u4f4e](2)1\u5c0f\u65f6\u5c3f\u767d\u7ec6\u80de\u6392\u6cc4\u7387\u6d4b\u5b9a:[\u767d\u7ec6\u80de\u6570\uff1e30104/h\u4e3a\u9633\u6027\uff0c\u53ef\u6000\u7591\u5c3f\u8def\u611f\u67d3\uff1b\uff1c20104/h\u4e3a\u9634\u6027\uff0c\u53ef\u6392\u9664\u5c3f\u8def\u611f\u67d3](3)\u5c3f\u57f9\u517b\u7ec6\u83cc\u5b66\u68c0\u67e5\u5c3f\u7ec6\u83cc\u57f9\u517b\u53ca\u83cc\u843d\u8ba1\u6570:[\u662f\u8bca\u65ad\u5c3f\u8def\u611f\u67d3\u7684\u4e3b\u8981\u4f9d\u636e\u3002\u901a\u5e38\u8ba4\u4e3a\u4e2d\u6bb5\u5c3f\u57f9\u517b\u83cc\u843d\u6570\u2265105/ml\u53ef\u786e\u8bca\u3002104\uff5e105/ml\u4e3a\u53ef\u7591\uff0c\uff1c104/ml\u7cfb\u6c61\u67d3\u3002\u5e94\u7ed3\u5408\u75c5\u513f\u6027\u522b\u3001\u6709\u65e0\u75c7\u72b6\u3001\u7ec6\u83cc\u79cd\u7c7b\u53ca\u7e41\u6b96\u529b\u7efc\u5408\u5206\u6790\u8bc4\u4ef7\u4e34\u5e8a\u610f\u4e49\u3002\u7531\u4e8e\u7caa\u94fe\u7403\u83cc\u4e00\u4e2a\u94fe\u542b\u670932\u4e2a\u7ec6\u83cc\uff0c\u4e00\u822c\u8ba4\u4e3a\u83cc\u843d\u6570\u5728103\uff5e104/ml\u95f4\u5373\u53ef\u8bca\u65ad\u3002\u901a\u8fc7\u803b\u9aa8\u4e0a\u8180\u80f1\u7a7f\u523a\u83b7\u53d6\u7684\u5c3f\u57f9\u517b\uff0c\u53ea\u8981\u53d1\u73b0\u6709\u7ec6\u83cc\u751f\u957f\uff0c\u5373\u6709\u8bca\u65ad\u610f\u4e49\u3002\u81f3\u4e8e\u4f34\u6709\u4e25\u91cd\u5c3f\u8def\u523a\u6fc0\u75c7\u72b6\u7684\u5973\u5b69\uff0c\u5982\u679c\u5c3f\u4e2d\u6709\u8f83\u591a\u767d\u7ec6\u80de\uff0c\u4e2d\u6bb5\u5c3f\u7ec6\u83cc\u5b9a\u91cf\u57f9\u517b\u2265102/ml\uff0c\u4e14\u81f4\u75c5\u83cc\u4e3a\u5927\u80a0\u6746\u83cc\u7c7b\u6216\u8150\u7269\u5bc4\u751f\u7403\u83cc\u7b49\uff0c\u4e5f\u53ef\u8bca\u65ad\u4e3a\u6ccc\u5c3f\u9053\u611f\u67d3\uff0c\u4e34\u5e8a\u9ad8\u5ea6\u6000\u7591\u6ccc\u5c3f\u9053\u611f\u67d3\u800c\u5c3f\u666e\u901a\u7ec6\u83cc\u57f9\u517b\u9634\u6027\u7684\uff0c\u5e94\u4f5cL-\u578b\u7ec6\u83cc\u548c\u538c\u6c27\u83cc\u57f9\u517b](4)\u5c3f\u6db2\u76f4\u63a5\u6d82\u7247\u6cd5:[\u6cb9\u955c\u4e0b\u627e\u7ec6\u83cc\uff0c\u5982\u6bcf\u4e2a\u89c6\u91ce\u90fd\u80fd\u627e\u5230\u4e00\u4e2a\u7ec6\u83cc\uff0c\u8868\u660e\u5c3f\u5185\u7ec6\u83cc\u6570\uff1e105/ml\u4ee5\u4e0a](5)\u4e9a\u785d\u9178\u76d0\u8bd5\u7eb8\u6761\u8bd5\u9a8c$\u5c3f\u767d\u7ec6\u80de\u916f\u9176\u68c0\u6d4b:[\u5927\u80a0\u6746\u83cc\u3001\u526f\u5927\u80a0\u6746\u83cc\u548c\u514b\u96f7\u4f2f\u6746\u83cc\u8bd5\u7eb8\u6761\u4e9a\u785d\u9178\u76d0\u8bd5\u9a8c\u5448\u9633\u6027\uff0c\u4ea7\u6c14\u6746\u83cc\u3001\u53d8\u5f62\u6746\u83cc\u3001\u94dc\u7eff\u5047\u5355\u80de\u83cc\u548c\u8461\u8404\u7403\u83cc\u4e9a\u785d\u9178\u76d0\u8bd5\u9a8c\u5448\u5f31\u9633\u6027\uff0c\u800c\u7caa\u94fe\u7403\u83cc\u3001\u7ed3\u6838\u83cc\u4e3a\u9634\u6027](6)\u5f71\u50cf\u5b66\u68c0\u67e5:[\u5e38\u7528\u7684\u5f71\u50cf\u5b66\u68c0\u67e5\u6709B\u578b\u8d85\u58f0\u68c0\u67e5\u3001\u9759\u8109\u80be\u76c2\u9020\u5f71\u52a0\u65ad\u5c42\u6444\u7247(\u68c0\u67e5\u80be\u7622\u75d5\u5f62\u6210)\u3001\u6392\u6cc4\u6027\u8180\u80f1\u5c3f\u8def\u9020\u5f71(MCU\u68c0\u67e5VUR)\u3001\u52a8\u6001\u3001\u9759\u6001\u80be\u6838\u7d20\u9020\u5f71\u3001CT\u626b\u63cf\u7b49\u3002\u6838\u7d20\u80be\u9759\u6001\u626b\u63cf(99mTc-DMSA)\u662f\u8bca\u65ad\u6025\u6027\u80be\u76c2\u80be\u708e(APN)\u7684\u91d1\u6807\u51c6\u3002APN\u65f6\uff0c\u7531\u4e8e\u80be\u5b9e\u8d28\u5c40\u90e8\u7f3a\u8840\u53ca\u80be\u5c0f\u7ba1\u529f\u80fd\u969c\u788d\u81f4\u5bf9DMSA\u6444\u53d6\u51cf\u5c11\u3002\u5178\u578b\u8868\u73b0\u5448\u80be\u5355\u4e2a\u6216\u591a\u4e2a\u5c40\u7076\u653e\u5c04\u6027\u51cf\u4f4e\u6216\u7f3a\u635f\uff0c\u4e5f\u53ef\u5448\u5f25\u6f2b\u7684\u653e\u5c04\u6027\u7a00\u758f\u4f34\u5916\u5f62\u80bf\u5927\u3002\u5176\u8bca\u65ad\u8be5\u75c5\u7684\u654f\u611f\u6027\u4e0e\u7279\u5f02\u6027\u5206\u522b\u4e3a96%\u548c98%\u3002\u63a8\u8350\u5728\u6025\u6027\u611f\u67d3\u540e3\u4e2a\u6708\u884c99mTc-DMSA\u4ee5\u8bc4\u4f30\u80be\u7622\u75d5]
p175
ssV\u771f\u83cc\u6027\u80a0\u708e
p176
(dp177
g3
V(1)\u9e45\u53e3\u75ae(2)\u8179\u6cfb:[\u5927\u4fbf\u6b21\u6570\u589e\u591a\uff0c\u9ec4\u8272\u7a00\u4fbf\uff0c\u6ce1\u6cab\u8f83\u591a\u5e26\u9ecf\u6db2\uff0c\u6709\u65f6\u53ef\u89c1\u8c46\u8150\u6e23\u6837\u7ec6\u5757(\u83cc\u843d)]
p178
sg5
g176
sg6
V(1)\u5927\u4fbf\u955c\u68c0:[\u6709\u771f\u83cc\u5b62\u5b50\u548c\u83cc\u4e1d](2)\u771f\u83cc\u57f9\u517b:[\u5982\u82bd\u80de\u6570\u91cf\u4e0d\u591a\uff0c\u5e94\u8fdb\u4e00\u6b65\u4ee5\u6c99\u6c0f\u57f9\u517b\u57fa\u4f5c\u771f\u83cc\u57f9\u517b\u786e\u8bca]
p179
ssV\u52a8\u8109\u5bfc\u7ba1\u672a\u95ed
p180
(dp181
g3
V(1)\u75c7\u72b6:[1]\u65e0\u75c7\u72b6:[\u52a8\u8109\u5bfc\u7ba1\u7ec6\u5c0f\u8005][2]\u53cd\u590d\u547c\u5438\u9053\u611f\u67d3$\u5582\u517b\u56f0\u96be$\u751f\u957f\u53d1\u80b2\u843d\u540e:[\u5bfc\u7ba1\u7c97\u5927\u8005](2)\u4f53\u5f81:[1]\u8fde\u7eed\u6027\u201c\u673a\u5668\u201d\u6837\u6742\u97f3:[\u80f8\u9aa8\u5de6\u7f18\u7b2c\u4e00\u808b\u95f4\u53ef\u95fb\u53ca\u8fde\u7eed\u6027\u201c\u673a\u5668\u201d\u6837\u6742\u97f3\uff0c\u5360\u6574\u4e2a\u6536\u7f29\u671f\u4e0e\u8212\u5f20\u671f\uff0c\u4e8e\u6536\u7f29\u672b\u671f\u6700\u54cd\uff0c\u6742\u97f3\u5411\u5de6\u9501\u9aa8\u4e0b\u3001\u9888\u90e8\u548c\u80cc\u90e8\u4f20\u5bfc\uff0c\u5f53\u5408\u5e76\u80ba\u52a8\u8109\u9ad9\u538b\u65f6\uff0c\u6742\u97f3\u7684\u8212\u5f20\u671f\u6210\u5206\u53ef\u80fd\u51cf\u5f31\u6216\u6d88\u5931\u3002\u65b0\u751f\u513f\u671f\u56e0\u80ba\u52a8\u8109\u538b\u529b\u8f83\u9ad8\uff0c\u5f80\u5f80\u4ec5\u542c\u5230\u6536\u7f29\u671f\u6742\u97f3\u3002\u5206\u6d41\u91cf\u5927\u8005\u56e0\u76f8\u5bf9\u6027\u4e8c\u5c16\u74e3\u72ed\u7a84\u800c\u5728\u5fc3\u5c16\u90e8\u53ef\u95fb\u53ca\u8f83\u77ed\u7684\u8212\u5f20\u671f\u6742\u97f3\u3002\u80ba\u52a8\u8109\u74e3\u533a\u7b2c\u4e8c\u97f3\u589e\u5f3a][2]\u6c34\u51b2\u8109$\u6307\u7532\u5e8a\u6bdb\u7ec6\u8840\u7ba1\u640f\u52a8:[\u7531\u4e8e\u8212\u5f20\u538b\u964d\u4f4e\uff0c\u8109\u538b\u5dee\u589e\u5bbd\uff0c\u53ef\u51fa\u73b0\u5468\u56f4\u8840\u7ba1\u4f53\u5f81\uff0c\u5982\u6c34\u51b2\u8109\u3001\u6307\u7532\u5e8a\u6bdb\u7ec6\u8840\u7ba1\u640f\u52a8\u7b49][3]\u6536\u7f29\u671f\u6742\u97f3:[\u65e9\u4ea7\u513f\u52a8\u8109\u5bfc\u7ba1\u672a\u95ed\u65f6\uff0c\u51fa\u73b0\u5468\u56f4\u52a8\u8109\u640f\u52a8\u5b8f\u5927\uff0c\u9501\u9aa8\u4e0b\u6216\u80a9\u80db\u95f4\u95fb\u53ca\u6536\u7f29\u671f\u6742\u97f3(\u5076\u95fb\u53ca\u8fde\u7eed\u6027\u6742\u97f3)\uff0c\u5fc3\u524d\u533a\u640f\u52a8\u660e\u663e](3)\u5e76\u53d1\u75c7:[1]\u611f\u67d3\u6027\u52a8\u8109\u708e$\u5fc3\u5185\u819c\u708e$\u5145\u8840\u6027\u5fc3\u529b\u8870\u7aed:[\u5e38\u89c1\u5e76\u53d1\u75c7][2]\u80ba\u52a8\u8109\u548c\u52a8\u8109\u5bfc\u7ba1\u7624\u6837\u6269\u5f20$\u52a8\u8109\u5bfc\u7ba1\u9499\u5316$\u8840\u6813\u5f62\u6210:[\u5c11\u89c1\u5e76\u53d1\u75c7]
p182
sg5
g180
sg6
V(1)\u5fc3\u7535\u56fe:[\u5de6\u5fc3\u5ba4\u80a5\u5927\uff0c\u5de6\u5fc3\u623f\u80a5\u5927\uff0c\u5de6\u5fc3\u5ba4\u80a5\u539a\uff0c\u53f3\u5fc3\u5ba4\u80a5\u539a\uff0c\u4e25\u91cd\u8005\u53f3\u5fc3\u5ba4\u80a5\u539a](2)X\u7ebf\u68c0\u67e5:[\u52a8\u8109\u5bfc\u7ba1\u7ec6\u8005\u5fc3\u8840\u7ba1\u5f71\u53ef\u6b63\u5e38\u3002\u5206\u6d41\u91cf\u5927\u8005\u793a\u5fc3\u80f8\u6bd4\u7387\u589e\u5927\uff0c\u5de6\u5fc3\u5ba4\u589e\u5927\uff0c\u5fc3\u5c16\u5411\u4e0b\u6269\u5f20\uff0c\u5de6\u5fc3\u623f\u4ea6\u8f7b\u5ea6\u589e\u5927\u3002\u80ba\u8840\u589e\u591a\uff0c\u80ba\u52a8\u8109\u6bb5\u7a81\u51fa\uff0c\u80ba\u95e8\u8840\u7ba1\u5f71\u589e\u7c97\u3002\u80ba\u52a8\u8109\u9ad8\u538b\u65f6\uff0c\u80ba\u95e8\u5904\u80ba\u52a8\u8109\u603b\u5e72\u53ca\u5176\u5206\u652f\u6269\u5927\uff0c\u800c\u8fdc\u7aef\u80ba\u91ce\u80ba\u5c0f\u52a8\u8109\u7ec6\u5c0f\uff0c\u53f3\u5fc3\u5ba4\u6709\u6269\u5927\u80a5\u539a\u5f81\u8c61\u3002\u4e3b\u52a8\u8109\u7ed3\u6b63\u5e38\u6216\u51f8\u51fa](3)\u8d85\u58f0\u5fc3\u52a8\u56fe:[\u4e8c\u7ef4\u8d85\u58f0\u5fc3\u52a8\u56fe\u53ef\u4ee5\u76f4\u63a5\u63a2\u67e5\u5230\u672a\u95ed\u5408\u7684\u52a8\u8109\u5bfc\u7ba1\u3002\u8109\u51b2\u591a\u666e\u52d2\u5728\u52a8\u8109\u5bfc\u7ba1\u5f00\u53e3\u5904\u4e5f\u53ef\u63a2\u6d4b\u5230\u5178\u578b\u7684\u6536\u7f29\u671f\u4e0e\u8212\u5f20\u671f\u8fde\u7eed\u6027\u6e4d\u6d41\u9891\u8c31\u3002\u53e0\u52a0\u5f69\u8272\u591a\u666e\u52d2\u53ef\u89c1\u7ea2\u8272\u8840\u6d41\u8baf\u53f7\u51fa\u81ea\u964d\u4e3b\u52a8\u8109\uff0c\u901a\u8fc7\u672a\u95ed\u5bfc\u7ba1\u6cbf\u80ba\u52a8\u8109\u5916\u4fa7\u58c1\u6d41\u52a8\uff1b\u5728\u91cd\u5ea6\u80ba\u52a8\u8109\u9ad8\u538b\u65f6\uff0c\u53ef\u89c1\u84dd\u8272\u8840\u6d41\u8baf\u53f7\u81ea\u80ba\u52a8\u8109\u7ecf\u672a\u95ed\u5bfc\u7ba1\u53cd\u5411\u8fdb\u5165\u964d\u4e3b\u52a8\u8109](4)\u5fc3\u5bfc\u7ba1\u68c0\u67e5:[\u5f53\u80ba\u8840\u7ba1\u963b\u529b\u589e\u52a0\u6216\u7591\u6709\u5176\u4ed6\u5408\u5e76\u7578\u5f62\u65f6\u6709\u5fc5\u8981\u65bd\u884c\u5fc3\u5bfc\u7ba1\u68c0\u67e5\uff0c\u53ef\u53d1\u73b0\u80ba\u52a8\u8109\u8840\u6c27\u542b\u91cf\u8f83\u53f3\u5fc3\u5ba4\u4e3a\u9ad8\u3002\u6709\u65f6\u5fc3\u5bfc\u7ba1\u53ef\u4ee5\u4ece\u80ba\u52a8\u8109\u901a\u8fc7\u672a\u95ed\u5bfc\u7ba1\u63d2\u5165\u964d\u4e3b\u52a8\u8109](5)\u5fc3\u8840\u7ba1\u9020\u5f71:[\u9006\u884c\u4e3b\u52a8\u8109\u9020\u5f71\u5bf9\u590d\u6742\u75c5\u4f8b\u7684\u8bca\u65ad\u6709\u91cd\u8981\u4ef7\u503c\u3002\u5728\u4e3b\u52a8\u8109\u6839\u90e8\u6ce8\u5165\u9020\u5f71\u5242\u53ef\u89c1\u4e3b\u52a8\u8109\u4e0e\u80ba\u52a8\u8109\u540c\u65f6\u663e\u5f71\uff0c\u672a\u95ed\u52a8\u8109\u5bfc\u7ba1\u4e5f\u80fd\u663e\u5f71]
p183
ssV\u8fdc\u7aef\u80be\u5c0f\u7ba1\u9178\u4e2d\u6bd2
p184
(dp185
g3
V(1)\u9ad8\u6c2f\u6027\u4ee3\u8c22\u6027\u9178\u4e2d\u6bd2$\u9ad8\u6c2f\u8840\u75c7$\u4f4e\u94be\u8840\u75c7\uff1b(2)\u78b1\u6027\u5c3f:[\u5373\u4f7f\u5728\u9178\u4e2d\u6bd2\u6216\u9178\u8d1f\u8377\u65f6\uff0c\u59cb\u7ec8\u5c3fpH\uff1e5.5](3)\u9ad8\u5c3f\u9499(4)\u538c\u98df$\u6076\u5fc3$\u5455\u5410$\u8179\u6cfb$\u4fbf\u79d8$\u751f\u957f\u53d1\u80b2\u843d\u540e:[\u6162\u6027\u4ee3\u8c22\u6027\u9178\u4e2d\u6bd2](5)\u5168\u8eab\u808c\u65e0\u529b\u548c\u5468\u671f\u6027\u9ebb\u75f9:[\u4f4e\u94be\u8840\u75c7\u75c5\u4eba](6)\u80be\u6027\u9aa8\u75c5:[\u5e38\u8868\u73b0\u4e3a\u8f6f\u9aa8\u75c5\u6216\u4f5d\u507b\u75c5\uff0c\u56df\u95e8\u5bbd\u5927\u4e14\u95ed\u5408\u5ef6\u8fdf\uff0c\u51fa\u7259\u5ef6\u8fdf\u6216\u7259\u9f7f\u65e9\u8131\uff0c\u7ef4\u751f\u7d20D\u6cbb\u7597\u6548\u679c\u5dee\u3002\u75c5\u4eba\u5e38\u6709\u9aa8\u75db\u3001\u9aa8\u6298\uff0c\u5c0f\u513f\u53ef\u6709\u9aa8\u9abc\u7578\u5f62\u3001\u4f8f\u5112\u7b49][1]\u8f6f\u9aa8\u75c5$\u4f5d\u507b\u75c5:[\u5e38\u8868\u73b0\u4e3a\u8f6f\u9aa8\u75c5\u6216\u4f5d\u507b\u75c5\uff0c\u56df\u95e8\u5bbd\u5927\u4e14\u95ed\u5408\u5ef6\u8fdf\uff0c\u51fa\u7259\u5ef6\u8fdf\u6216\u7259\u9f7f\u65e9\u8131]{1}\u56df\u95e8\u5bbd\u5927$\u56df\u95e8\u95ed\u5408\u5ef6\u8fdf$\u51fa\u7259\u5ef6\u8fdf$\u7259\u9f7f\u65e9\u8131[2]\u8eab\u6750:[\u75c5\u4eba\u5e38\u6709\u9aa8\u75db\u3001\u9aa8\u6298\uff0c\u5c0f\u513f\u53ef\u6709\u9aa8\u9abc\u7578\u5f62\u3001\u4f8f\u5112\u7b49]{1}\u9aa8\u75db$\u9aa8\u6298$\u9aa8\u9abc\u7578\u5f62$\u4f8f\u5112(7)\u8840\u5c3f$\u5c3f\u75db$\u6897\u963b\u6027\u80be\u75c5:[\u7531\u4e8e\u80be\u7ed3\u77f3\u548c\u80be\u9499\u5316\uff0c\u60a3\u513f\u53ef\u6709\u8840\u5c3f\u3001\u5c3f\u75db\u7b49\u8868\u73b0\uff0c\u6613\u5bfc\u81f4\u7ee7\u53d1\u611f\u67d3\u4e0e\u6897\u963b\u6027\u80be\u75c5](8)\u591a\u996e$\u591a\u5c3f$\u70e6\u6e34:[\u80be\u810f\u6d53\u7f29\u529f\u80fd\u53d7\u635f\u65f6]
p186
sg5
g184
sg6
V(1)\u8840\u6db2\u751f\u5316\u68c0\u67e5:[\u8840\u6d46pH\u3001 \u6216CO2CP\u964d\u4f4e\uff1b\u8840\u6c2f\u5347\u9ad8\uff0c\u8840\u94be\u3001\u8840\u94a0\u964d\u4f4e\uff0c\u8840\u9499\u548c\u8840\u78f7\u504f\u4f4e\uff0c\u9634\u79bb\u5b50\u95f4\u9699\u6b63\u5e38\uff1b\u8840ALP\u5347\u9ad8\u3002](2)\u5c3f\u6db2\u68c0\u67e5:[\u5c3f\u6bd4\u91cd\u4f4e\uff1b\u5c3fpH\uff1e5.\u5c3f\u94f5\u663e\u8457\u51cf\u5c11](3)\u6392\u6cc4\u5206\u6570\u68c0\u6d4b:[\uff1c5%\u65b9\u6cd5:\u4ece\u6bcf\u65e5\u53e3\u670d\u78b3\u9178\u6c22\u94a02\uff5e10mmol/cg\u8d77\uff0c\u9010\u65e5\u589e\u52a0\u5242\u91cf\u81f3\u9178\u4e2d\u6bd2\u7ea0\u6b63\uff0c\u7136\u540e\u6d4b\u5b9a\u8840\u548c\u5c3f\u4e2d\u548c\u808c\u9150(Cr)\uff0c\u6309\u4e0b\u5217\u5206\u5f0f\u8ba1\u7b97:\u6392\u6cc4\u5206\u6570=(\u5c3f/\u8840)(\u5c3fCr/\u8840Cr)100](4)\u80be\u529f\u80fd\u68c0\u67e5:[\u65e9\u671f\u4e3a\u80be\u5c0f\u7ba1\u529f\u80fd\u964d\u4f4e\u3002\u5f85\u80be\u7ed3\u77f3\u3001\u80be\u9499\u5316\u5bfc\u81f4\u6897\u963b\u6027\u80be\u75c5\u65f6\uff0c\u53ef\u51fa\u73b0\u80be\u5c0f\u7403\u6ee4\u8fc7\u7387\u4e0b\u964d\uff0c\u8840\u808c\u9150\u548cBUN\u5347\u9ad8](5)X\u7ebf\u68c0\u67e5:[\u9aa8\u5bc6\u5ea6\u666e\u904d\u964d\u4f4e\u548c\u4f5d\u507b\u75c5\u8868\u73b0\uff0c\u53ef\u89c1\u9648\u65e7\u6027\u9aa8\u6298\u3002\u8179\u90e8\u5e73\u7247\u53ef\u89c1\u6ccc\u5c3f\u7cfb\u7ed3\u77f3\u5f71\u548c\u80be\u9499\u5316](6)\u5224\u522b\u8bd5\u9a8c:[\u5bf9\u4e8e\u4e0d\u5178\u578b\u75c5\u4f8b\u53ca\u4e0d\u5b8c\u5168\u578bRTA\u53ca\u5224\u522b\u673a\u5236\u7c7b\u578b\uff0c\u6709\u8d56\u4e8e\u4e0b\u5217\u8bd5\u9a8c\u8bca\u65ad\u65b9\u6cd5][1]\u5c3fpH\u53caNH4Cl:[\u8d1f\u8377\u8bd5\u9a8c\u9178\u4e2d\u6bd2\u65f6\u80be\u5c0f\u7ba1\u6cccH+\u589e\u52a0\uff0c\u5c3fpH\u4e0b\u964d\u3002\u901a\u5e38\u8840PH\uff1c7.35\u65f6\uff0c\u5c3fpH\u5e94\uff1c5.5\u3002NH4Cl\u8d1f\u8377\u8bd5\u9a8c\u5bf9\u660e\u663e\u9178\u4e2d\u6bd2\u8005\u4e0d\u5b9c\u5e94\u7528\u3002\u5f53\u8840 \uff0c\u964d\u81f320mmol/L\u4ee5\u4e0b\u65f6\uff0c\u5c3fpH\uff1e5.5\uff0c\u5177\u6709\u8bca\u65ad\u4ef7\u503c\u3002\u5c3fpH\uff1c5.5\uff0c\u5219\u53ef\u6392\u9664\u672c\u75c7][2]\u5c3fTA\u548c\u5c3f\u7684\u6d4b\u5b9a:[\u2160\u578bRTA\u8005\u5c3fTA\u548c\u5c3f\u6392\u51fa\u660e\u663e\u51cf\u5c11\uff0c\u4f46\u2161\u578bRTA\u5c3f \u6392\u51fa\u91cf\u6b63\u5e38\uff0c\u751a\u81f3\u4ee3\u507f\u589e\u52a0\u3002\u6b64\u8bd5\u9a8c\u53ef\u4f30\u8ba1\u2160\u578bRTA\u9178\u5316\u529f\u80fd\u635f\u5bb3\u7a0b\u5ea6\u53ca\u9274\u522b\u2160\u578b\u548c\u2161\u578b][3]\u5c3f\u4e8c\u6c27\u5316\u78b3\u5206\u538b(U-PCO2)\u6d4b\u5b9a:[\u5728\u78b1\u6027\u5c3f\u7684\u6761\u4ef6\u4e0b\uff0c\u8fdc\u7aef\u80be\u5c0f\u7ba1\u6cccH+\u589e\u52a0\uff0cH2CO3\u5ef6\u8fdf\u8131\u6c34\uff0c\u662fU-PCO2\u5347\u9ad8\u7684\u4e3b\u8981\u539f\u56e0\uff0c\u4ee5U-PCO2\u4f5c\u4e3a\u5224\u65ad\u5b8c\u5168\u6027\u6216\u4e0d\u5b8c\u5168\u6027\u2160\u578bRTA\u7684H+\u5206\u6ccc\u7f3a\u9677\u3002\u6b63\u5e38U-PCO2\uff1e30mmHg\uff0c\u5b8c\u5168\u6027\u6216\u4e0d\u5b8c\u5168\u6027\u2160\u578bRTAH+\u5206\u6ccc\u7f3a\u9677\u8005\uff1c30mmHg\u3002\u5728\u672c\u8bd5\u9a8c\u4e2d\u5e94\u6ce8\u610f\u51fa\u73b0\u4ee3\u8c22\u6027\u78b1\u4e2d\u6bd2\uff0c\u4f4e\u8840\u94be\uff0c\u6c34\u6f74\u7559\u7b49\u4e0d\u826f\u53cd\u5e94]
p187
ssV\u8425\u517b\u6027\u7ef4\u751f\u7d20D\u7f3a\u4e4f\u4f5d\u507b\u75c5
p188
(dp189
g3
V(1)\u521d\u671f(\u65e9\u671f):[1]\u53d1\u75c5\u5e74\u9f84:[\u591a\u89c16\u4e2a\u6708\u4ee5\u5185\uff0c\u7279\u522b\u662f3\u4e2a\u6708\u4ee5\u5185\u7684\u5c0f\u5a74\u513f][2]\u6613\u6fc0\u60f9$\u70e6\u95f9$\u6c57\u591a\u523a\u6fc0\u5934\u76ae\u800c\u6447\u5934:[\u591a\u4e3a\u795e\u7ecf\u5174\u594b\u6027\u589e\u9ad8\u7684\u8868\u73b0\uff0c\u5982\u6613\u6fc0\u60f9\u3001\u70e6\u95f9\u3001\u6c57\u591a\u523a\u6fc0\u5934\u76ae\u800c\u6447\u5934\u7b49,\u4f46\u8fd9\u4e9b\u5e76\u975e\u4f5d\u507b\u75c5\u7684\u7279\u5f02\u75c7\u72b6\uff0c\u4ec5\u4f5c\u4e3a\u4e34\u5e8a\u65e9\u671f\u8bca\u65ad\u7684\u53c2\u8003\u4f9d\u636e][3]\u8840\u6e0525-(OH)D3\u4e0b\u964d(\u6b63\u5e3811\uff5e60ng/ml)\u3001PTH\u5347\u9ad8\u3001\u4e00\u8fc7\u6027\u8840\u9499\u4e0b\u964d\u3001\u8840\u78f7\u964d\u4f4e\u3001\u78b1\u6027\u78f7\u9178\u9176\u6b63\u5e38\u6216\u7a0d\u9ad8[4]\u65e0\u9aa8\u9abc\u75c5\u53d8$\u9aa8\u9abcX\u7ebf\u6b63\u5e38$\u9499\u5316\u5e26\u7a0d\u6a21\u7cca(2)\u6d3b\u52a8\u671f(\u6fc0\u671f):[1]PTH\u529f\u80fd\u4ea2\u8fdb$\u9499\u78f7\u4ee3\u8c22\u5931\u5e38$\u9aa8\u9abc\u6539\u53d8:[\u65e9\u671f\u7ef4\u751f\u7d20D\u7f3a\u4e4f\u7684\u5a74\u513f\u672a\u7ecf\u6cbb\u7597\uff0c\u7ee7\u7eed\u52a0\u91cd\uff0c\u51fa\u73b0PTH\u529f\u80fd\u4ea2\u8fdb\u548c\u9499\u3001\u78f7\u4ee3\u8c22\u5931\u5e38\u7684\u5178\u578b\u9aa8\u9abc\u6539\u53d8\uff0c\u8868\u73b0\u90e8\u4f4d\u4e0e\u8be5\u5e74\u9f84\u9aa8\u9abc\u751f\u957f\u901f\u5ea6\u8f83\u5feb\u7684\u90e8\u4f4d\u76f8\u4e00\u81f4][2]\u9885\u9aa8\u6539\u53d8:{1}\u538b\u4e52\u4e53\u7403\u6837\u611f\u89c9:[6\u6708\u9f84\u4ee5\u5185\u5a74\u513f][\u524d\u56df\u8fb9\u8f83\u8f6f\uff0c\u9885\u9aa8\u8584\uff0c\u68c0\u67e5\u8005\u7528\u53cc\u624b\u56fa\u5b9a\u5a74\u513f\u5934\u90e8\uff0c\u6307\u5c16\u7a0d\u7528\u529b\u538b\u8feb\u6795\u9aa8\u6216\u9876\u9aa8\u7684\u540e\u90e8\uff0c\u53ef\u6709\u538b\u4e52\u4e53\u7403\u6837\u7684\u611f\u89c9]{2}\u9885\u9aa8\u8f6f\u5316\u6d88\u5931\u3001\u989d\u9aa8\u548c\u9876\u9aa8\u4e2d\u5fc3\u589e\u539a:[6\u4e2a\u6708\u9f84\u4ee5\u540e]{3}\u201c\u65b9\u76d2\u6837\u201d\u5934\u578b:[7\uff5e8\u4e2a\u6708][\u5373\u65b9\u5934(\u4ece\u4e0a\u5411\u4e0b\u770b)\uff0c\u5934\u56f4\u4e5f\u8f83\u6b63\u5e38\u589e\u5927][3]\u80f8\u5ed3\u6539\u53d8:{1}\u4f5d\u507b\u75c5\u4e32\u73e0:[\u9aa8\u9aba\u7aef\u56e0\u9aa8\u6837\u7ec4\u7ec7\u5806\u79ef\u800c\u81a8\u5927\uff0c\u6cbf\u808b\u9aa8\u65b9\u5411\u4e8e\u808b\u9aa8\u4e0e\u808b\u8f6f\u9aa8\u4ea4\u754c\u5904\u53ef\u626a\u53ca\u5706\u5f62\u9686\u8d77\uff0c\u4ece\u4e0a\u81f3\u4e0b\u5982\u4e32\u73e0\u6837\u7a81\u8d77\uff0c\u4ee5\u7b2c7\uff5e10\u808b\u9aa8\u6700\u660e\u663e\uff0c\u79f0\u4f5d\u507b\u75c5\u4e32\u73e0]{2}\u9e21\u80f8\u6837\u7578\u5f62:[1\u5c81\u5de6\u53f3\u7684\u5c0f\u513f\u53ef\u89c1\u5230\u80f8\u9aa8\u548c\u90bb\u8fd1\u7684\u8f6f\u9aa8\u5411\u524d\u7a81\u8d77\uff0c\u5f62\u6210\u201c\u9e21\u80f8\u6837\u201d\u7578\u5f62]{3}\u808b\u8188\u6c9f$\u90dd\u6c0f\u6c9f:[\u4e25\u91cd\u4f5d\u507b\u75c5\u5c0f\u513f\u80f8\u5ed3\u7684\u4e0b\u7f18\u5f62\u6210\u6c34\u5e73\u51f9\u9677\uff0c\u5373\u808b\u8188\u6c9f\u6216\u90dd\u6c0f\u6c9f][4]\u56db\u80a2\u6539\u53d8:[\u591a\u89c1\u4e8e6\u6708\u4ee5\u4e0a\u5a74\u5e7c\u513f\uff0c\u624b\u8155\u3001\u8db3\u8e1d\u90e8\u53ef\u5f62\u6210\u949d\u5706\u5f62\u73af\u72b6\u9686\u8d77\uff0c\u79f0\u4f5d\u507b\u75c5\u201c\u624b\u956f\u201d\u3001\u201c\u8db3\u956f\u201d\u3002\u7531\u4e8e\u9aa8\u8d28\u8f6f\u5316\u4e0e\u808c\u8089\u5173\u8282\u677e\u5f1b\uff0c\u5c0f\u513f\u5f00\u59cb\u7ad9\u7acb\u4e0e\u884c\u8d70\u540e\u53cc\u4e0b\u80a2\u8d1f\u91cd\uff0c\u53ef\u51fa\u73b0\u80a1\u9aa8\u3001\u80eb\u9aa8\u3001\u8153\u9aa8\u5f2f\u66f2\uff0c\u5f62\u6210\u4e25\u91cd\u7684\u819d\u5185\u7ffb(O\u5f62\u817f)\u6216\u819d\u5916\u7ffb(X\u5f62\u817f)\uff0c\u6709\u65f6\u6709K\u5f62\u6837\u4e0b\u80a2\u7578\u5f62][5]\u810a\u67f1\u7578\u5f62\u540e\u7a81\u6216\u4fa7\u5f2f:[\u60a3\u513f\u4f1a\u5750\u4e0e\u7ad9\u7acb\u540e\uff0c\u56e0\u97e7\u5e26\u677e\u5f1b\u53ef\u81f4\u810a\u67f1\u7578\u5f62\u540e\u7a81\u6216\u4fa7\u5f2f][6]\u808c\u5f20\u529b\u964d\u4f4e$\u808c\u529b\u51cf\u5f31:[\u4e25\u91cd\u4f4e\u8840\u78f7\u4f7f\u808c\u8089\u7cd6\u4ee3\u8c22\u969c\u788d\uff0c\u4f7f\u5168\u8eab\u808c\u8089\u677e\u5f1b\uff0c\u808c\u5f20\u529b\u964d\u4f4e\u548c\u808c\u529b\u51cf\u5f31](3)\u6062\u590d\u671f:[\u4ee5\u4e0a\u4efb\u4f55\u671f\u7ecf\u6cbb\u7597\u53ca\u65e5\u5149\u7167\u5c04\u540e\uff0c\u4e34\u5e8a\u75c7\u72b6\u548c\u4f53\u5f81\u9010\u6e10\u51cf\u8f7b\u6216\u6d88\u5931][1]\u8840\u9499$\u78f7\u6062\u590d\u6b63\u5e38[2]\u78b1\u6027\u78f7\u9178\u9176\u964d\u81f3\u6b63\u5e38\u6c34\u5e73:[\u7ea6\u97001\uff5e2\u4e2a\u6708][3]\u9aa8\u9abc\u6062\u590d\u6b63\u5e38:[\u6cbb\u75972\uff5e3\u5468\u540e\u9aa8\u9abcX\u7ebf\u6539\u53d8\u6709\u6240\u6539\u5584\uff0c\u51fa\u73b0\u4e0d\u89c4\u5219\u7684\u9499\u5316\u7ebf\uff0c\u4ee5\u540e\u9499\u5316\u5e26\u81f4\u5bc6\u589e\u539a\uff0c\u9aa8\u9aba\u8f6f\u9aa8\u76d8\uff1c2mm\uff0c\u9010\u6e10\u6062\u590d\u6b63\u5e38](4)\u540e\u9057\u75c7\u671f:[1]\u9aa8\u9abc\u7578\u5f62:[\u591a\u89c1\u4e8e2\u5c81\u4ee5\u540e\u7684\u513f\u7ae5][\u56e0\u5a74\u5e7c\u513f\u671f\u4e25\u91cd\u4f5d\u507b\u75c5\uff0c\u6b8b\u7559\u4e0d\u540c\u7a0b\u5ea6\u7684\u9aa8\u9abc\u7578\u5f62\u3002\u65e0\u4efb\u4f55\u4e34\u5e8a\u75c7\u72b6\uff0c\u8840\u751f\u5316\u6b63\u5e38\uff0cX\u7ebf\u68c0\u67e5\u9aa8\u9abc\u5e72\u9aba\u7aef\u75c5\u53d8\u6d88\u5931\uff0c\u4e0d\u9700\u6cbb\u7597]
p190
sg5
g188
sg6
V(1)\u8840\u6e05\u9499$\u8840\u6e05\u78f7$\u8840\u6e05\u78b1\u6027\u78f7\u9178\u9176:[\u662f\u8bca\u65ad\u7ef4\u751f\u7d20D\u7f3a\u4e4f\u4f5d\u507b\u75c5\u6700\u5e38\u7528\u7684\u6307\u6807\uff0c\u5728\u57fa\u5c42\u5e7f\u6cdb\u5f00\u5c55\uff0c\u6ce8\u610f\u4f5d\u507b\u75c5\u65f6\u8840\u6e05\u9499\u53ea\u5728\u65e9\u671f\u4e00\u8fc7\u6027\u964d\u4f4e\uff0c\u5176\u4ed6\u5404\u671f\u5747\u4e3a\u6b63\u5e38\uff0c\u800c\u78f7\u964d\u4f4e\u548cAKP\u589e\u52a0\u53ef\u4ee5\u8bca\u65ad\u3002\u6d3b\u52a8\u671f\u8840\u751f\u5316\u9664\u8840\u6e05\u9499\u7a0d\u4f4e\u5916\uff0c\u5176\u4f59\u6307\u6807\u6539\u53d8\u66f4\u52a0\u663e\u8457](2)\u9aa8\u9abcX\u7ebf:[\u662f\u8bca\u65ad\u7ef4\u751f\u7d20D\u7f3a\u4e4f\u4f5d\u507b\u75c5\u91d1\u6807\u51c6\uff0c\u57fa\u5c42\u5747\u80fd\u68c0\u6d4b\u3002\u6d3b\u52a8\u671fX\u7ebf\u663e\u793a\u957f\u9aa8\u9499\u5316\u5e26\u6d88\u5931\uff0c\u5e72\u9aba\u7aef\u5448\u6bdb\u5237\u6837\u3001\u676f\u53e3\u72b6\u6539\u53d8\uff1b\u9aa8\u9aba\u8f6f\u9aa8\u76d8(\u751f\u957f\u677f)\u589e\u5bbd(\uff1e2mm)\u9aa8\u8d28\u7a00\u758f\uff0c\u9aa8\u76ae\u8d28\u53d8\u8584\uff1b\u53ef\u6709\u9aa8\u5e72\u5f2f\u66f2\u7578\u5f62\u6216\u9752\u679d\u9aa8\u6298\uff0c\u9aa8\u6298\u53ef\u65e0\u4e34\u5e8a\u75c7\u72b6](3)\u8840\u6e0525-(OH)D3:[1]\u65b9\u6cd5:[\u76ee\u524d\u6709ELASA\u3001\u653e\u5c04\u514d\u75ab\u6cd5\u3001\u5316\u5b66\u53d1\u5149\u6cd5\u3001HPLC\uff0cLC/MS/MS5\u79cd\u65b9\u6cd5\u53ef\u4ee5\u68c0\u6d4b,HPLC\u662f\u68c0\u67e5\u7ef4\u751f\u7d20D\u7f3a\u4e4f\u7684\u91d1\u6807\u51c6][2]\u7ed3\u679c:{1}\uff1e50nmol/L(20ng/ml):[\u6b63\u5e38]{2}37.5\uff5e50nmol/L(15\uff5e20ng/ml):[\u7ef4\u751f\u7d20D\u4e0d\u8db3]{3}\u226437.5nmol/L(15ng/ml):[\u7ef4\u751f\u7d20D\u7f3a\u4e4f]{4}\u226412.5nmoL/L(5ng/ml):[\u7ef4\u751f\u7d20D\u4e25\u91cd\u7f3a\u4e4f]{5}\uff1e250nmol/L(100ng/ml):[\u7ef4\u751f\u7d20D\u8fc7\u91cf]{6}\uff1e375nmoL/L(150ng/ml):[\u7ef4\u751f\u7d20D\u4e2d\u6bd2]
p191
ssV\u8f6e\u72b6\u75c5\u6bd2\u80a0\u708e
p192
(dp193
g3
V(1)\u8d77\u75c5\u6025(2)\u53d1\u70ed$\u4e0a\u547c\u5438\u9053\u611f\u67d3\u75c7\u72b6$\u65e0\u660e\u663e\u611f\u67d3\u4e2d\u6bd2\u75c7\u72b6\u3002(3)\u5455\u5410:[\u75c5\u521d1\uff5e2\u5929\u53d1\u751f\uff0c\u6570\u65e5\u540e\u5455\u5410\u6e10\u505c](4)\u8179\u6cfb:[\u968f\u540e\u51fa\u73b0,\u5927\u4fbf\u6b21\u6570\u53ca\u6c34\u5206\u591a\uff0c\u5448\u9ec4\u8272\u6c34\u6837\u6216\u86cb\u82b1\u6837\u4fbf\u5e26\u5c11\u91cf\u9ecf\u6db2\uff0c\u65e0\u8165\u81ed\u5473\uff0c\u6570\u65e5\u540e\u8179\u6cfb\u51cf\u8f7b](5)\u8131\u6c34$\u9178\u4e2d\u6bd2\u53ca\u7535\u89e3\u8d28\u7d0a\u4e71$\u60ca\u53a5(6)\u8840\u6e05\u5fc3\u808c\u9176\u8c31\u5f02\u5e38(7)\u81ea\u9650\u6027\u75be\u75c5:[\u81ea\u7136\u75c5\u7a0b\u7ea63\uff5e8\u5929\uff0c\u5c11\u6570\u8f83\u957f]
p194
sg5
g192
sg6
V(1)\u5927\u4fbf\u663e\u5fae\u955c\u68c0\u67e5\uff1b[\u5076\u6709\u5c11\u91cf\u767d\u7ec6\u80de\uff0c\u611f\u67d3\u540e1\uff5e3\u5929\u5373\u6709\u5927\u91cf\u75c5\u6bd2\u81ea\u5927\u4fbf\u4e2d\u6392\u51fa\uff0c\u6700\u957f\u53ef\u8fbe6\u5929](2)\u8840\u6e05\u6297\u4f53\u68c0\u6d4b;[\u4e00\u822c\u5728\u611f\u67d3\u540e3\u5468\u4e0a\u5347](3)\u7535\u955c\u68c0\u6d4b$PCR\u53ca\u6838\u9178\u63a2\u9488\u6280\u672f:[\u68c0\u6d4b\u75c5\u6bd2](4)ELISA\u6cd5$\u80f6\u4f53\u91d1\u65b9\u6cd5:[\u68c0\u6d4b\u75c5\u6bd2\u6297\u539f]
p195
ssV\u766b\u75eb
p196
(dp197
g3
V(1)\u5c40\u7076\u6027\u766b\u75eb\u53d1\u4f5c:[\u795e\u7ecf\u5143\u8fc7\u5ea6\u653e\u7535\u8d77\u59cb\u4e8e\u4e00\u4fa7\u5927\u8111\u7684\u67d0\u4e00\u90e8\u4f4d\uff0c\u75c7\u72b6\u5f00\u59cb\u4ec5\u9650\u4e8e\u8eab\u4f53\u7684\u4e00\u4fa7][1]\u5355\u7eaf\u5c40\u7076\u6027\u53d1\u4f5c:{1}\u8fd0\u52a8\u6027\u53d1\u4f5c:[\u591a\u8868\u73b0\u4e3a\u4e00\u4fa7\u67d0\u90e8\u4f4d\u7684\u62bd\u6410\uff0c\u5982\u80a2\u4f53\u3001\u53e3\u89d2\u3001\u773c\u7751\u7b49\u5904\u3002\u4e5f\u53ef\u8868\u73b0\u4e3a\u65cb\u8f6c\u6027\u53d1\u4f5c\u3001\u59ff\u52bf\u6027\u53d1\u4f5c\u6216\u6770\u514b\u900a\u53d1\u4f5c(Jachson seizures)\u7b49]{2}\u611f\u89c9\u6027\u53d1\u4f5c:[\u8868\u73b0\u4e3a\u53d1\u4f5c\u6027\u8eaf\u4f53\u611f\u89c9\u5f02\u5e38\u6216\u7279\u6b8a\u611f\u89c9\u5f02\u5e38][2]\u590d\u6742\u5c40\u7076\u6027\u53d1\u4f5c:[\u53d1\u4f5c\u4f34\u6709\u4e0d\u540c\u7a0b\u5ea6\u7684\u610f\u8bc6\u969c\u788d\uff0c\u53ef\u6709\u7cbe\u795e\u75c7\u72b6\uff0c\u53cd\u590d\u523b\u677f\u7684\u81ea\u52a8\u75c7(automatism)\uff0c\u5982\u541e\u54bd\u3001\u5480\u56bc\u3001\u8214\u5507\u3001\u62cd\u624b\u3001\u6478\u7d22\u3001\u81ea\u8a00\u81ea\u8bed\u7b49](2)\u5168\u9762\u6027\u766b\u75eb\u53d1\u4f5c:\u53d1\u4f5c\u4e00\u5f00\u59cb\u5c31\u6709\u4e24\u4fa7\u534a\u7403\u540c\u65f6\u653e\u7535\uff0c\u53d1\u4f5c\u65f6\u5e38\u4f34\u6709\u610f\u8bc6\u969c\u788d\u3002[1]\u5931\u795e\u53d1\u4f5c:[\u4ee5\u610f\u8bc6\u969c\u788d\u4e3a\u4e3b\u8981\u75c7\u72b6\u3002\u5178\u578b\u5931\u795e\u53d1\u4f5c\u65f6\u8d77\u75c5\u7a81\u7136\uff0c\u6ca1\u6709\u5148\u5146\uff0c\u6b63\u5728\u8fdb\u884c\u7684\u6d3b\u52a8\u505c\u6b62\uff0c\u4e24\u773c\u51dd\u89c6\uff0c\u6301\u7eed\u6570\u79d2\u949f\u6062\u590d\uff0c\u4e00\u822c\u4e0d\u8d85\u8fc730\u79d2\uff0c\u53d1\u4f5c\u540e\u5e38\u53ef\u7ee7\u7eed\u539f\u6765\u7684\u6d3b\u52a8\uff0c\u5bf9\u53d1\u4f5c\u4e0d\u80fd\u56de\u5fc6\u3002\u5931\u795e\u53d1\u4f5c\u5e38\u53d1\u4f5c\u9891\u7e41\uff0c\u6bcf\u5929\u6570\u6b21\u81f3\u6570\u5341\u6b21\uff0c\u751a\u81f3\u4e0a\u767e\u6b21\u3002\u53d1\u4f5c\u65f6\u8111\u7535\u56fe\u793a\u4e24\u4fa7\u5bf9\u79f0\u3001\u540c\u6b65\u3001\u5f25\u6f2b\u60273Hz\u7684\u68d8\u6162\u590d\u5408\u6ce2\uff0c\u8fc7\u5ea6\u6362\u6c14\u5bb9\u6613\u8bf1\u53d1][2]\u5f3a\u76f4-\u9635\u631b\u53d1\u4f5c:[\u53d1\u4f5c\u65f6\u610f\u8bc6\u7a81\u7136\u4e27\u5931\uff0c\u5168\u8eab\u808c\u8089\u5f3a\u76f4\u6536\u7f29\uff1b\u4e5f\u53ef\u5c16\u53eb\u4e00\u58f0\u7a81\u7136\u8dcc\u5012\u3001\u547c\u5438\u6682\u505c\u3001\u9762\u8272\u53d1\u7ec0\u3001\u53cc\u773c\u4e0a\u7ffb\u3001\u77b3\u5b54\u6563\u5927\u3001\u56db\u80a2\u8eaf\u5e72\u5f3a\u76f4\uff0c\u6709\u65f6\u5448\u89d2\u5f13\u53cd\u5f20\u72b6\u6001\uff1b\u6301\u7eed\u6570\u79d2\u81f3\u6570\u5341\u79d2\u949f\u8fdb\u5165\u9635\u631b\u671f\uff0c\u51fa\u73b0\u5168\u8eab\u8282\u5f8b\u6027\u62bd\u6410\uff0c\u6301\u7eed30\u79d2\u6216\u66f4\u957f\u65f6\u95f4\u9010\u6e10\u505c\u6b62\u3002\u9635\u631b\u505c\u6b62\u540e\u60a3\u513f\u53ef\u6709\u5c3f\u5931\u7981\u3002\u53d1\u4f5c\u540e\u5e38\u8868\u73b0\u4e3a\u5934\u75db\u3001\u55dc\u7761\u3001\u4e4f\u529b\uff0c\u751a\u81f3\u5728\u5b8c\u5168\u6e05\u9192\u524d\u53ef\u51fa\u73b0\u81ea\u52a8\u75c7\uff0c\u79f0\u4e4b\u4e3a\u53d1\u4f5c\u540e\u72b6\u6001\u3002\u8111\u7535\u56fe\u5728\u5f3a\u76f4\u671f\u8868\u73b0\u4e3a\u6bcf\u79d210\u6b21\u621610\u6b21\u4ee5\u4e0a\u7684\u5feb\u6d3b\u52a8\uff0c\u9891\u7387\u6e10\u6162\uff0c\u6ce2\u5e45\u6e10\u9ad8\uff1b\u9635\u631b\u671f\u9664\u9ad8\u5e45\u68d8\u6ce2\u5916\uff0c\u95f4\u65ad\u51fa\u73b0\u6162\u6ce2\u3002\u53d1\u4f5c\u95f4\u671f\u53ef\u6709\u68d8\u6162\u6ce2\u3001\u591a\u68d8\u6162\u6ce2\u6216\u5c16\u6162\u6ce2][3]\u5f3a\u76f4\u6027\u53d1\u4f5c:[\u8868\u73b0\u4e3a\u6301\u7eed(5\uff5e20\u79d2\u6216\u66f4\u957f)\u800c\u5f3a\u70c8\u7684\u808c\u8089\u6536\u7f29\uff0c\u4f7f\u8eab\u4f53\u56fa\u5b9a\u4e8e\u67d0\u79cd\u7279\u6b8a\u4f53\u4f4d\uff0c\u5982\u5934\u773c\u504f\u659c\u3001\u53cc\u81c2\u5916\u65cb\u3001\u547c\u5438\u6682\u505c\u3001\u89d2\u5f13\u53cd\u5f20\u7b49\u3002\u53d1\u4f5c\u65f6\u8111\u7535\u56fe\u4e3a\u4f4e\u6ce2\u5e459\uff5e10Hz\u4ee5\u4e0a\u7684\u5feb\u6d3b\u52a8\u6216\u5feb\u8282\u5f8b\u591a\u68d8\u6ce2][4]\u9635\u631b\u6027\u53d1\u4f5c:[\u80a2\u4f53\u3001\u8eaf\u5e72\u6216\u9762\u90e8\u5448\u8282\u5f8b\u6027\u62bd\u52a8\u3002\u53d1\u4f5c\u65f6\u8111\u7535\u56fe\u4e3a10Hz\u621610Hz\u4ee5\u4e0a\u7684\u5feb\u6d3b\u52a8\u53ca\u6162\u6ce2\uff0c\u6709\u65f6\u4e3a\u68d8\u6162\u6ce2][5]\u808c\u9635\u631b\u53d1\u4f5c:[\u8868\u73b0\u4e3a\u67d0\u90e8\u4f4d\u7684\u808c\u8089\u6216\u808c\u7fa4\uff0c\u751a\u81f3\u5168\u8eab\u808c\u8089\u7a81\u7136\u5feb\u901f\u6709\u529b\u5730\u6536\u7f29\uff0c\u5f15\u8d77\u80a2\u4f53\u3001\u9762\u90e8\u3001\u8eaf\u5e72\u6216\u5168\u8eab\u7a81\u7136\u800c\u5feb\u901f\u7684\u62bd\u52a8\u3002\u53ef\u5355\u4e2a\u53d1\u751f\uff0c\u4e5f\u53ef\u4e3a\u8fde\u7eed\u7684\u53d1\u4f5c\u3002\u53d1\u4f5c\u65f6\u8111\u7535\u56fe\u4e3a\u591a\u68d8\u6162\u6ce2\u6216\u68d8\u6162\u3001\u5c16\u6162\u7efc\u5408\u6ce2][6]\u5931\u5f20\u529b\u53d1\u4f5c:[\u53d1\u4f5c\u65f6\u7531\u4e8e\u808c\u5f20\u529b\u7684\u7a81\u7136\u4e27\u5931\u800c\u5f15\u8d77\u5168\u8eab\u6216\u8005\u90e8\u5206\u51fa\u73b0\u6cbf\u91cd\u529b\u4f5c\u7528\u65b9\u5411\u7684\u8dcc\u5012\u53d1\u4f5c\uff0c\u53ef\u8868\u73b0\u4e3a\u5934\u4e0b\u5782\u3001\u53cc\u80a9\u4e0b\u5782\u3001\u5c48\u9acb\u5c48\u819d\u6216\u8dcc\u5750\uff0f\u8dcc\u5012\u3002\u8111\u7535\u56fe\u5728\u53d1\u4f5c\u65f6\u4e3a\u5168\u5bfc\u591a\u68d8\u6162\u6ce2\u6216\u68d8\u6162\u6ce2](3)\u766b\u75eb\u7efc\u5408\u5f81:[\u7531\u4e00\u7ec4\u5177\u6709\u76f8\u8fd1\u7684\u7279\u5b9atag_lcbx\u548c\u7535\u751f\u7406\u6539\u53d8\u7684\u766b\u75eb(\u5373\u7535-\u4e34\u5e8a\u7efc\u5408\u5f81)\u3002\u4e34\u5e8a\u4e0a\u5e38\u7ed3\u5408\u53d1\u75c5\u5e74\u9f84\u3001\u53d1\u4f5c\u7279\u70b9\u3001\u75c5\u56e0\u5b66\u3001\u4f34\u968f\u75c7\u72b6\u3001\u5bb6\u65cf\u53f2\u3001\u8111\u7535\u56fe\u53ca\u5f71\u50cf\u5b66\u7279\u5f81\u7b49\u6240\u6709\u76f8\u5173\u8d44\u6599\uff0c\u7efc\u5408\u505a\u51fa\u67d0\u79cd\u766b\u75eb\u7efc\u5408\u5f81\u7684\u8bca\u65ad\u3002\u660e\u786e\u766b\u75eb\u7efc\u5408\u5f81\u5bf9\u4e8e\u6cbb\u7597\u9009\u62e9\u3001\u5224\u65ad\u9884\u540e\u7b49\u65b9\u9762\u90fd\u5177\u6709\u91cd\u8981\u6307\u5bfc\u610f\u4e49\u3002\u4f46\u662f\uff0c\u9700\u8981\u6ce8\u610f\u7684\u662f\uff0c\u5e76\u4e0d\u662f\u6240\u6709\u766b\u75eb\u90fd\u53ef\u4ee5\u8bca\u65ad\u4e3a\u766b\u75eb\u7efc\u5408\u5f81](4)\u513f\u7ae5\u5e38\u89c1\u766b\u75eb\u548c\u766b\u75eb\u7efc\u5408\u5f81[1]\u4f34\u4e2d\u592e-\u989e\u533a\u68d8\u6ce2\u7684\u513f\u7ae5\u826f\u6027\u766b\u75eb:[\u513f\u7ae5\u766b\u75eb\u6700\u5e38\u89c1\u7684\u7c7b\u578b\u4e4b\u4e00\uff0c\u7ea6\u5360\u513f\u7ae5\u766b\u75eb\u768420\uff05\u3002\u53d1\u75c5\u5e74\u9f842\uff5e14\u5c81\uff0c5\uff5e10\u5c81\u591a\u89c1\uff0c9\uff5e10\u5c81\u662f\u9ad8\u5cf0\uff0c\u7537\u5b69\u591a\u4e8e\u5973\u5b69\u3002\u53d1\u4f5c\u4e0e\u7761\u7720\u5173\u7cfb\u5bc6\u5207\uff0c\u7ea675\uff05\u7684\u60a3\u513f\u53ea\u5728\u7761\u7720\u4e2d\u53d1\u4f5c\uff0c\u591a\u5728\u5165\u7761\u540e\u4e0d\u4e45\u6216\u6e05\u6668\u8981\u9192\u65f6\u51fa\u73b0\u3002\u53d1\u4f5c\u5f62\u5f0f\u4e3a\u5c40\u7076\u6027\u53d1\u4f5c\uff0c\u5f00\u59cb\u75c7\u72b6\u591a\u5c40\u9650\u4e8e\u53e3\u9762\u90e8\uff0c\u8868\u73b0\u4e3a\u4e00\u4fa7\u53e3\u89d2\u62bd\u52a8\uff0c\u54bd\u90e8\u3001\u820c\u53ca\u988a\u90e8\u611f\u89c9\u5f02\u5e38\uff0c\u5589\u5934\u5f02\u5e38\u53d1\u58f0\uff0c\u553e\u6db2\u4e0d\u80fd\u541e\u54bd\u800c\u5916\u6d41\u3002\u60a3\u513f\u610f\u8bc6\u6e05\u695a\uff0c\u4f46\u4e0d\u80fd\u8a00\u8bed\u3002\u540c\u4fa7\u9762\u90e8\u7684\u62bd\u52a8\u53ef\u6269\u5c55\u5230\u540c\u4fa7\u4e0a\u80a2\u3002\u53ef\u6cdb\u5316\u4e3a\u5168\u9762\u6027\u53d1\u4f5c\u800c\u81f4\u610f\u8bc6\u4e27\u5931\u3002\u5927\u591a\u60a3\u513f\u53d1\u4f5c\u6301\u7eed\u65f6\u95f4\u8f83\u77ed\u3002\u53d1\u4f5c\u9891\u7387\u4e0d\u4e00\uff0c\u4f46\u901a\u5e38\u4e0d\u9891\u7e41\u3002\u53d1\u4f5c\u95f4\u671f\u8111\u7535\u56fe\u80cc\u666f\u6ce2\u6b63\u5e38\uff0c\u5728\u4e2d\u592e\u533a\u548c\u989e\u4e2d\u533a\u51fa\u73b0\u8d1f\u6027\u3001\u53cc\u5411\u6216\u591a\u5411\u7684\u68d8\u6ce2\u6216\u5c16\u6ce2(\u56fe12-2-1)\uff0c\u6216\u68d8\u6162\u7efc\u5408\u6ce2\uff0c\u5165\u7761\u540e\u766b\u75eb\u6837\u653e\u7535\u589e\u52a0\u3002\u8be5\u75c5\u795e\u7ecf\u7cfb\u7edf\u5f71\u50cf\u5b66\u68c0\u67e5\u6b63\u5e38\uff0c\u5927\u591a\u6570\u4e0d\u5f71\u54cd\u667a\u529b\u53d1\u80b2\uff0c\u9884\u540e\u826f\u597d\uff0c16\u5c81\u524d95\uff05\u4ee5\u4e0a\u60a3\u513f\u53d1\u4f5c\u505c\u6b62\u3002\u4e34\u5e8a\u4e0a\u4e5f\u5b58\u5728\u53d8\u5f02\u578b\uff0c\u8868\u73b0\u8f83\u590d\u6742\uff0c\u8111\u7535\u56fe\u766b\u75eb\u653e\u7535\u663e\u8457\u589e\u591a\uff0c\u51fa\u73b0\u7761\u7720\u671f\u766b\u75eb\u6027\u7535\u6301\u7eed\u72b6\u6001\uff0c\u53ef\u4f34\u6709\u7761\u7720\u4e2d\u53d1\u4f5c\u660e\u663e\u589e\u591a\u6216\u8005\u51fa\u73b0\u6e05\u9192\u671f\u53d1\u4f5c(\u5305\u62ec\u65b0\u7684\u53d1\u4f5c\u7c7b\u578b\uff0c\u5982\u8d1f\u6027\u808c\u9635\u631b\u53d1\u4f5c)\uff0c\u5bf9\u8ba4\u77e5\u529f\u80fd\u53ef\u80fd\u4ea7\u751f\u4e00\u5b9a\u5f71\u54cd\uff0c\u867d\u7136\u5176\u766b\u75eb\u53d1\u4f5c\u53ca\u766b\u75eb\u6027\u653e\u7535\u5230\u9752\u6625\u671f\u540e\u4ecd\u7136\u53ef\u4ee5\u7f13\u89e3\uff0c\u4f46\u662f\u90e8\u5206\u60a3\u513f\u53ef\u9057\u7559\u8ba4\u77e5\u529f\u80fd\u969c\u788d][2]\u5a74\u513f\u75c9\u631b:[\u4e3b\u8981\u7279\u70b9\u4e3a\u5a74\u513f\u671f\u8d77\u75c5\u3001\u9891\u7e41\u7684\u75c9\u631b\u53d1\u4f5c\u3001\u8111\u7535\u56fe\u51fa\u73b0\u9ad8\u5ea6\u5931\u5f8b(hypsarrhythmia)\u548c\u667a\u529b\u53d1\u80b2\u969c\u788d\u30024\uff5e8\u4e2a\u6708\u53d1\u75c5\u8005\u6700\u591a\uff0c\u53d1\u4f5c\u65f6\u8868\u73b0\u4e3a\u4e24\u81c2\u524d\u4e3e\uff0c\u5934\u548c\u8eaf\u5e72\u524d\u5c48\uff0c\u4f3c\u70b9\u5934\u62e5\u62b1\u72b6\uff1b\u5c11\u6570\u60a3\u513f\u53ef\u5448\u5934\u80cc\u540e\u5c48\u3002\u60a3\u513f\u5e38\u6210\u7c07\u53d1\u4f5c\uff0c\u601d\u7761\u6216\u521a\u9192\u65f6\u5bb9\u6613\u8fde\u7eed\u53d1\u751f\uff0c\u53d1\u4f5c\u65f6\u6709\u65f6\u4f34\u558a\u53eb\u3001\u54ed\u5435\u6216\u75db\u82e6\u72b6\uff0c\u53d1\u4f5c\u95f4\u671f\u8111\u7535\u56fe\u793a\u4e0d\u5bf9\u79f0\u3001\u4e0d\u540c\u6b65\u3001\u5e76\u4f34\u6709\u66b4\u53d1\u6291\u5236\u4ea4\u66ff\u503e\u5411\u7684\u9ad8\u5e45\u6162\u6ce2\uff0c\u6742\u4ee5\u591a\u7076\u6027\u5c16\u6ce2\u3001\u68d8\u6ce2\u6216\u591a\u68d8\u6ce2\uff0c\u5373\u9ad8\u5ea6\u5931\u5f8b(\u56fe12-2-2)\u3002\u8be5\u75c5\u5927\u591a\u53ef\u627e\u5230\u75c5\u56e0\uff0c\u5982\u9057\u4f20\u4ee3\u8c22\u75c5(\u5e38\u89c1\u4e8e\u82ef\u4e19\u916e\u5c3f\u75c7)\u3001\u8111\u53d1\u80b2\u5f02\u5e38\u3001\u795e\u7ecf\u76ae\u80a4\u7efc\u5408\u5f81(\u4e3b\u8981\u662f\u7ed3\u8282\u6027\u786c\u5316)\u6216\u5176\u4ed6\u539f\u56e0\u5f15\u8d77\u7684\u8111\u635f\u4f24\u3002\u5e38\u5408\u5e76\u4e25\u91cd\u7684\u667a\u529b\u548c\u8fd0\u52a8\u53d1\u80b2\u843d\u540e\uff0c\u540e\u671f\u6613\u8f6c\u4e3aLennox-Gastaut\u7efc\u5408\u5f81\u6216\u5176\u4ed6\u5f62\u5f0f\u7684\u53d1\u4f5c][3]\u513f\u7ae5\u5931\u795e\u766b\u75eb:[3\uff5e13\u5c81\u8d77\u75c5\uff0c5\uff5e9\u5c81\u591a\u89c1\uff0c\u5973\u5b69\u591a\u4e8e\u7537\u5b69\uff0c\u4e0e\u9057\u4f20\u6709\u5173\u3002\u7279\u5f81\u662f\u9891\u7e41\u53d1\u4f5c\u7684\u77ed\u6682\u5931\u795e\uff0c\u4e0d\u8dcc\u5012\uff0c\u4ec5\u6301\u7eed\u6570\u79d2\u949f\uff0c\u4e00\u822c\u4e0d\u8d85\u8fc730\u79d2\uff0c\u65e0\u53d1\u4f5c\u540e\u75c7\u72b6\u3002\u5178\u578b\u8111\u7535\u56fe\u5f02\u5e38\u8868\u73b0\u4e3a\u5168\u5bfc\u540c\u6b65\u76843Hz\u68d8\u6162\u6ce2(\u56fe12-2-3)\u3002\u8be5\u75c5\u6613\u4e8e\u63a7\u5236\uff0c\u9884\u540e\u826f\u597d]
p198
sg5
g196
sg6
V(1)\u8111\u7535\u56fe:[\u662f\u766b\u75eb\u60a3\u8005\u7684\u6700\u91cd\u8981\u68c0\u67e5\uff0c\u5bf9\u4e8e\u766b\u75eb\u7684\u8bca\u65ad\u4ee5\u53ca\u53d1\u4f5c\u7c7b\u578b\u3001\u7efc\u5408\u5f81\u5206\u578b\u90fd\u81f3\u5173\u91cd\u8981\u3002\u766b\u75eb\u7684\u8111\u7535\u56fe\u5f02\u5e38\u5206\u4e3a\u53d1\u4f5c\u95f4\u671f\u548c\u53d1\u4f5c\u671f\uff0c\u53d1\u4f5c\u95f4\u671f\u4e3b\u8981\u53ef\u89c1\u5230\u68d8\u6ce2\u3001\u5c16\u6ce2\u3001\u68d8\u6162\u6ce2\u3001\u5c16\u6162\u6ce2\u3001\u68d8\u6ce2\u8282\u5f8b\u7b49\uff0c\u53d1\u4f5c\u671f\u53ef\u4ee5\u770b\u5230\u4e00\u4e2a\u4ece\u5f00\u59cb\u5230\u7ed3\u675f\u7684\u5177\u6709\u6f14\u53d8\u8fc7\u7a0b\u7684\u5f02\u5e38\u53d1\u4f5c\u6027\u8111\u7535\u56fe\u5f02\u5e38\u4e8b\u4ef6(event)\uff0c\u53ef\u4ee5\u662f\u5168\u5bfc\u5f25\u6f2b\u6027\u7684(\u5168\u9762\u6027\u53d1\u4f5c)\u6216\u8005\u5c40\u7076\u6027\u7684(\u5c40\u7076\u6027\u53d1\u4f5c)\u3002\u4f46\u5e94\u6ce8\u610f\u57285\uff05\uff5e8\uff05\u7684\u5065\u5eb7\u513f\u7ae5\u4e2d\u53ef\u4ee5\u51fa\u73b0\u8111\u7535\u56fe\u766b\u75eb\u6837\u5f02\u5e38\u653e\u7535\uff0c\u7531\u4e8e\u6ca1\u6709\u4e34\u5e8a\u53d1\u4f5c\uff0c\u6b64\u65f6\u4e0d\u80fd\u8bca\u65ad\u766b\u75eb\uff0c\u4f46\u5e94\u5bc6\u5207\u89c2\u5bdf\uff0c\u4e34\u5e8a\u968f\u8bbf\u3002\u5265\u593a\u7761\u7720\u3001\u5149\u523a\u6fc0\u548c\u8fc7\u5ea6\u6362\u6c14\u7b49\u53ef\u4ee5\u63d0\u9ad8\u766b\u75eb\u6027\u8111\u7535\u5f02\u5e38\u53d1\u73b0\u7387\uff0c\u56e0\u800c\u5728\u513f\u7ae5\u8111\u7535\u56fe\u68c0\u67e5\u4e2d\u7ecf\u5e38\u7528\u5230\u3002\u89c6\u9891\u8111\u7535\u56fe\u53ef\u4ee5\u76f4\u63a5\u89c2\u5bdf\u5230\u53d1\u4f5c\u671f\u7684\u5b9e\u65f6\u8111\u7535\u6d3b\u52a8\uff0c\u5bf9\u4e8e\u766b\u75eb\u7684\u8bca\u65ad\u3001\u9274\u522b\u8bca\u65ad\u5177\u6709\u91cd\u8981\u610f\u4e49](2)\u5f71\u50cf\u5b66\u68c0\u67e5:[1]CT$MRI:[\u76ee\u7684\u662f\u53d1\u73b0\u8111\u7ed3\u6784\u7684\u5f02\u5e38\u3002\u5934\u9885MRI\u5728\u53d1\u73b0\u5f15\u8d77\u766b\u75eb\u7684\u75c5\u7076\u65b9\u9762\u5177\u6709\u66f4\u5927\u7684\u4f18\u52bf\u3002\u76ae\u8d28\u53d1\u80b2\u5f02\u5e38\u662f\u5f15\u8d77\u513f\u7ae5\u75c7\u72b6\u6027\u766b\u75eb\u6700\u5e38\u89c1\u7684\u539f\u56e0\uff0c\u5bf9\u4e8e\u4e25\u91cd\uff0f\u660e\u663e\u7684\u8111\u7ed3\u6784\u53d1\u80b2\u5f02\u5e38\uff0c\u751f\u540e\u65e9\u671f\u5934\u9885MRI\u5373\u53ef\u53d1\u73b0\uff0c\u4f46\u662f\u5bf9\u4e8e\u5c0f\u7684\u5c40\u7076\u76ae\u5c42\u53d1\u80b2\u4e0d\u826f\uff0c\u5e38\u5e38\u9700\u8981\u57281.5\u5c81\u540e\u5934\u9885MRI\u624d\u80fd\u53d1\u73b0\uff0c\u56e0\u6b64\uff0c\u5982\u679c\u4e34\u5e8a\u9ad8\u5ea6\u6000\u7591\u5b58\u5728FCD\uff0c\u9700\u57281.5\u5c81\u4e4b\u540e\u590d\u67e5\u5934\u9885MRI][2]\u529f\u80fd\u6027\u795e\u7ecf\u5f71\u50cf:[\u4e3b\u8981\u9488\u5bf9\u9700\u766b\u75eb\u624b\u672f\u7684\u60a3\u513f\uff0c\u8bc4\u4f30\u4e0d\u540c\u8111\u533a\u529f\u80fd\u3002\u8fd9\u4e00\u6280\u672f\u56e0\u9700\u8981\u826f\u597d\u7684\u6280\u672f\u548c\u60a3\u8005\u4e3b\u52a8\u914d\u5408\uff0c\u56e0\u6b64\u53ea\u80fd\u7528\u4e8e7\uff5e8\u5c81\u4ee5\u4e0a\u667a\u529b\u57fa\u672c\u6b63\u5e38\u7684\u60a3\u513f][3]\u6b63\u7535\u5b50\u4f53\u5c42\u626b\u63cf:[\u662f\u4e00\u79cd\u975e\u4fb5\u5165\u6027\u7684\u8111\u529f\u80fd\u5f71\u50cf\u5b66\u68c0\u67e5\u65b9\u6cd5\uff0c\u5728\u5b9a\u4f4d\u766b\u75eb\u7076\u4e2d\u5177\u6709\u8f83\u9ad8\u7684\u7279\u5f02\u6027\u548c\u51c6\u786e\u5ea6\u3002\u53d1\u4f5c\u95f4\u671f\u7684\u766b\u75eb\u7076\u5448\u8461\u8404\u7cd6\u4f4e\u4ee3\u8c22][4]SPECT(\u5355\u5149\u5b50\u53d1\u5c04\u8ba1\u7b97\u4f53\u5c42\u626b\u63cf):[\u6d4b\u5b9a\u5c40\u90e8\u8111\u8840\u6d41\uff0c\u766b\u75eb\u8d77\u6e90\u75c5\u7076\u5728\u53d1\u4f5c\u671f\u663e\u793a\u8840\u6d41\u589e\u52a0\u800c\u5728\u53d1\u4f5c\u95f4\u671f\u663e\u793a\u8840\u6d41\u51cf\u4f4e\u3002\u53d1\u4f5c\u671fSPECT\u5bf9\u4e8e\u766b\u75eb\u7076\u7684\u786e\u5b9a\u5177\u6709\u91cd\u8981\u4ef7\u503c](3)\u75c5\u56e0\u5b66\u8bca\u65ad:[\u5305\u62ec\u9057\u4f20\u4ee3\u8c22\u75c5\u7b5b\u67e5\u3001\u67d3\u8272\u4f53\u68c0\u67e5\u3001\u57fa\u56e0\u5206\u6790\u3001\u8840\u751f\u5316\u3001\u8111\u810a\u6db2\u7b49\uff0c\u5fc5\u8981\u65f6\u6839\u636e\u75c5\u60c5\u9009\u62e9\u8fdb\u884c]
p199
ssV\u51fa\u8840\u6027\u5927\u80a0\u6746\u83cc\u80a0\u708e
p200
(dp201
g3
V(1)\u8179\u6cfb:[\u5927\u4fbf\u6b21\u6570\u589e\u591a\uff0c\u5f00\u59cb\u4e3a\u9ec4\u8272\u6c34\u6837\u4fbf\uff0c\u540e\u8f6c\u4e3a\u8840\u6c34\u4fbf\uff0c\u6709\u7279\u6b8a\u81ed\u5473](2)\u8179\u75db(3)\u6eb6\u8840\u5c3f\u6bd2\u7efc\u5408\u5f81$\u8840\u5c0f\u677f\u51cf\u5c11\u6027\u7d2b\u765c:[\u4e2a\u522b\u75c5\u4f8b\u53ef\u4f34\u53d1]
p202
sg5
g200
sg6
V\u5927\u4fbf\u955c\u68c0:[\u6709\u5927\u91cf\u7ea2\u7ec6\u80de\uff0c\u5e38\u65e0\u767d\u7ec6\u80de]
p203
ssV\u65b0\u751f\u513f\u8d25\u8840\u75c7
p204
(dp205
g3
V(1)\u65e9\u53d1\u578b:[\u5728\u51fa\u751f\u540e7\u5929\u5185\u8d77\u75c5\uff0c\u611f\u67d3\u53d1\u751f\u5728\u51fa\u751f\u524d\u6216\u51fa\u751f\u65f6\uff0c\u75c5\u539f\u83cc\u4ee5\u5927\u80a0\u6746\u83cc\u7b49G-\u6746\u83cc\u4e3a\u4e3b\uff0c\u591a\u7cfb\u7edf\u53d7\u7d2f\u3001\u75c5\u60c5\u51f6\u9669\u3001\u75c5\u6b7b\u7387\u9ad8](2)\u665a\u53d1\u578b:[\u5728\u51fa\u751f7\u5929\u540e\u8d77\u75c5\uff0c\u611f\u67d3\u53d1\u751f\u5728\u51fa\u751f\u65f6\u6216\u51fa\u751f\u540e\uff0c\u75c5\u539f\u4f53\u4ee5\u8461\u8404\u7403\u83cc\u3001\u673a\u4f1a\u81f4\u75c5\u83cc\u6216\u533b\u6e90\u6027\u611f\u67d3\u4e3a\u4e3b\uff0c\u5e38\u6709\u8110\u708e\u3001\u80ba\u708e\u7b49\u5c40\u90e8\u611f\u67d3\u75c5\u7076\uff0c\u75c5\u6b7b\u7387\u8f83\u65e9\u53d1\u578b\u4f4e](3)\u65e9\u671f\u75c7\u72b6:[1]\u8fdb\u5976\u91cf\u51cf\u5c11$\u6ea2\u4e73$\u55dc\u7761\u6216\u70e6\u8e81\u4e0d\u5b89\uff0c\u54ed\u58f0\u4f4e$\u53d1\u70ed\u6216\u4f53\u6e29\u4e0d\u5347$\u4e0d\u5403$\u53cd\u5e94\u4f4e\u4e0b$\u9762\u8272\u82cd\u767d\u6216\u7070\u6697$\u795e\u840e$\u55dc\u7761$\u4f53\u91cd\u4e0d\u589e(4)\u5178\u578b\u8868\u73b0:[1]\u9ec4\u75b8:[\u6709\u65f6\u53ef\u4e3a\u8d25\u8840\u75c7\u7684\u552f\u4e00\u8868\u73b0\u8868\u73b0\u4e3a\u751f\u7406\u6027\u9ec4\u75b8\u6d88\u9000\u5ef6\u8fdf\u3001\u9ec4\u75b8\u8fc5\u901f\u52a0\u6df1\uff0c\u6216\u9ec4\u75b8\u9000\u800c\u590d\u73b0\uff0c\u65e0\u6cd5\u7528\u5176\u4ed6\u539f\u56e0\u89e3\u91ca][2]\u809d\u813e\u80bf\u5927:[\u51fa\u73b0\u8f83\u665a\uff0c\u4e00\u822c\u4e3a\u8f7b\u81f3\u4e2d\u5ea6\u80bf\u5927][3]\u51fa\u8840\u503e\u5411:[\u76ae\u80a4\u9ecf\u819c\u7600\u70b9\u3001\u7600\u6591\u3001\u7d2b\u765c\u3001\u9488\u773c\u5904\u6d41\u8840\u4e0d\u6b62\u3001\u5455\u8840\u3001\u4fbf\u8840\u3001\u80ba\u51fa\u8840\u3001\u4e25\u91cd\u65f6\u53d1\u751fDIC][4]\u4f11\u514b:[\u9762\u8272\u82cd\u7070\uff0c\u76ae\u80a4\u82b1\u7eb9\uff0c\u8840\u538b\u4e0b\u964d\uff0c\u5c3f\u5c11\u6216\u65e0\u5c3f][5]\u547c\u5438\u7a98\u8feb$\u547c\u5438\u6682\u505c$\u5455\u5410$\u8179\u80c0$\u4e2d\u6bd2\u6027\u80a0\u9ebb\u75f9\uff1b[6]\u8111\u819c\u708e$\u574f\u6b7b\u6027\u5c0f\u80a0\u7ed3\u80a0\u708e$\u5316\u8113\u6027\u5173\u8282\u708e$\u9aa8\u9ad3\u708e
p206
sg5
g204
sg6
V(1)\u5468\u56f4\u8840\u8c61:[\u7ec6\u80de\u603b\u6570\uff1c5.0109/L\u6216\uff1e20109/L\uff0c\u4e2d\u6027\u7c92\u7ec6\u80de\u4e2d\u6746\u72b6\u6838\u7ec6\u80de\u6240\u5360\u6bd4\u4f8b\u22650.2\u3001\u51fa\u73b0\u4e2d\u6bd2\u9897\u7c92\u6216\u7a7a\u6ce1\u3001\u6216\u8840\u5c0f\u677f\u8ba1\u6570\uff1c100109/L\u6709\u8bca\u65ad\u4ef7\u503c](2)\u7ec6\u83cc\u57f9\u517b[1]\u8840\u57f9\u517b:[\u5e94\u5728\u4f7f\u7528\u6297\u751f\u7d20\u4e4b\u524d\u4f5c\uff0c\u95f4\u65f6\u4f5cL\u578b\u7ec6\u83cc\u548c\u538c\u6c27\u83cc\u57f9\u517b\u53ef\u63d0\u9ad8\u9633\u6027\u7387][2]\u8111\u810a\u6db2:[\u7ea6\u67091/3\u7684\u8d25\u8840\u75c7\u75c5\u4f8b\u5408\u5e76\u5316\u8113\u6027\u8111\u819c\u708e\uff0c\u6545\u5e94\u4f5c\u8111\u810a\u6db2\u57f9\u517b][3]\u5c3f\u57f9\u517b:[\u6700\u597d\u4ece\u803b\u9aa8\u4e0a\u8180\u80f1\u7a7f\u53d6\u6807\u672c\uff0c\u4ee5\u514d\u6c61\u67d3][4]\u5176\u4ed6:[\u80c3\u6db2\u3001\u5916\u8033\u9053\u5206\u6ccc\u7269\u3001\u54bd\u62ed\u5b50\u3001\u76ae\u80a4\u62ed\u5b50\u3001\u8110\u6b8b\u7aef\u5206\u6ccc\u7269\u3001\u80ba\u6ce1\u704c\u6d17\u6db2\u7b49\u5747\u53ef\u4f5c\u7ec6\u83cc\u57f9\u517b\uff0c\u82e5\u57f9\u517b\u51fa\u7684\u7ec6\u83cc\u4e0e\u8840\u57f9\u517b\u4e00\u81f4\u5219\u610f\u4e49\u66f4\u5927\u3002\u56e0\u65b0\u751f\u513f\u62b5\u6297\u529b\u4f4e\u4e0b\uff0c\u6545\u5373\u4f7f\u8840\u4e2d\u57f9\u517b\u51fa\u673a\u4f1a\u81f4\u75c5\u83cc\u4e5f\u5e94\u4e88\u4ee5\u91cd\u89c6\uff0c\u9634\u6027\u7ed3\u679c\u4e0d\u80fd\u6392\u9664\u8d25\u8840\u75c7](3)\u76f4\u63a5\u6d82\u7247:[\u809d\u7d20\u8840\u79bb\u5fc3\u540e\u5438\u53d6\u767d\u7ec6\u80de\u5c42\u6d82\u7247\u627e\u7ec6\u83cc\uff1b\u8111\u810a\u6db2\u76f4\u63a5\u6d82\u7247\u627e\u7ec6\u83cc\u610f\u4e49\u5927](4)\u6025\u76f8\u86cb\u767d:[C\u53cd\u5e94\u86cb\u767d\u3001\u89e6\u73e0\u86cb\u767d\u3001\u03b11\u9178\u6027\u7cd6\u86cb\u767d\u3001\u03b11-\u6297\u80f0\u86cb\u767d\u9176\u7b49\u5728\u6025\u6027\u611f\u67d3\u65e9\u671f\u5373\u53ef\u589e\u9ad8\u3002CRP\u6d4b\u5b9a\u56fd\u5185\u5df2\u666e\u904d\u5f00\u5c55\uff0c\u7ec6\u83cc\u611f\u67d3\u540e6\uff5e8\u5c0f\u65f6\u5373\u4e0a\u5347\uff0c\u6700\u9ad8\u53ef\u8fbe\u6b63\u5e38\u503c(\uff1c8mg/L)\u7684\u6570\u767e\u500d\u4ee5\u4e0a\uff0c\u5f53\u611f\u67d3\u88ab\u63a7\u5236\u540e\u77ed\u671f\u5185\u5373\u53ef\u4e0b\u964d\uff0c\u56e0\u6b64\u8fd8\u6709\u52a9\u4e8e\u7597\u6548\u89c2\u5bdf\u548c\u9884\u540e\u5224\u65ad](5)\u9c8e\u8bd5\u9a8c:[\u7528\u4e8e\u68c0\u6d4b\u8840\u548c\u4f53\u6db2\u4e2d\u7ec6\u83cc\u5185\u6bd0\u7d20\uff0c\u9633\u6027\u63d0\u793a\u6709G-\u7ec6\u83cc\u611f\u67d3](6)\u75c5\u539f\u83cc\u6297\u539f\u68c0\u6d4b:[\u91c7\u7528\u5bf9\u6d41\u514d\u75ab\u7535\u6cf3\u3001\u9176\u8054\u514d\u75ab\u5438\u9644\u8bd5\u9a8c\u3001\u4e73\u80f6\u9897\u7c92\u51dd\u96c6\u7b49\u65b9\u6cd5\u7528\u4e8e\u8840\u3001\u8111\u810a\u6db2\u548c\u5c3f\u4e2d\u81f4\u75c5\u83cc\u6297\u539f\u68c0\u6d4b](7)\u57fa\u56e0\u8bca\u65ad\u65b9\u6cd5:[\u5e94\u7528\u8d28\u7c92\u5206\u6790\u3001\u9650\u5236\u6027\u5185\u5207\u9176\u5206\u6790\u3001\u6838\u9178\u6742\u4ea4\u3001\u805a\u5408\u9176\u94fe\u5f0f\u53cd\u5e94\u7b49\u65b9\u6cd5\u7528\u4e8e\u9274\u5225\u75c5\u539f\u83cc\u7684\u751f\u7269\u578b\u548c\u8840\u6e05\u578b\uff0c\u6709\u5229\u4e8e\u5bfb\u627e\u611f\u67d3\u6e90]
p207
ssV\u98df\u7269\u8fc7\u654f\u6027\u80c3\u80a0\u75be\u75c5
p208
(dp209
g3
V(1)IgE\u9014\u5f84\u4ecb\u5bfc\u7684\u98df\u7269\u8fc7\u654f\u6027\u80c3\u80a0\u75c5:[1]\u6025\u6027\u8d77\u75c5[2]\u6076\u5fc3$\u5455\u5410$\u8179\u75db$\u8179\u6cfb$\u76ae\u80a4\u8fc7\u654f$\u54ee\u5598$\u8fc7\u654f\u6027\u4f11\u514b:[\u60a3\u8005\u5728\u8fdb\u98df\u67d0\u79cd\u98df\u7269\u540e\u6570\u5206\u949f\u81f31\u5c0f\u65f6\u5185][\u5e38\u89c1\u7684\u8fc7\u654f\u539f\u4e3a\u725b\u5976\u3001\u9e21\u86cb\u3001\u5927\u8c46\u3001\u82b1\u751f\u3001\u6d77\u9c9c\u7b49](2)IgE\u548c\u7ec6\u80de\u9014\u5f84\u5171\u540c\u4ecb\u5bfc\u7684\u98df\u7269\u8fc7\u654f\u6027\u80c3\u80a0\u75c5:[1]\u7279\u5f81:[\u98df\u7ba1\u3001\u80c3\u6216\u5c0f\u80a0\u58c1\u6709\u55dc\u9178\u7ec6\u80de\u6d78\u6da6\uff0c\u5e38\u6709\u5916\u5468\u8840\u55dc\u9178\u7ec6\u80de\u589e\u591a\u3002\u55dc\u9178\u7ec6\u80de\u6d78\u6da6\u7d2f\u53ca\u98df\u7ba1\u3001\u80c3\u6216\u5c0f\u80a0\u7684\u9ecf\u819c\u3001\u808c\u5c42\u548c(\u6216)\u6d46\u819c\u5c42][2]\u9910\u540e\u6076\u5fc3$\u5455\u5410$\u8179\u75db\u53ca\u95f4\u6b47\u6027\u8179\u6cfb$\u5927\u4fbf\u5e26\u8840\uff0c[3]\u751f\u957f\u53d1\u80b2\u505c\u6ede:[\u5a74\u5e7c\u513f]\u3002[4]\u591a\u91cd\u98df\u7269\u8fc7\u654f:[\u5982\u725b\u5976\u3001\u9e21\u86cb\u3001\u5927\u8c46\u3001\u8c37\u7c7b\u53ca\u9c7c\u7c7b\u7b49](3)\u975eIgE\u9014\u5f84\u4ecb\u5bfc\u7684\u98df\u7269\u8fc7\u654f\u6027\u80c3\u80a0\u75c5:[\u75c7\u72b6\u5c40\u9650\u4e8e\u80c3\u80a0\u9053\uff0c\u75c5\u7a0b\u5448\u4e9a\u6025\u6027\u6216\u6162\u6027\uff0c\u8fc7\u654f\u539f\u6700\u5e38\u89c1\u4e3a\u725b\u5976\u86cb\u767d\u3001\u5927\u8c46\u86cb\u767d\u548c\u8c37\u7269\uff0c\u81ea\u7136\u75c5\u7a0b1\uff5e3\u5e74][1]\u98df\u7269\u86cb\u767d\u8bf1\u5bfc\u7684\u5c0f\u80a0\u7ed3\u80a0\u708e\u7efc\u5408\u5f81:{1}\u53cd\u590d\u8179\u6cfb$\u5455\u5410$\u7cbe\u795e\u840e\u9761$\u751f\u957f\u8fdf\u7f13{2}\u5455\u5410$\u8179\u6cfb$\u4f4e\u8840\u538b:[\u8fc7\u654f\u98df\u7269\u56de\u907f\u540e\u518d\u63a5\u89e6\u540e2\u5c0f\u65f6\u5185\u91cd\u65b0\u51fa\u73b0]{3}\u8fc7\u654f\u98df\u7269:[\u725b\u5976\u3001\u5927\u8c46\u3001\u5927\u7c73\uff0c\u591a\u89c1\u4e8e\u914d\u65b9\u5976\u5582\u517b\u7684\u5a74\u5e7c\u513f][2]\u98df\u7269\u86cb\u767d\u8bf1\u5bfc\u7684\u76f4\u80a0\u7ed3\u80a0\u708e:{1}\u5c11\u91cf\u8840\u4fbf$\u9ecf\u6db2\u4fbf$\u8179\u6cfb[3]\u98df\u7269\u86cb\u767d\u8bf1\u5bfc\u7684\u80a0\u75c5:{1}\u6162\u6027\u8179\u6cfb$\u751f\u540e\u6570\u6708\u5185\u4f53\u91cd\u4e0d\u589e{2}\u4f1a\u51fa\u73b0\u8f7b-\u4e2d\u5ea6\u8d2b\u8840\u53ca\u4f4e\u86cb\u767d\u8840\u75c7:[\u6709\u4e9b\u60a3\u513f]
p210
sg5
g208
sg6
V(1)\u65e0
p211
ssV18-\u4e09\u4f53\u7efc\u5408\u5f81
p212
(dp213
g3
V(1)\u751f\u957f\u53d1\u80b2\u969c\u788d:[\u591a\u4e3a\u5c0f\u4e8e\u80ce\u9f84\u513f\uff0c\u5582\u517b\u56f0\u96be\uff0c\u53cd\u5e94\u4f4e\u4e0b\uff0c\u9aa8\u9abc\u3001\u808c\u8089\u53d1\u80b2\u4e0d\u826f\u3002\u65b0\u751f\u513f\u65e9\u671f\u808c\u5f20\u529b\u4f4e\uff0c\u4ee5\u540e\u808c\u5f20\u529b\u589e\u9ad8\u3002\u7cbe\u795e\u548c\u8fd0\u52a8\u53d1\u80b2\u8fdf\u7f13](2)\u591a\u53d1\u7578\u5f62:[1]\u9885\u9762\u90e8\u7578\u5f62:[\u5c0f\u5934\u7578\u5f62\uff0c\u5934\u524d\u540e\u5f84\u957f\uff0c\u6795\u9aa8\u7a81\u51fa\u3002\u5c0f\u773c\u7578\u5f62\u3001\u773c\u8ddd\u5bbd\uff0c\u6709\u5185\u7726\u8d58\u76ae\uff0c\u89d2\u819c\u6df7\u6d4a\uff0c\u767d\u5185\u969c\u3001\u8679\u819c\u7f3a\u635f\u7b49\u3002\u9f3b\u540e\u5b54\u95ed\u9501\uff1b\u816d\u5f13\u9ad8\u7a84\uff0c\u4e0b\u988c\u5c0f\uff0c\u5507\u88c2\u6216\u816d\u88c2\uff1b\u8033\u4f4d\u4f4e\uff0c\u5916\u8033\u7578\u5f62][2]\u80f8\u90e8\u7578\u5f62:[\u9888\u77ed\uff0c\u80f8\u9aa8\u77ed\uff0c\u4e73\u5934\u5c0f\u4e14\u53d1\u80b2\u4e0d\u826f\uff0c\u4e73\u8ddd\u5bbd\u3002\u7b2c12\u808b\u9aa8\u53d1\u80b2\u4e0d\u826f\u6216\u7f3a\u5982][3]\u591a\u79cd\u5148\u5929\u7578\u5f62:[80\uff05\uff5e95\uff05\u75c5\u4f8b\u6709\u5148\u5929\u6027\u5fc3\u810f\u75c5\uff0c\u4e3b\u8981\u4e3a\u5ba4\u95f4\u9694\u7f3a\u635f\u3001\u52a8\u8109\u5bfc\u7ba1\u672a\u95ed\u3001\u623f\u95f4\u9694\u7f3a\u635f\u7b49\u3002\u6d88\u5316\u9053\u7578\u5f62\u53ef\u89c1\u7ed3\u80a0\u65cb\u8f6c\u4e0d\u826f\u3001\u8110\u759d\u548c\u8179\u80a1\u6c9f\u759d\u3001\u5e7d\u95e8\u72ed\u7a84\u3001\u6885\u514b\u5c14\u61a9\u5ba4\u7b49\u300230\uff05\uff5e60\uff05\u60a3\u513f\u6709\u6ccc\u5c3f\u7cfb\u7578\u5f62\uff0c\u53ef\u89c1\u591a\u56ca\u80be\u3001\u5f02\u4f4d\u80be\u4e0e\u9a6c\u8e44\u80be\u3001\u80be\u76c2\u79ef\u6c34\u3001\u53cc\u80be\u53ca\u53cc\u8f93\u5c3f\u7ba1\u3002\u5c24\u4ee5\u9a6c\u8e44\u80be\u3001\u91cd\u80be\u3001\u53cc\u8f93\u5c3f\u7ba1\u4e3a\u591a\u89c1\u3002\u7537\u6027\u591a\u6709\u9690\u777e\uff0c\u9634\u56ca\u7578\u5f62\u3002\u5973\u6027\u53ef\u6709\u53cc\u89d2\u5b50\u5bab\u3001\u9634\u8482\u80a5\u5927\u53ca\u53cc\u9634\u9053\u3002\u53ef\u6709\u7532\u72b6\u817a\u53d1\u80b2\u4e0d\u826f\uff0c\u80f8\u817a\u53d1\u80b2\u4e0d\u826f][4]\u56db\u80a2\u7578\u5f62:[\u60a3\u513f\u6709\u7279\u6b8a\u7684\u63e1\u62f3\u59ff\u52bf:\u624b\u6307\u5c48\u66f2\uff0c\u62c7\u6307\u3001\u4e2d\u6307\u53ca\u793a\u6307\u7d27\u6536\uff0c\u793a\u6307\u538b\u5728\u4e2d\u6307\u4e0a\uff0c\u5c0f\u6307\u538b\u5728\u65e0\u540d\u6307\u4e0a\u3002\u624b\u6307\u4e0d\u6613\u4f38\u76f4\uff0c\u5982\u88ab\u52a8\u5730\u4f38\u76f4\u65f6\uff0c\u5219\u4e2d\u6307\u53ca\u5c0f\u6307\u659c\u5411\u5c3a\u4fa7\uff0c\u62c7\u6307\u53ca\u793a\u6307\u659c\u5411\u6861\u4fa7\uff0c\u793a\u6307\u4e0e\u4e2d\u6307\u5206\u5f00\uff0c\u5f62\u6210V\u5b57\u5f62\u3002\u6307\u7532\u53d1\u80b2\u4e0d\u826f\u3002\u203b\u8dbe\u77ed\u4e14\u80cc\u5c48\uff0c\u9aa8\u7a81\u51fa\uff0c\u5448\u6447\u6905\u5e95\u6837\u8db3\u3002\u5076\u89c1\u77ed\u80a2\u7578\u5f62][5]\u76ae\u80a4\u53ca\u76ae\u7eb9\u5f02\u5e38:[\u76ae\u80a4\u591a\u6bf3\u6bdb\uff0c\u76b1\u8936\u591a\uff0c\u51fa\u73b0\u8840\u7ba1\u7624\u3002\u6307\u7eb9\u7279\u5f81\u5305\u62ec\u516d\u4e2a\u4ee5\u4e0a\u5f13\u5f62\u7eb9\uff0c\u7b2c\u4e94\u6307\u53ea\u6709\u4e00\u6a2a\u7eb9\uff0c30\uff05\u6709\u901a\u8d2f\u624b(\u6216\u79f0\u733f\u7ebf)\u4ee5\u53ca\u8f74\u4e09\u5c04\u8fdc\u4f4d\uff0c\u5448t\u2032\u6216t\u2033](3)\u91cd\u5ea6\u667a\u529b\u843d\u540e
p214
sg5
g212
sg6
V(1)\u67d3\u8272\u4f53\u6838\u578b\u5206\u6790
p215
ssV\u566c\u8840\u7ec6\u80de\u7efc\u5408\u5f81
p216
(dp217
g3
V(1)\u53d1\u70ed:[\u65e9\u671f\u591a\u8868\u73b0\u4e3a\u6301\u7eed\u53d1\u70ed\uff0c\u8d85\u8fc77\u5929\uff0c\u6700\u9ad8\u4f53\u6e29\u5927\u4e8e38.5\u2103](2)\u809d\u813e\u548c\u6dcb\u5df4\u7ed3\u80bf\u5927:[\u5448\u8fdb\u884c\u6027\u80bf\u5927\uff0c\u813e\u5927\u660e\u663e\uff0c\u5e76\u51fa\u73b0\u809d\u529f\u80fd\u5f02\u5e38\u548c\u9ec4\u75b8](3)\u51fa\u8840:[\u7531\u4e8e\u8840\u5c0f\u677f\u51cf\u5c11\u3001\u7ea4\u7ef4\u86cb\u767d\u539f\u964d\u4f4e\u548c\u809d\u529f\u80fd\u635f\u5bb3\uff0c\u672c\u5f81\u5e38\u6709\u51fa\u8840\u75c7\u72b6\uff0c\u8868\u73b0\u4e3a\u76ae\u80a4\u51fa\u8840\u70b9\u3001\u7600\u6591\u3001\u7d2b\u765c\u3001\u9f3b\u51fa\u8840\u3001\u6d88\u5316\u9053\u51fa\u8840\u53ca\u5176\u4ed6\u5185\u810f\u51fa\u8840](4)\u80ba\u90e8\u611f\u67d3:[\u80ba\u90e8\u6dcb\u5df4\u7ec6\u80de\u53ca\u5de8\u566c\u7ec6\u80de\u6d78\u6da6\u6240\u81f4\uff0c\u5448\u95f4\u8d28\u6027\u80ba\u708e\u8868\u73b0](5)\u4e2d\u67a2\u795e\u7ecf\u7cfb\u7edf\u75c5\u53d8:[\u4e2d\u67a2\u795e\u7ecf\u7cfb\u7edf\u7684\u75c5\u53d8\u591a\u5728\u75c5\u7a0b\u665a\u671f\u51fa\u73b0\uff0c\u5c11\u6570\u75c5\u4f8b\u4ea6\u53ef\u65e9\u671f\u53d1\u751f\u3002\u8868\u73b0\u4e3a\u795e\u7ecf\u5174\u594b\u6027\u589e\u9ad8\u3001\u524d\u56df\u9971\u6ee1\u3001\u9888\u5f3a\u76f4\u3001\u808c\u5f20\u529b\u589e\u9ad8\u6216\u964d\u4f4e\u3001\u62bd\u6410\u7b49\uff0c\u4ea6\u53ef\u6709\u8111\u795e\u7ecf\u9ebb\u75f9\u3001\u5171\u6d4e\u5931\u8c03\u3001\u504f\u762b\u6216\u5168\u762b\u3001\u5931\u660e\u3001\u610f\u8bc6\u969c\u788d\u3001\u9885\u5185\u538b\u589e\u9ad8\u7b49]
p218
sg5
g216
sg6
V(1)\u8840\u5e38\u89c4:[\u65e9\u671f\u5373\u53ef\u5168\u8840\u7ec6\u80de\u6216\u4e8c\u7cfb\u8840\u7ec6\u80de\u51cf\u5c11](2)\u9aa8\u9ad3\u68c0\u67e5:[\u9aa8\u9ad3\u65e9\u671f\u53ef\u5448\u589e\u751f\u6d3b\u8dc3\u6216\u589e\u751f\u4f4e\u4e0b\uff1b\u5149\u5b66\u663e\u5fae\u955c\u4e0b\u627e\u5230\u566c\u8840\u7ec6\u80de(\u541e\u566c\u7ea2\u7ec6\u80de\u3001\u7c92\u7ec6\u80de)\u662f\u5176\u7279\u70b9\uff0c\u4f46\u5728\u75be\u75c5\u65e9\u671f\u566c\u8840\u7ec6\u80de\u73b0\u8c61\u53ef\u4e0d\u660e\u663e\uff0c\u5e38\u8868\u73b0\u4e3a\u53cd\u5e94\u6027\u589e\u751f\u9aa8\u9ad3\u8c61\uff0c\u75be\u75c5\u665a\u671f\u9aa8\u9ad3\u589e\u751f\u7a0b\u5ea6\u4f4e\u4e0b](3)\u8840\u6db2\u751f\u5316:[\u7518\u6cb9\u4e09\u916f\u5347\u9ad8\uff0c\u4f4e\u5bc6\u5ea6\u8102\u86cb\u767d\u5347\u9ad8\uff0c\u800c\u9ad8\u5bc6\u5ea6\u8102\u86cb\u767d\u964d\u4f4e\uff1b\u809d\u529f\u80fd\u5f02\u5e38\uff0c\u8c37\u4e19\u8f6c\u6c28\u9176\u548c\u80c6\u7ea2\u7d20\u5347\u9ad8\uff0c\u767d\u86cb\u767d\u964d\u4f4e\uff1b\u8840\u6e05\u94c1\u86cb\u767d\u660e\u663e\u6216\u6781\u5ea6\u5347\u9ad8\uff0c\u4f4e\u94a0\u8840\u75c7\u3002\u4e73\u9178\u8131\u6c22\u9176(LDH)\u53ef\u660e\u663e\u589e\u9ad8](4)\u51dd\u8840\u529f\u80fd:[\u7ea4\u7ef4\u86cb\u767d\u539f(FIB)\u964d\u4f4e(<1.5g\uff0fL)\uff0c\u6d3b\u5316\u90e8\u5206\u51dd\u8840\u9176\u65f6\u95f4(APTT)\u53ca\u51dd\u8840\u9176\u539f\u65f6\u95f4(PT)\u5ef6\u957f](5)\u514d\u75ab\u5b66\u68c0\u67e5:[T\u6dcb\u5df4\u7ec6\u80de\u529f\u80fd\u7f3a\u9677\uff0cNK\u7ec6\u80de\u6d3b\u6027\u964d\u4f4e\u6216\u9619\u5982\uff1b\u53ef\u6eb6\u6027CD25\u5347\u9ad8\uff1b\u7ec6\u80de\u56e0\u5b50\u8c31\u5305\u62ecIFN-\u03b3\u3001IL-10\u660e\u663e\u5347\u9ad8\uff0c\u800cIL-6\u8f7b\u5ea6\u5347\u9ad8\u5177\u6709\u6781\u9ad8\u7684\u7279\u5f02\u6027\u548c\u654f\u611f\u6027(>90\uff05)](6)\u8111\u810a\u6db2:[\u91cd\u75c7\u8005\u8111\u810a\u6db2\u538b\u529b\u5347\u9ad8\uff0c\u7ec6\u80de\u6570\u8f7b\u5ea6\u589e\u52a0\uff0c\u4ee5\u6dcb\u5df4\u7ec6\u80de\u4e3a\u4e3b\uff0c\u86cb\u767d\u5347\u9ad8\u3002\u4f46\u4e5f\u6709\u795e\u7ecf\u7cfb\u7edf\u75c7\u72b6\u660e\u663e\u800c\u8111\u810a\u6db2\u6b63\u5e38\u8005](7)\u5f71\u50cf\u5b66\u68c0\u67e5:[X\u7ebf\u80f8\u7247\u53ef\u663e\u793a\u6709\u95f4\u8d28\u6027\u80ba\u6d78\u6da6\uff0c\u53ef\u51fa\u73b0\u80f8\u6c34\uff1b\u5934\u9885CT\u6216MRI\u68c0\u67e5\u53ef\u53d1\u73b0\u5f02\u5e38\uff0c\u5176\u6539\u53d8\u8868\u73b0\u4e3a\u9648\u65e7\u6027\u6216\u6d3b\u52a8\u6027\u611f\u67d3\u7076\u3001\u8131\u9ad3\u9798\u3001\u51fa\u8840\u3001\u840e\u7f29\u3001\u6c34\u80bf\u3001\u9499\u5316]
p219
ssV\u7aa6\u6027\u5fc3\u5f8b\u8fc7\u901f
p220
(dp221
g3
V(1)\u7aa6\u6027\u5fc3\u5f8b\u8fc7\u901f:[\u65b0\u751f\u513f\u671f\u7aa6\u623f\u7ed3\u53ef\u4ee5\u53d1\u653e\u9ad8\u8fbe190\u6b21/\u5206\u7684\u51b2\u52a8\u3002\u8fd9\u79cd\u5feb\u901f\u5fc3\u7387\u5e38\u662f\u53d1\u751f\u4e8e\u60a3\u513f\u5bf9\u5916\u754c\u523a\u6fc0\u7684\u53cd\u5e94\uff0c\u5982\u60c5\u7eea\u6fc0\u52a8\u3001\u53d1\u70ed\u3001\u8d2b\u8840\u3001\u8fc7\u5ea6\u6d3b\u52a8\u548c\u52b3\u7d2f\u7b49]
p222
sg5
g220
sg6
V(1)\u5fc3\u7535\u56fe:[\u6bcf\u4e2aQRS\u6ce2\u524d\u5747\u6709P\u6ce2\u3002\u5fc3\u7535\u56fe\u53ef\u51fa\u73b0T\u6ce2\u4e0eP\u6ce2\u91cd\u53e0\u6216\u878d\u5408\uff0cP-P\u95f4\u9694\u7565\u6709\u4e0d\u5300\u9f50]
p223
ssV\u5316\u8113\u6027\u80f8\u819c\u708e
p224
(dp225
g3
V(1)\u6700\u521d\u75c7\u72b6:[\u8113\u80f8\u5927\u591a\u5728\u80ba\u708e\u7684\u65e9\u671f\u53d1\u751f\uff0c\u5176\u6700\u521d\u75c7\u72b6\u5c31\u662f\u80ba\u708e\u7684\u75c7\u72b6][1]\u53d1\u70ed$\u54b3\u55fd$\u54b3\u8113\u6027\u75f0$\u6c14\u4fc3$\u5fc3\u52a8\u8fc7\u901f$\u80f8\u75db\u3002[2]\u9633\u6027\u4f53\u5f81:{1}\u60a3\u4fa7\u808b\u95f4\u9699\u9971\u6ee1\uff0c\u547c\u5438\u8fd0\u52a8\u51cf\u5f31\u3002{2}\u6c14\u7ba1$\u7eb5\u9694\u53ca\u5fc3\u810f\u5411\u5bf9\u4fa7\u79fb\u4f4d\u3002{3}\u8bed\u8a00\u9707\u98a4\u51cf\u5f31\u6216\u6d88\u5931\u3002{4}\u53e9\u8bca\u53ef\u5448\u5b9e\u97f3(\u79ef\u6db2\u8f83\u591a\u65f6)\u6216\u6d4a\u97f3(\u79ef\u6db2\u8f83\u5c11\u65f6)\u3002{5}\u542c\u8bca\u547c\u5438\u97f3\u51cf\u5f31\u6216\u6d88\u5931\u3002{6}\u79ef\u6db2\u5982\u5728\u53f3\u4fa7\uff0c\u53ef\u4f7f\u809d\u810f\u5411\u4e0b\u65b9\u79fb\u4f4d\u3002\u6162\u6027\u671f\u8113\u80f8\u53ef\u89c1\u60a3\u4fa7\u80f8\u5ed3\u8fd0\u52a8\u53d7\u9650\u3002\u8113\u80f8\u75c5\u513f\u4e2d\u6bd2\u75c7\u72b6\u4e25\u91cd\u7684\uff0c\u8f83\u65e9\u5c31\u51fa\u73b0\u8425\u517b\u4e0d\u826f\u548c\u8d2b\u8840\u3001\u7cbe\u795e\u4e0d\u4f73\u3001\u5bf9\u73af\u5883\u6de1\u6f20\u3002(2)\u5e38\u89c1\u5e76\u53d1\u75c7:[1]\u652f\u6c14\u7ba1\u80f8\u819c\u7618$\u5f20\u529b\u6027\u6c14\u80f8$\u98df\u7ba1\u80f8\u819c\u7618$\u5fc3\u5305\u708e\u53ca\u8179\u819c\u708e$\u808b\u9aa8\u9aa8\u708e\u3002
p226
sg5
g224
sg6
V(1)X\u7ebf\u68c0\u67e5:[\u53ef\u89c1\u5bc6\u5ea6\u5747\u5300\u7684\u9634\u5f71\uff0c\u5728\u6b63\u4f4d\u7247\u4e0a\u5176\u4e0a\u754c\u5448\u5f27\u5f62\u66f2\u7ebf\uff0c\u81ea\u79ef\u6db2\u533a\u8fbe\u80f8\u58c1\u4e0a\u65b9\uff0c\u5916\u4fa7\u9ad8\u4e8e\u5185\u4fa7\uff0c\u53ea\u5728\u7a7a\u6c14\u8fdb\u5165\u80f8\u8154\u540e\u624d\u53ef\u51fa\u73b0\u6c14\u6db2\u63a5\u89e6\u7684\u6c34\u5e73\u9762\u3002\u5927\u91cf\u79ef\u6db2\u65f6\u89c1\u4e00\u4fa7\u80ba\u5448\u81f4\u5bc6\u6697\u5f71\uff0c\u60a3\u4fa7\u808b\u95f4\u9699\u589e\u5927\uff0c\u6c14\u7ba1\u3001\u5fc3\u810f\u5411\u5065\u4fa7\u79fb\u4f4d\u53ca\u8188\u808c\u4e0b\u964d](2)\u80f8\u90e8\u8d85\u58f0\u68c0\u67e5\u53caCT\u626b\u63cf:[\u5728\u80f8\u7247\u4e0a\u4e0d\u542b\u6c14\u7684\u80ba\u4e0e\u80f8\u6c34\u5bc6\u5ea6\u76f8\u4f3c\uff0c\u56e0\u6b64\u80f8\u90e8\u8d85\u58f0\u68c0\u67e5\u53caCT\u626b\u63cf\u6709\u52a9\u4e8e\u8fdb\u4e00\u6b65\u8bca\u65ad]
p227
ssV\u60ca\u53a5
p228
(dp229
g3
V(1)\u610f\u8bc6\u5b8c\u5168\u4e27\u5931$\u53cc\u773c\u51dd\u89c6$\u659c\u89c6\u6216\u4e0a\u7ffb$\u5934\u540e\u4ef0$\u9762\u808c\u53ca\u56db\u80a2\u5448\u5f3a\u76f4\u6027\u6216\u9635\u631b\u6027\u62bd\u6410$\u547c\u5438\u6682\u505c$\u9752\u7d2b$\u60ca\u53a5\u540e\u660f\u7761$\u75b2\u4e4f\u3002(2)\u60ca\u53a5\u540e\u795e\u5fd7\u5f88\u5feb\u6062\u590d:[\u70ed\u6027\u60ca\u53a5](3)\u4e0d\u4f34\u6709\u610f\u8bc6\u969c\u788d:[\u975e\u766b\u75eb\u6027\u60ca\u53a5\uff0c\u5982\u4f4e\u9499\u6027\u624b\u8db3\u62bd\u6410\u75c7\u3001\u7834\u4f24\u98ce\u7684\u808c\u75c9\u631b]
p230
sg5
g228
sg6
V(1)\u5b9e\u9a8c\u5ba4\u68c0\u67e5:[\u8840\u3001\u5c3f\u3001\u4fbf\u5e38\u89c4\uff0c\u8840\u751f\u5316\u3001\u809d\u80be\u529f\u80fd\u3001\u8111\u810a\u6db2\u68c0\u67e5(\u5e38\u89c4\u3001\u751f\u5316\u53ca\u75c5\u539f\u5b66\u68c0\u67e5)](2)\u8111\u7535\u56fe:[\u5bf9\u5404\u79cd\u7c7b\u578b\u766b\u75eb\u6709\u8bca\u65ad\u610f\u4e49\uff0c\u5bf9\u8111\u75c5\u548c\u8111\u708e\u7684\u8bca\u65ad\u53ca\u75c5\u60c5\u5224\u65ad\u4ea6\u53ef\u80fd\u6709\u5e2e\u52a9](3)\u5934\u9885X\u7ebf\u68c0\u67e5:[\u5305\u62ecCT\u3001\u5e73\u7247\u3001\u8111\u8840\u7ba1\u9020\u5f71\uff0c\u4e86\u89e3\u6709\u65e0\u9885\u538b\u9ad8\u8868\u73b0\u3001\u9499\u5316\u70b9\u3001\u8111\u8840\u7ba1\u75c5\u53d8\u548c\u7578\u5f62](4)\u8111\u8d85\u58f0\u68c0\u67e5:[\u9002\u7528\u4e8e\u524d\u56df\u672a\u95ed\u7684\u5a74\u513f\u7684\u9885\u5185\u75c5\u53d8\u68c0\u6d4b](5)MRI:[\u9002\u7528\u8303\u56f4\u6700\u5e7f\u3001\u663e\u793a\u6548\u679c\u6700\u597d\u7684\u8111\u5f71\u50cf\u68c0\u6d4b\u65b9\u6cd5]
p231
ssV\u9057\u4f20\u6027\u4ee3\u8c22\u75c5
p232
(dp233
g3
V(1)\u5bb9\u8c8c\u5f02\u5e38$\u8272\u7d20\u6539\u53d8\u3002(2)\u9aa8\u9abc\u7578\u5f62$\u5fc3\u808c\u80a5\u5927$\u76ae\u75b9$\u767d\u5185\u969c$\u89d2\u819c\u6df7\u6d4a$\u89c6\u795e\u7ecf\u840e\u7f29$\u8033\u804b$\u5927\u5934$\u809d\u813e\u80bf\u5927$\u9ec4\u75b8$\u809d\u786c\u5316:[\u90e8\u5206\u60a3\u513f](3)\u6025\u6027\u4ee3\u8c22\u6027\u8111\u75c5$\u9ad8\u6c28\u8840\u75c7$\u4ee3\u8c22\u6027\u9178\u4e2d\u6bd2$\u4f4e\u8840\u7cd6
p234
sg5
g232
sg6
V(1)\u751f\u5316\u68c0\u6d4b:[\u5982\u8840\u7cd6\u3001\u8840\u6c14\u5206\u6790\u3001\u809d\u529f\u80fd\u3001\u80c6\u7ea2\u7d20\u3001\u8840\u6c28\u3001\u4e73\u9178\u3001\u916e\u4f53\u3001\u4e19\u916e\u9178\u3001\u808c\u9150\u3001\u5c3f\u7d20\u3001\u7535\u89e3\u8d28\u3001\u9499\u3001\u78f7\u6d4b\u5b9a\uff0c\u6709\u52a9\u4e8e\u5bf9\u9057\u4f20\u6027\u4ee3\u8c22\u75c5\u4f5c\u51fa\u521d\u6b65\u5224\u65ad\u6216\u7f29\u5c0f\u8bca\u65ad\u8303\u56f4](2)GC/MS$\u4e32\u8054\u8d28\u8c31\u6280\u672f\u7ed3\u5408\u6c28\u57fa\u9178\u5206\u6790:[\u76ee\u524d\u5bf9\u9057\u4f20\u6027\u4ee3\u8c22\u75c5\u8fdb\u884c\u9ad8\u5371\u7b5b\u67e5\u3001\u786e\u5b9a\u8bca\u65ad\u6700\u4e3a\u6709\u6548\u548c\u5e7f\u6cdb\u5e94\u7528\u7684\u65b9\u6cd5](3)\u9176\u5b66\u6d4b\u5b9a:[\u5bf9\u9176\u6d3b\u6027\u964d\u4f4e\u7684\u9057\u4f20\u6027\u4ee3\u8c22\u75c5\u8bca\u65ad\u6709\u91cd\u8981\u4ef7\u503c](4)\u57fa\u56e0\u8bca\u65ad:[\u5bf9\u6240\u6709\u9057\u4f20\u75c5\u7684\u6700\u7ec8\u8bca\u65ad\u548c\u5206\u578b\u8d8a\u6765\u8d8a\u91cd\u8981\uff0c\u4f46\u57fa\u56e0\u5206\u6790\u5c1a\u4e0d\u80fd\u5b8c\u5168\u53d6\u4ee3\u9176\u5b66\u68c0\u6d4b]
p235
ssV\u8106\u6027X\u67d3\u8272\u4f53\u7efc\u5408\u5f81
p236
(dp237
g3
V(1)\u667a\u529b\u4f4e\u4e0b:[\u7537\u6027\u60a3\u8005\u4e2d\u5ea6\u4ee5\u4e0a\u667a\u529b\u4f4e\u4e0b\u8005\u536080\uff05\u4ee5\u4e0a\uff0c\u5973\u6027\u591a\u8868\u73b0\u4e3a\u8f7b\u5ea6\u667a\u529b\u969c\u788d\u3001\u5b66\u4e60\u56f0\u96be\u6216\u667a\u5546\u6b63\u5e38\u3002\u60a3\u8005\u7684\u8ba1\u7b97\u80fd\u529b\u5dee\uff0c\u62bd\u8c61\u601d\u7ef4\u53ca\u63a8\u7406\u80fd\u529b\u5747\u6709\u7f3a\u9677](2)\u8bed\u8a00\u969c\u788d:[\u4e3a\u672c\u7efc\u5408\u5f81\u5e38\u89c1\u7684\u7279\u5f81\u3002\u591a\u8868\u73b0\u4e3a\u4f1a\u8bdd\u548c\u8a00\u8bed\u8868\u8fbe\u80fd\u529b\u53d1\u80b2\u4e25\u91cd\u8fdf\u7f13\uff0c\u5b66\u8bed\u5e74\u9f84\u5ef6\u8fdf\u3001\u8bcd\u6c47\u91cf\u5c11\u3001\u8bed\u8a00\u91cd\u590d\u5355\u8c03\uff0c\u6a21\u4eff\u8bed\u8a00\u3001\u6301\u7eed\u8bed\u8a00](3)\u884c\u4e3a\u969c\u788d:[\u7edd\u5927\u591a\u6570\u60a3\u8005\u6709\u591a\u52a8\u3001\u6ce8\u610f\u529b\u4e0d\u96c6\u4e2d\uff0c\u4ee5\u5e74\u9f84\u5c0f\u8005\u8f83\u4e3a\u7a81\u51fa\uff0c\u968f\u5e74\u9f84\u589e\u957f\u800c\u51cf\u8f7b\u3002\u591a\u52a8\u7684\u7a0b\u5ea6\u4e0e\u667a\u5546\u65e0\u5173\u3002\u5b64\u72ec\u75c7\u4e5f\u8f83\u5e38\u89c1](4)\u7279\u6b8a\u9762\u5bb9:[\u5934\u56f4\u589e\u5927\u3001\u8138\u957f\u7a84\u3001\u524d\u989d\u7a81\u51fa\u3001\u8679\u819c\u989c\u8272\u53d8\u6de1\u84dd\u3001\u5927\u8033\u6216\u62db\u98ce\u8033\u3001\u816d\u5f13\u9ad8\u3001\u5634\u5927\u5507\u539a\u3001\u4e0b\u988c\u7a81\u51fa\u7b49\u3002\u60a3\u8005\u8eab\u6750\u8f83\u9ad8](5)\u5de8\u777e\u75c7:[\u4e3a\u7279\u5f81\u6027\u6539\u53d8\uff0c\u591a\u6570\u5728\u9752\u6625\u671f\u53d1\u751f\uff0c\u5e74\u5e7c\u513f\u5c11\u89c1](6)\u766b\u75eb:[\u4ee5\u5f3a\u76f4\u9635\u631b\u6027\u53d1\u4f5c\u591a\u89c1\uff0c\u5176\u6b21\u4e3a\u590d\u6742\u90e8\u5206\u6027\uff0c\u53d1\u4f5c\u4e00\u822c\u4e0d\u9891\u7e41\uff0c\u59cb\u4e8e\u513f\u7ae5\u6216\u9752\u5c11\u5e74\u671f\uff0c\u6210\u5e74\u540e\u6d88\u5931](7)\u5176\u4ed6\u5f02\u5e38:[\u53ef\u6709\u7ed3\u7f14\u7ec4\u7ec7\u529f\u80fd\u5931\u8c03\u8868\u73b0\uff0c\u5982\u53ef\u8fc7\u5ea6\u4f38\u76f4\u6307\u5173\u8282\u3001\u5927\u624b\u3001\u6241\u5e73\u8db3\u3001\u4e8c\u5c16\u74e3\u8131\u5782\u3001\u4e3b\u52a8\u8109\u5ef6\u957f\u7b49\u3002\u8fd8\u53ef\u6709\u5171\u6d4e\u5931\u8c03\u3001\u8171\u53cd\u5c04\u4ea2\u8fdb\u3001\u7751\u75c9\u631b\u7b49\u795e\u7ecf\u7cfb\u7edf\u4f53\u5f81](8)\u76ae\u7eb9\u5f02\u5e38:[\u5f13\u5f62\u7eb9\u3001\u53cd\u7b95\u5f62\u7eb9\u589e\u591a\uff0c\u800c\u6b63\u7b95\u5f62\u7eb9\u51cf\u5c11\uff0c\u6307\u5d74\u7eb9\u603b\u6570\u548c\u7edd\u5bf9\u5d74\u7eb9\u6570\u503c\u589e\u9ad8]
p238
sg5
g236
sg6
V(1)\u67d3\u8272\u4f53\u68c0\u67e5\uff1b[\u901a\u5e38\u5728\u4f4e\u6216\u65e0\u53f6\u9178\u548c\u80f8\u817a\u5627\u5576\u7684\u57f9\u517b\u57fa\u4e2d\u8fdb\u884c\u57f9\u517b\uff0c\u4f46\u662f\u9633\u6027\u7387\u4f4e\uff0c\u4e0d\u80fd\u6d4b\u51fa\u643a\u5e26\u8005](2)\u57fa\u56e0\u8bca\u65ad:[\u662f\u76ee\u524d\u8bca\u65ad\u8106\u6027X\u7efc\u5408\u5f81\u6700\u53ef\u9760\u7684\u65b9\u6cd5]
p239
ss.