(dp0
V\u7ed3\u76f4\u80a0\u764c
p1
(dp2
Vnodes
p3
(lp4
(dp5
Vcontent
p6
V\u7ed3\u76f4\u80a0\u764c(colorectal cancer\uff0cCRC)\u662f\u8d77\u6e90\u4e8e\u7ed3\u76f4\u80a0\u9ecf\u819c\u4e0a\u76ae\u7684\u6076\u6027\u80bf\u7624\uff0c\u662f\u4e34\u5e8a\u6700\u4e3a\u5e38\u89c1\u7684\u6076\u6027\u80bf\u7624\u4e4b\u4e00\u3002
p7
sVtype
p8
Vlevel0
p9
sVname
p10
V\u7ed3\u76f4\u80a0\u764c
p11
sVID
p12
V
p13
sa(dp14
g6
V\u6839\u636e1975\u5e74Et\u672c\u7ed3\u76f4\u80a0\u764c\u7814\u8ba8\u4f1a\u4e0a\u7684\u8ba8\u8bba\u610f\u89c1\uff0c\u76ee\u524d\u6211\u56fd\u666e\u904d\u5c06\u5c40\u9650\u4e8e\u7ed3\u76f4\u80a0\u9ecf\u819c\u5c42\u53ca\u9ecf\u819c\u4e0b\u5c42\u7684\u764c\u5b9a\u4e49\u4e3a\u65e9\u671f\u7ed3\u76f4\u80a0\u764c\uff0c\u5176\u4e2d\u5c40\u9650\u4e8e\u9ecf\u819c\u5c42\u7684\u4e3a\u9ecf\u819c\u5185\u764c\uff0c\u6d78\u6da6\u81f3\u9ecf\u819c\u4e0b\u5c42\u4f46\u672a\u4fb5\u72af\u56fa\u6709\u808c\u5c42\u8005\u4e3a\u9ecf\u819c\u4e0b\u764c\u3002\u800c2000\u5e74\u7248\u7684WHO\u80bf\u7624\u5206\u7c7b\u5219\u89c4\u5b9a\u7ed3\u80a0\u6216\u76f4\u80a0\u53d1\u751f\u7684\u4e0a\u76ae\u6076\u6027\u80bf\u7624\uff0c\u53ea\u6709\u7a7f\u900f\u9ecf\u819c\u808c\u5c42\u3001\u6d78\u6da6\u5230\u9ecf\u819c\u4e0b\u5c42\u65f6\u624d\u88ab\u8ba4\u4e3a\u662f\u6076\u6027\u7684\u3002\u9274\u4e8e\u6211\u56fd\u5b9e\u9645\u60c5\u51b5\uff0c\u63a8\u8350\u4f7f\u7528WHO\u63a8\u8350\u672f\u8bed\uff0c\u4f46\u4e5f\u53ef\u6682\u65f6\u6cbf\u7528\u539f\u4f4d\u764c\u3001\u9ecf\u819c\u5185\u764c\u7b49\u672f\u8bed
p15
sg8
Vlevel1
p16
sg10
V\u65e9\u671f\u7ed3\u76f4\u80a0\u764c
p17
sg12
g13
sa(dp18
g6
V\u6211\u56fd\u7ed3\u76f4\u80a0\u764c\ufe59colorectal cancer,CRC)\u7684\u53d1\u75c5\u7387\u548c\u6b7b\u4ea1\u7387\u5747\u4fdd\u6301\u4e0a\u5347\u8d8b\u52bf\u3002 2011\u5e74\u7ed3\u76f4\u80a0\u764c\u7684\u53d1\u75c5\u7387\u548c\u6b7b\u4ea1\u7387\u5206\u522b\u4e3a23.03/10 \u4e07\u548c 11.11/10 \u4e07\u3002 \u5176\u4e2d,\u57ce\u5e02\u5730\u533a\u8fdc\u9ad8\u4e8e\u519c\u6751,\u4e14\u7ed3\u80a0\u764c\u7684\u53d1\u75c5\u7387\u4e0a\u5347\u663e\u8457\u3002 \u591a\u6570\u60a3\u8005\u53d1\u73b0\u65f6\u5df2\u5c5e\u4e8e\u4e2d\u665a\u671f\u3002
p19
sg8
Vlevel1
p20
sg10
V\u7ed3\u76f4\u80a0\u764c\u53d1\u75c5\u7387
p21
sg12
g13
sa(dp22
g6
V\u65e9\u671f\u7ed3\u76f4\u80a0\u764c\u53ef\u65e0\u660e\u663e\u75c7\u72b6, \u75c5\u60c5\u53d1\u5c55\u5230\u4e00\u5b9a\u7a0b\u5ea6\u53ef\u51fa\u73b0\u4e0b\u5217\u75c7\u72b6
p23
sg8
Vlevel2
p24
sg10
V\u4e34\u5e8a\u8868\u73b0
p25
sg12
g13
sa(dp26
g6
V\u8bca\u65ad\u6280\u672f\u4e0e\u5e94\u7528\uff0c\u8be6\u89c1\u5b50\u8282\u70b9
p27
sg8
Vlevel1
p28
sg10
V\u8bca\u65ad\u6280\u672f\u4e0e\u5e94\u7528
p29
sg12
g13
sa(dp30
g6
V\u75be\u75c5\u68c0\u67e5
p31
sg8
Vlevel2
p32
sg10
V\u75be\u75c5\u68c0\u67e5
p33
sg12
g13
sa(dp34
g6
V\u6392\u7caa\u4e60\u60ef\u6539\u53d8
p35
sg8
Vlevel3
p36
sg10
V\u6392\u7caa\u4e60\u60ef
p37
sg12
g13
sa(dp38
g6
V\u7caa\u4fbf\u6027\u72b6\u6539\u53d8\ufe59\u53d8\u7ec6\u3001\u8840\u4fbf\u3001\u9ecf\u6db2\u4fbf\u7b49)
p39
sg8
Vlevel3
p40
sg10
V\u7caa\u4fbf\u6027\u72b6
p41
sg12
g13
sa(dp42
g6
V\u8179\u75db\u6216\u8179\u90e8\u4e0d\u9002
p43
sg8
Vlevel3
p44
sg10
V\u8179\u75db
p45
sg12
g13
sa(dp46
g6
V\u8179\u90e8\u80bf\u5757
p47
sg8
Vlevel3
p48
sg10
V\u8179\u90e8\u80bf\u5757
p49
sg12
g13
sa(dp50
g6
V\u80a0\u6897\u963b\u76f8\u5173\u75c7\u72b6
p51
sg8
Vlevel3
p52
sg10
V\u80a0\u6897\u963b
p53
sg12
g13
sa(dp54
g6
V\u8d2b\u8840\u53ca\u5168\u8eab\u75c7\u72b6\uff1a\u5982\u6d88\u7626\u3001\u4e4f\u529b\u3001\u4f4e\u70ed\u7b49
p55
sg8
Vlevel3
p56
sg10
V\u8d2b\u8840\u53ca\u5168\u8eab\u75c7\u72b6
p57
sg12
g13
sa(dp58
g6
V\u7ed3\u76f4\u80a0\u764c\u53d1\u75c5\u53ef\u80fd\u4e0e\u4ee5\u4e0b\u75be\u75c5\u76f8\u5173\uff1a\u6e83\u75a1\u6027\u7ed3\u80a0\u708e\u3001\u7ed3\u76f4\u80a0\u606f\u8089\u75c5\u3001\u7ed3\u76f4\u80a0\u817a\u7624\u3001Crohn \u75c5\u3001\u8840\u5438\u866b\u75c5\u7b49,\u5e94\u8be6\u7ec6\u8be2\u95ee\u60a3\u8005\u76f8\u5173\u75c5\u53f2\u3002
p59
sg8
Vlevel2
p60
sg10
V\u75be\u75c5\u53f2
p61
sg12
g13
sa(dp62
g6
V\u9057\u4f20\u6027\u7ed3\u76f4\u80a0\u764c\u53d1\u75c5\u7387\u7ea6\u5360\u603b\u4f53\u7ed3\u76f4\u80a0\u764c\u53d1\u75c5\u7387\u76846%\u5de6\u53f3,\u5e94\u8be6\u7ec6\u8be2\u95ee\u60a3\u8005\u76f8\u5173\u5bb6\u65cf\u75c5\u53f2\uff1a\u9057\u4f20\u6027\u975e\u606f\u8089\u75c5\u6027\u7ed3\u76f4\u80a0\u764c,\u5bb6\u65cf\u6027\u817a\u7624\u6027\u606f\u8089\u75c5,\u9ed1\u6591\u606f\u8089\u7efc\u5408\u5f81\u3001\u5e7c\u5e74\u6027\u606f\u8089\u75c5\u3002
p63
sg8
Vlevel2
p64
sg10
V\u5bb6\u65cf\u53f2
p65
sg12
g13
sa(dp66
g6
V\u4f53\u683c\u68c0\u67e5
p67
sg8
Vlevel3
p68
sg10
V\u4f53\u683c\u68c0\u67e5
p69
sg12
g13
sa(dp70
g6
V\u4e00\u822c\u72b6\u51b5\u8bc4\u4ef7\u3001\u5168\u8eab\u6d45\u8868\u6dcb\u5df4\u7ed3\u60c5\u51b5\u3002
p71
sg8
Vlevel4
p72
sg10
V\u6d45\u8868\u6dcb\u5df4\u7ed3
p73
sg12
g13
sa(dp74
g6
V\u68c0\u67e5\u6709\u65e0\u80a0\u578b\u3001\u80a0\u8815\u52a8\u6ce2\u3001\u8179\u90e8\u80bf\u5757\u3002
p75
sg8
Vlevel4
p76
sg10
V\u8179\u90e8\u89c6\u8bca\u548c\u89e6\u8bca
p77
sg12
g13
sa(dp78
g6
V\u51e1\u7591\u4f3c\u7ed3\u76f4\u80a0\u764c\u8005\u5fc5\u987b\u5e38\u89c4\u4f5c\u809b\u95e8\u76f4\u80a0\u6307\u68c0\u3002 \u4e86\u89e3\u76f4\u80a0\u80bf\u7624\u5927\u5c0f\u3001\u8d28\u5730\u3001\u5360\u80a0\u58c1\u5468\u5f84\u7684\u8303\u56f4\u3001\u57fa\u5e95\u90e8\u6d3b\u52a8\u5ea6\u3001\u8ddd\u809b\u7f18\u7684\u8ddd\u79bb\u3001\u80bf\u7624\u5411\u80a0\u5916\u6d78\u6da6\u72b6\u51b5\u3001\u4e0e\u5468\u56f4\u810f\u5668\u7684\u5173\u7cfb\u3001\u6709\u65e0\u76c6\u5e95\u79cd\u690d\u7b49\u3002 \u6307\u68c0\u65f6\u5fc5\u987b\u4ed4\u7ec6\u89e6\u6478,\u907f\u514d\u6f0f\u8bca\uff1b\u89e6\u6478\u8f7b\u67d4,\u5207\u5fcc\u6324\u538b,\u89c2\u5bdf\u662f\u5426\u6307\u5957\u8840\u67d3\u3002
p79
sg8
Vlevel4
p80
sg10
V\u76f4\u80a0\u6307\u68c0
p81
sg12
g13
sa(dp82
g6
V\u5b9e\u9a8c\u5ba4\u68c0\u67e5
p83
sg8
Vlevel3
p84
sg10
V\u5b9e\u9a8c\u5ba4\u68c0\u67e5
p85
sg12
g13
sa(dp86
g6
V\u4e86\u89e3\u6709\u65e0\u8d2b\u8840\u3002
p87
sg8
Vlevel4
p88
sg10
V\u8840\u5e38\u89c4
p89
sg12
g13
sa(dp90
g6
V\u89c2\u5bdf\u6709\u65e0\u8840\u5c3f,\u7ed3\u5408\u6ccc\u5c3f\u7cfb\u5f71\u50cf\u5b66\u68c0\u67e5\u4e86\u89e3\u80bf\u7624\u662f\u5426\u4fb5\u72af\u6ccc\u5c3f\u7cfb\u7edf\u3002
p91
sg8
Vlevel4
p92
sg10
V\u5c3f\u5e38\u89c4
p93
sg12
g13
sa(dp94
g6
V\u6ce8\u610f\u6709\u65e0\u7ea2\u7ec6\u80de\u3001\u8113\u7ec6\u80de\u3002
p95
sg8
Vlevel4
p96
sg10
V\u7caa\u4fbf\u5e38\u89c4
p97
sg12
g13
sa(dp98
g6
V\u9488\u5bf9\u6d88\u5316\u9053\u5c11\u91cf\u51fa\u8840\u7684\u8bca\u65ad\u6709\u91cd\u8981\u4ef7\u503c\u3002
p99
sg8
Vlevel4
p100
sg10
V\u7caa\u4fbf\u9690\u8840\u8bd5\u9a8c
p101
sg12
g13
sa(dp102
g6
V\u8840\u6db2\u751f\u5316\u53ca\u809d\u529f\u80fd
p103
sg8
Vlevel4
p104
sg10
V\u8840\u6db2\u751f\u5316\u53ca\u809d\u529f\u80fd
p105
sg12
g13
sa(dp106
g6
V\u7ed3\u76f4\u80a0\u764c\u60a3\u8005\u5728\u8bca\u65ad\u3001\u6cbb\u7597\u524d\u3001\u8bc4\u4ef7\u7597\u6548\u3001\u968f\u8bbf\u65f6\u5fc5\u987b\u68c0\u6d4b CEA\u3001CA19-9\uff1b\u6709\u809d\u8f6c\u79fb\u60a3\u8005\u5efa\u8bae\u68c0\u6d4b AFP\uff1b\u7591\u6709\u5375\u5de2\u8f6c\u79fb\u60a3\u8005\u5efa\u8bae\u68c0\u6d4b CA125\u3002
p107
sg8
Vlevel4
p108
sg10
V\u5176\u4ed6\u68c0\u67e5
p109
sg12
g13
sa(dp110
g6
V\u76f4\u80a0\u955c\u548c\u4e59\u72b6\u7ed3\u80a0\u955c\u9002\u7528\u4e8e\u75c5\u53d8\u4f4d\u7f6e\u8f83\u4f4e\u7684\u7ed3\u76f4\u80a0\u75c5\u53d8\u6240\u6709\u7591\u4f3c\u7ed3\u76f4\u80a0\u764c\u60a3\u8005\u5747\u63a8\u8350\u7ed3\u80a0\u955c\u68c0\u67e5
p111
sg8
Vlevel3
p112
sg10
V\u5185\u955c\u68c0\u67e5
p113
sg12
g13
sa(dp114
g6
V\u5185\u955c\u68c0\u67e5\u62a5\u544a\u5fc5\u987b\u5305\u62ec\uff1a\u8fdb\u955c\u6df1\u5ea6\u3001\u80bf\u7269\u5927\u5c0f\u3001\u8ddd\u809b\u7f18\u4f4d\u7f6e\u3001\u5f62\u6001\u3001\u5c40\u90e8\u6d78\u6da6\u7684\u8303\u56f4,\u5bf9\u53ef\u7591\u75c5\u53d8\u5fc5\u987b\u884c\u75c5\u7406\u5b66\u6d3b\u7ec4\u7ec7\u68c0\u67e5\u3002\u7531\u4e8e\u7ed3\u80a0\u80a0\u7ba1\u5728\u68c0\u67e5\u65f6\u53ef\u80fd\u51fa\u73b0\u76b1\u7f29, \u56e0\u6b64\u5185\u955c\u6240\u89c1\u80bf\u7269\u8fdc\u4fa7\u8ddd\u79bb\u809b\u7f18\u8ddd\u79bb\u53ef\u80fd\u5b58\u5728\u8bef\u5dee, \u5efa\u8bae\u7ed3\u5408 CT\u3001MRI\u6216\u94a1\u5242\u704c\u80a0\u660e\u786e\u75c5\u7076\u90e8\u4f4d\u3002\u000a
p115
sg8
Vlevel4
p116
sg10
V\u5185\u955c\u68c0\u67e5\u62a5\u544a
p117
sg12
g13
sa(dp118
g6
V\u4ee5\u4e0b\u60c5\u51b5\u4e0d\u9002\u7528\u5185\u955c\u68c0\u67e5\uff1a1. \u4e00\u822c\u72b6\u51b5\u4e0d\u4f73,\u96be\u4ee5\u8010\u53d7\uff1b2. \u6025\u6027\u8179\u819c\u708e\u3001\u80a0\u7a7f\u5b54\u3001\u8179\u8154\u5185\u5e7f\u6cdb\u7c98\u8fde\uff1b3. \u809b\u5468\u6216\u4e25\u91cd\u80a0\u9053\u611f\u67d3\uff1b4. \u5987\u5973\u598a\u5a20\u671f\u548c\u6708\u7ecf\u671f\u3002\u000a
p119
sg8
Vlevel4
p120
sg10
V\u4e0d\u9002\u7528\u5185\u955c\u68c0\u67e5\u7684\u60c5\u51b5
p121
sg12
g13
sa(dp122
g6
V\u5f71\u50cf\u5b66\u68c0\u67e5
p123
sg8
Vlevel3
p124
sg10
V\u5f71\u50cf\u5b66\u68c0\u67e5
p125
sg12
g13
sa(dp126
g6
V\u7ed3\u80a0\u94a1\u5242\u704c\u80a0\u68c0\u67e5, \u7279\u522b\u662f\u6c14\u94a1\u53cc\u91cd\u9020\u5f71\u68c0\u67e5\u662f\u8bca\u65ad\u7ed3\u76f4\u80a0\u764c\u7684\u91cd\u8981\u624b\u6bb5\u3002 \u4f46\u7591\u6709\u80a0\u6897\u963b\u7684\u60a3\u8005\u5e94\u5f53\u8c28\u614e\u9009\u62e9\u3002
p127
sg8
Vlevel4
p128
sg10
V\u7ed3\u80a0\u94a1\u5242\u704c\u80a0\u68c0\u67e5
p129
sg12
g13
sa(dp130
g6
V\u8179\u90e8\u8d85\u58f0\u68c0\u67e5\u53ef\u4e86\u89e3\u60a3\u8005\u6709\u65e0\u590d\u53d1\u8f6c\u79fb,\u5177\u6709\u65b9\u4fbf\u5feb\u6377\u7684\u4f18\u8d8a\u6027\u3002
p131
sg8
Vlevel4
p132
sg10
VB\u578b\u8d85\u58f0
p133
sg12
g13
sa(dp134
g6
VCT \u68c0\u67e5\u7684\u4f5c\u7528\u5728\u4e8e\u660e\u786e\u75c5\u53d8\u4fb5\u72af\u80a0\u58c1\u7684\u6df1\u5ea6,\u5411\u58c1\u5916\u8513\u5ef6\u7684\u8303\u56f4\u548c\u8fdc\u5904\u8f6c\u79fb\u7684\u90e8\u4f4d\u3002 \u76ee\u524d,\u7ed3\u76f4\u80a0\u764c\u7684 CT \u68c0\u67e5\u63a8\u8350\u7528\u4e8e\u4ee5\u4e0b\u51e0\u4e2a\u65b9\u9762\uff1a\ufe591) \u63d0\u4f9b\u7ed3\u76f4\u80a0\u6076\u6027\u80bf\u7624\u7684\u5206\u671f\uff1b\ufe592) \u53d1\u73b0\u590d\u53d1\u80bf\u7624\uff1b\ufe593) \u8bc4\u4ef7\u80bf\u7624\u5bf9\u5404\u79cd\u6cbb\u7597\u7684\u53cd\u5e94\uff1b\ufe594) \u9610\u660e\u94a1\u5242\u704c\u80a0\u6216\u5185\u955c\u53d1\u73b0\u7684\u80a0\u58c1\u5185\u548c\u5916\u5728\u6027\u538b\u8feb\u6027\u75c5\u53d8\u7684\u5185\u90e8\u7ed3\u6784,\u660e\u786e\u5176\u6027\u8d28\uff1b\ufe595) \u5bf9\u94a1\u5242\u704c\u80a0\u68c0\u67e5\u53d1\u73b0\u7684\u8179\u5185\u80bf\u5757\u4f5c\u51fa\u8bc4\u4ef7, \u660e\u786e\u80bf\u5757\u7684\u6765\u6e90\u53ca\u5176\u4e0e\u5468\u56f4\u810f\u5668\u7684\u5173\u7cfb\uff1b\ufe596) \u53ef\u5224\u65ad\u80bf\u7624\u4f4d\u7f6e\u3002
p135
sg8
Vlevel4
p136
sg10
VCT\u68c0\u67e5
p137
sg12
g13
sa(dp138
g6
VMRI \u68c0\u67e5\u7684\u9002\u5e94\u8bc1\u540c CT \u68c0\u67e5\u3002 \u63a8\u8350 MRI\u4f5c\u4e3a\u76f4\u80a0\u764c\u5e38\u89c4\u68c0\u67e5\u9879\u76ee\u7528\u4e8e\u4ee5\u4e0b\u51e0\u65b9\u9762\uff1a\ufe591)\u76f4\u80a0\u764c\u7684\u672f\u524d\u5206\u671f\uff1b\ufe592)\u7ed3\u76f4\u80a0\u764c\u809d\u8f6c\u79fb\u75c5\u7076\u7684\u8bc4\u4ef7\uff1b\ufe593)\u6000\u7591\u8179\u819c\u4ee5\u53ca\u809d\u88ab\u819c\u4e0b\u75c5\u7076\u3002
p139
sg8
Vlevel4
p140
sg10
VMRI\u68c0\u67e5
p141
sg12
g13
sa(dp142
g6
V\u63a8\u8350\u76f4\u80a0\u8154\u5185\u8d85\u58f0\u6216\u5185\u955c\u8d85\u58f0\u68c0\u67e5\u4e3a\u4e2d\u4f4e\u4f4d\u76f4\u80a0\u764c\u8bca\u65ad\u53ca\u5206\u671f\u7684\u5e38\u89c4\u68c0\u67e5\u3002
p143
sg8
Vlevel4
p144
sg10
V\u7ecf\u76f4\u80a0\u8154\u5185\u8d85\u58f0\u68c0\u67e5
p145
sg12
g13
sa(dp146
g6
V\u4e0d\u63a8\u8350\u5e38\u89c4\u4f7f\u7528,\u4f46\u5bf9\u4e8e\u75c5\u60c5\u590d\u6742\u3001\u5e38\u89c4\u68c0\u67e5\u65e0\u6cd5\u660e\u786e\u8bca\u65ad\u7684\u60a3\u8005\u53ef\u4f5c\u4e3a\u6709\u6548\u7684\u8f85\u52a9\u68c0\u67e5\u3002 \u672f\u524d\u68c0\u67e5\u63d0\u793a\u4e3a\u2162\u671f\u4ee5\u4e0a\u80bf\u7624,\u4e3a\u4e86\u89e3\u6709\u65e0\u8fdc\u5904\u8f6c\u79fb,\u63a8\u8350\u4f7f\u7528\u3002
p147
sg8
Vlevel4
p148
sg10
V\u5f71\u50cf\u5b66\u68c0\u67e5PET-CT
p149
sg12
g13
sa(dp150
g6
V\u4e0d\u63a8\u8350\u672f\u524d\u5e38\u89c4\u68c0\u67e5,\u4ec5\u9002\u7528\u4e8e\u80bf\u7624\u8f83\u5927\u53ef\u80fd\u4fb5\u53ca\u5c3f\u8def\u7684\u60a3\u8005\u3002
p151
sg8
Vlevel4
p152
sg10
V\u6392\u6cc4\u6027\u5c3f\u8def\u9020\u5f71
p153
sg12
g13
sa(dp154
g6
V\u75c5\u7406\u6d3b\u68c0\u660e\u786e\u5360\u4f4d\u6027\u8d28\u662f\u7ed3\u76f4\u80a0\u764c\u6cbb\u7597\u7684\u4f9d\u636e\u3002
p155
sg8
Vlevel3
p156
sg10
V\u75c5\u7406\u7ec4\u7ec7\u5b66\u68c0\u67e5
p157
sg12
g13
sa(dp158
g6
V\u6d3b\u68c0\u8bca\u65ad\u4e3a\u6d78\u6da6\u6027\u764c\u7684\u75c5\u4f8b\u8fdb\u884c\u89c4\u8303\u6027\u7ed3\u76f4\u80a0\u764c\u6cbb\u7597\u3002 \u000a
p159
sg8
Vlevel4
p160
sg10
V\u6d3b\u68c0\u8bca\u65ad\u4e3a\u6d78\u6da6\u6027\u764c
p161
sg12
g13
sa(dp162
g6
V\u5982\u56e0\u6d3b\u68c0\u53d6\u6750\u7684\u9650\u5236,\u6d3b\u68c0\u75c5\u7406\u4e0d\u80fd\u786e\u5b9a\u6d78\u6da6\u6df1\u5ea6,\u8bca\u65ad\u4e3a\u9ad8\u7ea7\u522b\u4e0a\u76ae\u5185\u7624\u53d8\u7684\u75c5\u4f8b, \u5efa\u8bae\u4e34\u5e8a\u533b\u5e08\u7efc\u5408\u5176\u4ed6\u4e34\u5e8a\u60c5\u51b5\u5305\u62ec\u6709\u65e0\u8109\u7ba1\u764c\u6813\u548c\u764c\u5468\u7684\u6dcb\u5df4\u7ec6\u80de\u53cd\u5e94\u7b49,\u786e\u5b9a\u6cbb\u7597\u65b9\u6848\u3002\u000a
p163
sg8
Vlevel4
p164
sg10
V\u8bca\u65ad\u4e3a\u9ad8\u7ea7\u522b\u4e0a\u76ae\u5185\u7624\u53d8
p165
sg12
g13
sa(dp166
g6
V\u786e\u5b9a\u4e3a\u590d\u53d1\u6216\u8f6c\u79fb\u6027\u7ed3\u76f4\u80a0\u764c\u65f6, \u63a8\u8350\u68c0\u6d4b\u80bf\u7624\u7ec4\u7ec7 Ras \u57fa\u56e0\u53ca\u5176\u4ed6\u76f8\u5173\u57fa\u56e0\u72b6\u6001\u4ee5\u6307\u5bfc\u8fdb\u4e00\u6b65\u6cbb\u7597\u3002\u000a
p167
sg8
Vlevel4
p168
sg10
V\u786e\u5b9a\u4e3a\u590d\u53d1\u6216\u8f6c\u79fb\u6027\u7ed3\u76f4\u80a0\u764c
p169
sg12
g13
sa(dp170
g6
V\u5982\u4e0b\u60c5\u51b5,\u5efa\u8bae\u884c\u5f00\u8179\u6216\u8179\u8154\u955c\u63a2\u67e5\u672f
p171
sg8
Vlevel3
p172
sg10
V\u5f00\u8179\u6216\u8179\u8154\u955c\u63a2\u67e5\u672f
p173
sg12
g13
sa(dp174
g6
V\u7ecf\u8fc7\u5404\u79cd\u8bca\u65ad\u624b\u6bb5\u5c1a\u4e0d\u80fd\u660e\u786e\u8bca\u65ad\u4e14\u9ad8\u5ea6\u6000\u7591\u7ed3\u76f4\u80a0\u80bf\u7624
p175
sg8
Vlevel4
p176
sg10
V\u7ecf\u8fc7\u5404\u79cd\u8bca\u65ad\u624b\u6bb5\u5c1a\u4e0d\u80fd\u660e\u786e\u8bca\u65ad\u4e14\u9ad8\u5ea6\u6000\u7591\u7ed3\u76f4\u80a0\u80bf\u7624
p177
sg12
g13
sa(dp178
g6
V\u51fa\u73b0\u80a0\u6897\u963b,\u8fdb\u884c\u4fdd\u5b88\u6cbb\u7597\u65e0\u6548
p179
sg8
Vlevel4
p180
sg10
V\u51fa\u73b0\u80a0\u6897\u963b,\u8fdb\u884c\u4fdd\u5b88\u6cbb\u7597\u65e0\u6548
p181
sg12
g13
sa(dp182
g6
V\u53ef\u7591\u51fa\u73b0\u80a0\u7a7f\u5b54
p183
sg8
Vlevel4
p184
sg10
V\u53ef\u7591\u51fa\u73b0\u80a0\u7a7f\u5b54
p185
sg12
g13
sa(dp186
g6
V\u4fdd\u5b88\u6cbb\u7597\u65e0\u6548\u7684\u4e0b\u6d88\u5316\u9053\u5927\u51fa\u8840
p187
sg8
Vlevel4
p188
sg10
V\u4fdd\u5b88\u6cbb\u7597\u65e0\u6548\u7684\u4e0b\u6d88\u5316\u9053\u5927\u51fa\u8840
p189
sg12
g13
sa(dp190
g6
V\u7ed3\u76f4\u80a0\u764c\u7684\u8bca\u65ad\u6b65\u9aa4\uff1a\u75c5\u53f2\u3001\u4f53\u5f81\u2192\u4f53\u683c\u68c0\u67e5\u2192\u5b9e\u9a8c\u5ba4\u68c0\u67e5/\u5f71\u50cf\u5b66\u68c0\u67e5/\u5185\u955c\u68c0\u67e5/\u7591\u4f3c\u75c5\u4f8b\u65e0\u6cd5\u786e\u8bca\u6216\u5404\u79cd\u6025\u8bca\u60c5\u51b5\u4e0b\u53ef\u5256\u8179\u63a2\u67e5\u2192\u660e\u786e\u8bca\u65ad\u786e\u5b9a\u5206\u671f\u6cbb\u7597\u65b9\u6848
p191
sg8
Vlevel2
p192
sg10
V\u7ed3\u76f4\u80a0\u764c\u7684\u8bca\u65ad\u6b65\u9aa4
p193
sg12
g13
sa(dp194
g6
V\u7ed3\u76f4\u80a0\u764c\u7684\u9274\u522b\u8bca\u65ad
p195
sg8
Vlevel2
p196
sg10
V\u7ed3\u76f4\u80a0\u764c\u7684\u9274\u522b\u8bca\u65ad
p197
sg12
g13
sa(dp198
g6
V\u7ed3\u80a0\u764c\u4e3b\u8981\u4e0e\u4ee5\u4e0b\u75be\u75c5\u8fdb\u884c\u9274\u522b
p199
sg8
Vlevel3
p200
sg10
V\u7ed3\u80a0\u764c\u4e3b\u8981\u4e0e\u4ee5\u4e0b\u75be\u75c5\u8fdb\u884c\u9274\u522b
p201
sg12
g13
sa(dp202
g6
V\u672c\u75c5\u53ef\u4ee5\u51fa\u73b0\u8179\u6cfb\u3001\u9ecf\u6db2\u7caa\u4fbf\u3001\u8113\u8840\u7caa\u4fbf\u3001\u6392\u7caa\u6b21\u6570\u589e\u591a\u3001\u8179\u80c0\u3001\u8179\u75db\u3001\u6d88\u7626\u3001\u8d2b\u8840\u7b49\u75c7\u72b6,\u4f34\u6709\u611f\u67d3\u8005\u5c1a\u53ef\u6709\u53d1\u70ed\u7b49\u4e2d\u6bd2\u75c7\u72b6,\u4e0e\u7ed3\u80a0\u764c\u7684\u75c7\u72b6\u76f8\u4f3c,\u7ed3\u80a0\u955c\u68c0\u67e5\u53ca\u6d3b\u68c0\u662f\u6709\u6548\u7684\u9274\u522b\u65b9\u6cd5\u3002
p203
sg8
Vlevel4
p204
sg10
V\u708e\u6027\u80a0\u75c5
p205
sg12
g13
sa(dp206
g6
V\u56de\u76f2\u90e8\u764c\u53ef\u56e0\u5c40\u90e8\u75bc\u75db\u548c\u538b\u75db\u800c\u8bef\u8bca\u4e3a\u9611\u5c3e\u708e\u3002 \u7279\u522b\u662f\u665a\u671f\u56de\u76f2\u90e8\u764c, \u5c40\u90e8\u5e38\u53d1\u751f\u574f\u6b7b\u6e83\u70c2\u548c\u611f\u67d3,\u4e34\u5e8a\u8868\u73b0\u6709\u4f53\u6e29\u5347\u9ad8,\u767d\u7ec6\u80de\u8ba1\u6570\u589e\u9ad8,\u5c40\u90e8\u538b\u75db\u6216\u89e6\u53ca\u80bf\u5757,\u5e38\u8bca\u65ad\u4e3a\u9611\u5c3e\u8113\u80bf,\u9700\u6ce8\u610f\u9274\u522b\u3002
p207
sg8
Vlevel4
p208
sg10
V\u9611\u5c3e\u708e
p209
sg12
g13
sa(dp210
g6
V\u5728\u6211\u56fd\u8f83\u5e38\u89c1,\u597d\u53d1\u90e8\u4f4d\u5728\u56de\u80a0\u672b\u7aef\u3001\u76f2\u80a0\u53ca\u5347\u7ed3\u80a0\u3002 \u5e38\u89c1\u75c7\u72b6\u6709\u8179\u75db\u548c\u8179\u6cfb\u3001\u4fbf\u79d8\u4ea4\u66ff\u51fa\u73b0,\u90e8\u5206\u60a3\u8005\u53ef\u6709\u4f4e\u70ed\u3001\u8d2b\u8840\u3001\u6d88\u7626\u3001\u4e4f\u529b,\u8179\u90e8\u80bf\u5757,\u4e0e\u7ed3\u80a0\u764c\u75c7\u72b6\u76f8\u4f3c\u3002 \u4f46\u80a0\u7ed3\u6838\u60a3\u8005\u5168\u8eab\u75c7\u72b6\u66f4\u52a0\u660e\u663e,\u5982\u5348\u540e\u4f4e\u70ed\u6216\u4e0d\u89c4\u5219\u53d1\u70ed\u3001\u76d7\u6c57\u3001\u6d88\u7626\u4e4f\u529b,\u9700\u6ce8\u610f\u9274\u522b\u3002
p211
sg8
Vlevel4
p212
sg10
V\u80a0\u7ed3\u6838
p213
sg12
g13
sa(dp214
g6
V\u4e3b\u8981\u75c7\u72b6\u53ef\u4ee5\u662f\u4fbf\u8840,\u6709\u4e9b\u60a3\u8005\u8fd8\u53ef\u6709\u8113\u8840\u6837\u7caa\u4fbf,\u4e0e\u7ed3\u80a0\u764c\u76f8\u4f3c,\u94a1\u5242\u704c\u80a0\u68c0\u67e5\u53ef\u8868\u73b0\u4e3a\u5145\u76c8\u7f3a\u635f, \u884c\u7ed3\u80a0\u955c\u68c0\u67e5\u5e76\u53d6\u6d3b\u7ec4\u7ec7\u9001\u75c5\u7406\u68c0\u67e5\u662f\u6709\u6548\u7684\u9274\u522b\u65b9\u6cd5\u3002
p215
sg8
Vlevel4
p216
sg10
V\u7ed3\u80a0\u606f\u8089
p217
sg12
g13
sa(dp218
g6
V\u5c11\u6570\u75c5\u4f8b\u53ef\u764c\u53d8\u3002 \u7ed3\u5408\u8840\u5438\u866b\u611f\u67d3\u75c5\u53f2,\u7caa\u4fbf\u4e2d\u866b\u5375\u68c0\u67e5,\u4ee5\u53ca\u94a1\u5242\u704c\u80a0\u548c\u7ea4\u7ef4\u7ed3\u80a0\u955c\u68c0\u67e5\u53ca\u6d3b\u68c0\u53ef\u4ee5\u5e2e\u52a9\u9274\u522b\u3002
p219
sg8
Vlevel4
p220
sg10
V\u8840\u5438\u866b\u6027\u8089\u82bd\u80bf
p221
sg12
g13
sa(dp222
g6
V\u53ef\u6709\u80a0\u6897\u963b\u75c7\u72b6\u6216\u67e5\u4f53\u626a\u53ca\u8179\u90e8\u80bf\u5757\u4e0e\u7ed3\u80a0\u764c\u76f8\u4f3c\u3002 \u672c\u75c5\u60a3\u8005\u884c\u7caa\u4fbf\u68c0\u67e5\u65f6\u53ef\u627e\u5230\u963f\u7c73\u5df4\u6ecb\u517b\u4f53\u53ca\u5305\u56ca, \u94a1\u5242\u704c\u80a0\u68c0\u67e5\u5e38\u53ef\u89c1\u5de8\u5927\u7684\u5355\u8fb9\u7f3a\u635f\u6216\u5706\u5f62\u5207\u8ff9\u3002
p223
sg8
Vlevel4
p224
sg10
V\u963f\u7c73\u5df4\u8089\u82bd\u80bf
p225
sg12
g13
sa(dp226
g6
V\u597d\u53d1\u4e8e\u56de\u80a0\u672b\u7aef\u548c\u76f2\u80a0\u53ca\u5347\u7ed3\u80a0,\u4e5f\u53ef\u53d1\u751f\u4e8e\u964d\u7ed3\u80a0\u53ca\u76f4\u80a0\u3002 \u6dcb\u5df4\u7624\u4e0e\u7ed3\u80a0\u764c\u7684\u75c5\u53f2\u53ca\u4e34\u5e8a\u8868\u73b0\u65b9\u9762\u76f8\u4f3c,\u4f46\u7531\u4e8e\u7c98\u819c\u76f8\u5bf9\u6bd4\u8f83\u5b8c\u6574,\u51fa\u8840\u8f83\u5c11\u89c1\u3002 \u9274\u522b\u8bca\u65ad\u4e3b\u8981\u4f9d\u9760\u7ed3\u80a0\u955c\u4e0b\u7684\u6d3b\u7ec4\u7ec7\u68c0\u67e5\u4ee5\u660e\u786e\u8bca\u65ad\u3002
p227
sg8
Vlevel4
p228
sg10
V\u6dcb\u5df4\u7624
p229
sg12
g13
sa(dp230
g6
V\u76f4\u80a0\u764c\u9664\u4e0e\u4ee5\u4e0a\u75be\u75c5\u9274\u522b\u4ee5\u5916, \u5c1a\u9700\u4e0e\u4e0b\u5217\u75be\u75c5\u9274\u522b
p231
sg8
Vlevel3
p232
sg10
V\u5c1a\u9700\u4e0e\u4e0b\u5217\u75be\u75c5\u9274\u522b
p233
sg12
g13
sa(dp234
g6
V\u75d4\u4e00\u822c\u591a\u4e3a\u65e0\u75db\u6027\u4fbf\u8840,\u8840\u8272\u9c9c\u7ea2\u4e0d\u4e0e\u5927\u4fbf\u76f8\u6df7\u5408, \u76f4\u80a0\u764c\u4fbf\u8840\u5e38\u4f34\u6709\u9ecf\u6db2\u800c\u51fa\u73b0\u9ecf\u6db2\u8840\u4fbf\u548c\u76f4\u80a0\u523a\u6fc0\u75c7\u72b6\u3002 \u5bf9\u4fbf\u8840\u75c5\u4f8b\u5fc5\u987b\u5e38\u89c4\u884c\u76f4\u80a0\u6307\u68c0\u3002
p235
sg8
Vlevel4
p236
sg10
V\u75d4
p237
sg12
g13
sa(dp238
g6
V\u809b\u7618\u5e38\u7531\u809b\u7aa6\u708e\u800c\u5f62\u6210\u809b\u5468\u8113\u80bf\u6240\u81f4\u3002 \u60a3\u8005\u6709\u809b\u5468\u8113\u80bf\u75c5\u53f2, \u5c40\u90e8\u7ea2\u80bf\u75bc\u75db, \u4e0e\u76f4\u80a0\u764c\u75c7\u72b6\u5dee\u5f02\u8f83\u660e\u663e,\u9274\u522b\u6bd4\u8f83\u5bb9\u6613\u3002
p239
sg8
Vlevel4
p240
sg10
V\u809b\u7618
p241
sg12
g13
sa(dp242
g6
V\u75c7\u72b6\u4e3a\u8179\u75db\u3001\u8179\u6cfb,\u75c5\u53d8\u7d2f\u53ca\u76f4\u80a0\u53ef\u4f34\u91cc\u6025\u540e\u91cd\u3002 \u7caa\u4fbf\u4e3a\u6697\u7ea2\u8272\u6216\u7d2b\u7ea2\u8272\u8840\u6db2\u53ca\u9ecf\u6db2\u3002 \u80a0\u708e\u53ef\u81f4\u8089\u82bd\u53ca\u7ea4\u7ef4\u7ec4\u7ec7\u589e\u751f,\u4f7f\u80a0\u58c1\u589e\u539a,\u80a0\u8154\u72ed\u7a84,\u6613\u8bef\u8bca\u4e3a\u76f4\u80a0\u764c,\u7ea4\u7ef4\u7ed3\u80a0\u955c\u68c0\u67e5\u53ca\u6d3b\u68c0\u4e3a\u6709\u6548\u9274\u522b\u624b\u6bb5\u3002
p243
sg8
Vlevel4
p244
sg10
V\u963f\u7c73\u5df4\u80a0\u708e
p245
sg12
g13
sa(dp246
g6
V\u4e3b\u8981\u75c7\u72b6\u662f\u4fbf\u8840,\u7ed3\u80a0\u955c\u68c0\u67e5\u53ca\u6d3b\u68c0\u4e3a\u6709\u6548\u9274\u522b\u624b\u6bb5\u3002
p247
sg8
Vlevel4
p248
sg10
V\u76f4\u80a0\u606f\u8089
p249
sg12
g13
sa(dp250
g6
V\u5185\u955c\u6cbb\u7597
p251
sg8
Vlevel2
p252
sg10
V\u5185\u955c\u6cbb\u7597
p253
sg12
g13
sa(dp254
g6
V\u4e0e\u4f20\u7edf\u5916\u79d1\u624b\u672f\u76f8\u6bd4\uff0c\u5185\u955c\u4e0b\u5207\u9664\u5177\u6709\u521b\u4f24\u5c0f\u3001\u5e76\u53d1\u75c7\u5c11\u3001\u6062\u590d\u5feb\u3001\u8d39\u7528\u4f4e\u7b49\u4f18\u70b9\uff0c\u4e14\u7597\u6548\u76f8\u5f53\uff0c5\u5e74\u751f\u5b58\u7387\u5747\u53ef\u8fbe\u5230\u7ea690\uff05\u3002\u539f\u5219\u4e0a\uff0c\u6ca1\u6709\u6dcb\u5df4\u7ed3\u8f6c\u79fb\u6216\u6dcb\u5df4\u7ed3\u8f6c\u79fb\u98ce\u9669\u6781\u4f4e\u3001\u4f7f\u7528\u5185\u955c\u6280\u672f\u53ef\u4ee5\u5b8c\u6574\u5207\u9664\u3001\u6b8b\u7559\u548c\u590d\u53d1\u98ce\u9669\u4f4e\u7684\u75c5\u53d8\u5747\u9002\u5408\u8fdb\u884c\u5185\u955c\u4e0b\u5207\u9664(\u56fe4)
p255
sg8
Vlevel3
p256
sg10
V\u6cbb\u7597\u539f\u5219
p257
sg12
g13
sa(dp258
g6
V\u65e9\u671f\u7ed3\u76f4\u80a0\u764c\u5e38\u7528\u7684\u5185\u955c\u5207\u9664\u6280\u672f\u4e3b\u8981\u5305\u62ec\u5e38\u89c4\u5185\u955c\u4e0b\u606f\u8089\u5207\u9664\u672f\u3001\u5185\u955c\u4e0b\u9ecf\u819c\u5207\u9664\u672f(endoscopic mucosal resection\uff0cEMR)\u3001ESD\u7b49
p259
sg8
Vlevel3
p260
sg10
V\u5185\u955c\u4e0b\u5207\u9664\u672f
p261
sg12
g13
sa(dp262
g6
V\u9ad8\u9891\u7535\u5708\u5957\u6cd5\u606f\u8089\u5207\u9664\u672f\u662f\u5207\u9664>5 mm\u7684\u9686\u8d77\u578b\u75c5\u53d8\u7684\u5e38\u7528\u65b9\u6cd5\uff0c\u4f46\u5bf9\u4e8e>1 cm\u7684\u5e7f\u57fa\u75c5\u53d8\u6709\u4e00\u5b9a\u7684\u4e0d\u5b8c\u5168\u5207\u9664\u7387\uff0c\u5982\u6000\u7591\u4f34\u7ed2\u6bdb\u6210\u5206\u3001\u5e7f\u57fa\u952f\u9f7f\u72b6\u817a\u7624\u6216\u606f\u8089\u764c\u53d8\uff0c\u5e94\u8003\u8651EMR\u3002\u70ed\u6d3b\u68c0\u94b3\u94b3\u9664\u672f\u5b58\u5728\u75c5\u53d8\u6b8b\u7559\u7387\u9ad8\u3001\u5bf9\u6807\u672c\u7684\u7ec4\u7ec7\u7ed3\u6784\u6709\u7834\u574f\u3001\u5728\u53f3\u534a\u7ed3\u80a0\u4f7f\u7528\u65f6\u8fdf\u53d1\u6027\u51fa\u8840\u548c\u7a7f\u5b51L\u98ce\u9669\u9ad8\u7b49\u7f3a\u70b9\uff0c\u4e0d\u63a8\u8350\u4f5c\u4e3a\u4e00\u7ebf\u6cbb\u7597\u65b9\u6848\u3002\u51b7\u5708\u5957\u3001\u51b7\u6d3b\u68c0\u94b3\u6280\u672f\u4e5f\u53ef\u7528\u4e8e\u8f83\u5c0f\u606f\u8089\u7684\u5b89\u5168\u6458\u9664\uff0c\u4f46\u5c1a\u7f3a\u4e4f\u5728\u65e9\u671f\u7ed3\u76f4\u80a0\u764c\u4e2d\u5e94\u7528\u7684\u8bc1\u636e\uff0c\u4e00\u822c\u4e0d\u7528\u4f5c\u5207\u9664\u53ef\u7591\u6076\u6027\u7684\u75c5\u53d8
p263
sg8
Vlevel4
p264
sg10
V\u5e38\u89c4\u5185\u955c\u4e0b\u606f\u8089\u5207\u9664\u672f
p265
sg12
g13
sa(dp266
g6
VEMR\u6307\u5185\u955c\u4e0b\u5c06\u9ecf\u819c\u75c5\u7076\u6574\u5757\u6216\u5206\u5757\u5207\u9664\uff0c\u7528\u4e8e\u80c3\u80a0\u9053\u8868\u6d45\u80bf\u7624\u8bca\u65ad\u548c\u6cbb\u7597\u7684\u65b9\u6cd5
p267
sg8
Vlevel4
p268
sg10
VEMR
p269
sg12
g13
sa(dp270
g6
V\u5176\u4e2d\uff0c\u9ecf\u819c\u4e0b\u6ce8\u5c04\u4e00\u5207\u9664\u6280\u672f\u6700\u5e38\u89c1\uff0c\u800c\u900f\u660e\u5e3d\u6216\u5957\u624e\u6280\u672f\u4f7f\u7528\u8f83\u5c11\uff0c\u56e0\u5176\u5207\u9664\u75c5\u53d8\u5927\u5c0f\u6709\u9650\u5e76\u6709\u5168\u5c42\u5207\u9664\u7684\u98ce\u9669\uff0c\u5207\u9664\u7ed3\u80a0\u75c5\u53d8\u5c24\u5e94\u614e\u91cd
p271
sg8
Vlevel5
p272
sg10
V\u975e\u5438\u5f15\u6cd5(\u9ecf\u819c\u4e0b\u6ce8\u5c04\u4e00\u5207\u9664\u6cd5)
p273
sg12
g13
sa(dp274
g6
V\u5176\u4e2d\uff0c\u9ecf\u819c\u4e0b\u6ce8\u5c04\u4e00\u5207\u9664\u6280\u672f\u6700\u5e38\u89c1\uff0c\u800c\u900f\u660e\u5e3d\u6216\u5957\u624e\u6280\u672f\u4f7f\u7528\u8f83\u5c11\uff0c\u56e0\u5176\u5207\u9664\u75c5\u53d8\u5927\u5c0f\u6709\u9650\u5e76\u6709\u5168\u5c42\u5207\u9664\u7684\u98ce\u9669\uff0c\u5207\u9664\u7ed3\u80a0\u75c5\u53d8\u5c24\u5e94\u614e\u91cd
p275
sg8
Vlevel5
p276
sg10
V\u5438\u5f15\u6cd5(\u900f\u660e\u5e3d\u6cd5\u548c\u5957\u624e\u6cd5)
p277
sg12
g13
sa(dp278
g6
V\u5185\u955c\u4e0b\u5206\u7247\u9ecf\u819c\u5207\u9664\u672f(endoscopic piecemeal mucosal resection\uff0cEPMR)\u7528\u4e8e\u4f20\u7edfEMR\u4e0d\u80fd\u4e00\u6b21\u5b8c\u6574\u5207\u9664\u7684\u8f83\u5927\u75c5\u7076\uff0c\u5c06\u75c5\u7076\u5206\u51e0\u90e8\u5206\u591a\u6b21\u5207\u9664\uff0c\u9002\u7528\u4e8e>2 cm\u7684\u5de8\u5927\u5e73\u5766\u75c5\u53d8\u3002\u5206\u7247\u5207\u9664\u7684\u7ec4\u7ec7\u6807\u672c\u4f53\u5916\u62fc\u63a5\u56f0\u96be\uff0c\u5f71\u54cd\u7cbe\u786e\u7684\u75c5\u7406\u5b66\u8bc4\u4f30\uff0c\u5c40\u90e8\u6b8b\u7559\uff0f\u590d\u53d1\u98ce\u9669\u9ad8\uff0c\u5206\u7247\u8f83\u591a\u8005\u5e94\u5bc6\u5207\u968f\u8bbf\u3002\u64cd\u4f5c\u8be6\u89c1\u56fe5
p279
sg8
Vlevel5
p280
sg10
V\u5185\u955c\u4e0b\u5206\u7247\u9ecf\u819c\u5207\u9664\u672f
p281
sg12
g13
sa(dp282
g6
V\u56fd\u5916EMR\u6cbb\u7597\u65e9\u671f\u7ed3\u76f4\u80a0\u764c\u7684\u6574\u5757\u5207\u9664\u7387\u7ea6\u4e3a85\uff05\uff0c\u6cbb\u6108\u6027\u5207\u9664\u738768.6\uff05\uff5e86\uff05\uff0c\u800c\u5f53\u75c5\u53d8I>20 rain\u65f6\uff0c\u6574\u5757\u5207\u9664\u7387\u5219\u4ec5\u670919.9\uff05\uff5e30.7\uff05\uff0c\u56fd\u5185\u7f3a\u4e4f\u5927\u5b97\u75c5\u4f8b\u62a5\u9053\uff0cEMR\u6cbb\u7597\u65e9\u671f\u7ed3\u76f4\u80a0\u764c\u7684\u6574\u5757\u5207\u9664\u7387\u4e3a71.7\uff05\uff5e87.4\uff05\uff0c\u7d2f\u79ef\u5b8c\u6574\u5207\u9664\u7387\u4e3a70.6\uff05\uff5e91.7\uff05\uff0c\u56fd\u5185EMR\u6cbb\u7597\u5e73\u5766\u578b\u7ed3\u76f4\u80a0\u80bf\u7624\u7684\u6cbb\u6108\u6027\u5207\u9664\u7387\u8d85\u8fc790\uff05
p283
sg8
Vlevel5
p284
sg10
VEMR\u7597\u6548
p285
sg12
g13
sa(dp286
g6
VESD\u6cbb\u7597\u65e9\u671f\u7ed3\u76f4\u80a0\u764c\u7684\u6574\u5757\u5207\u9664\u7387\u548c\u5b8c\u5168\u5207\u9664\u7387\u66f4\u9ad8\uff0c\u5c40\u90e8\u590d\u53d1\u7387\u66f4\u4f4e\u3002ESD\u662f\u5728EMR\u57fa\u7840\u4e0a\u53d1\u5c55\u8d77\u6765\u7684\u65b0\u6280\u672f\uff0c\u5bf9\u4e0d\u540c\u90e8\u4f4d\u3001\u5927\u5c0f\u3001\u6d78\u6da6\u6df1\u5ea6\u7684\u75c5\u53d8\uff0c\u5728\u8fdb\u884c\u9ecf\u819c\u4e0b\u6ce8\u5c04\u540e\u4f7f\u7528\u7279\u6b8a\u7535\u5200\uff0c\u5982IT\u5200\u3001Dual\u5200\u3001Hook\u5200\u7b49\uff0c\u9010\u6e10\u5206\u79bb\u9ecf\u819c\u5c42\u4e0e\u56fa\u6709\u808c\u5c42\u4e4b\u95f4\u7684\u7ec4\u7ec7\uff0c\u5c06\u75c5\u53d8\u9ecf\u819c\u53ca\u9ecf\u819c\u4e0b\u5c42\u5b8c\u6574\u5265\u79bb\u7684\u65b9\u6cd5\u3002
p287
sg8
Vlevel4
p288
sg10
VESD
p289
sg12
g13
sa(dp290
g6
V\u2460\u9ecf\u819c\u4e0b\u6ce8\u5c04\uff0c\u4f7f\u75c5\u7076\u660e\u663e\u62ac\u4e3e\uff1b\u2461\u90e8\u5206\u6216\u73af\u5468\u5207\u5f00\u9ecf\u819c\uff1b\u2462\u9ecf\u819c\u4e0b\u5265\u79bb\uff0c\u4f7f\u9ecf\u819c\u4e0e\u56fa\u6709\u808c\u5c42\u5b8c\u5168\u5206\u79bb\u5f00\uff0c\u4e00\u6b21\u5b8c\u6574\u5207\u9664\u75c5\u7076\uff1b\u2463\u521b\u9762\u5904\u7406\uff1a\u5305\u62ec\u521b\u9762\u8840\u7ba1\u5904\u7406\u4e0e\u8fb9\u7f18\u68c0\u67e5\uff1b\u2464\u6807\u672c\u5904\u7406\u53ca\u9001\u68c0\u3002\u56e0\u9ecf\u819c\u4e0b\u6ce8\u5c04\u524d\u540e\u5927\u591a\u6570\u7ed3\u76f4\u80a0\u80bf\u7624\u8fb9\u7f18\u5747\u6e05\u6670\u53ef\u89c1\uff0c\u53ef\u7701\u7565\u6807\u8bb0\u6b65\u9aa4\u3002\u64cd\u4f5c\u8be6\u89c1\u56fe6
p291
sg8
Vlevel5
p292
sg10
V\u64cd\u4f5c\u6b65\u9aa4
p293
sg12
g13
sa(dp294
g6
V\u7ed3\u76f4\u80a0ESD\u76f8\u5bf9\u4e0a\u6d88\u5316\u9053ESD\u6709\u81ea\u8eab\u9c9c\u660e\u7684\u7279\u70b9\uff0c\u7ed3\u80a0\u80a0\u58c1\u83f2\u8584\u3001\u90e8\u5206\u80a0\u6bb5\u76f8\u5bf9\u6e38\u79bb\u3001\u80a0\u8154\u64cd\u4f5c\u7a7a\u95f4\u5c0f\u7b49\u89e3\u5256\u56e0\u7d20\u51b3\u5b9a\u5176\u64cd\u4f5c\u96be\u5ea6\u3002\u56f0\u96beESD\u5b9a\u4e49\u4e3a\u64cd\u4f5c\u65f6\u95f4\u957f(\u4e00\u822c\u8d85\u8fc7120\u6216150 min)\u3001\u51fa\u73b0\u7a7f\u5b54\u3001\u65e0\u6cd5\u6574\u5757\u5207\u9664\u7b49\u7684ESD\u64cd\u4f5c\u3002\u589e\u52a0ESD\u96be\u5ea6\u7684\u56e0\u7d20\u5305\u62ec\uff1a\u6e38\u79bb\u80a0\u6bb5\u3001\u75c5\u53d8\u7d2f\u53ca\u22652\u4e2a\u76b1\u895e\u3001\u5de8\u5927\u80bf\u7624(\u5982>14 cm\u6216>15 cm)\u3001\u6709\u7622\u75d5\u7684\u75c5\u53d8\u6216\u5c40\u90e8\u590d\u53d1\u7684\u75c5\u53d8 (\u4e25\u91cd\u7ea4\u7ef4\u5316)\u7b49
p295
sg8
Vlevel5
p296
sg10
V\u64cd\u4f5c\u6280\u672f\u96be\u5ea6
p297
sg12
g13
sa(dp298
g6
VESD\u6cbb\u7597\u65e9\u671f\u7ed3\u76f4\u80a0\u80bf\u7624\u7684\u6574\u5757\u5207\u9664\u7387\u5728\u4e9a\u6d32\u4e3a88.0\uff05\uff5e98.3\uff05\uff0c\u5b8c\u5168\u5207\u9664\u738789.0\uff05\uff5e92.0\uff05\uff0c\u800c\u6b27\u6d32\u4e2d\u5fc3\u6574\u5757\u5207\u9664\u7387\u4e3a67.1\uff05\uff5e78.6\uff05\uff0c\u5b8c\u5168\u5207\u9664\u7387\u4e3a62.4\uff05\uff5e74.0\uff05\u3002\u5728\u65e5\u672c\uff0c\u7ed3\u76f4\u80a0ESD\u76ee\u524d\u4e3b\u8981\u6cbb\u7597\u80bf\u7624\u6700\u5927\u5f84\u57282\u20155 cm\u4e4b\u95f4\u7684\u7ed3\u76f4\u80a0\u817a\u7624\u548c\u65e9\u671f\u7ed3\u76f4\u80a0\u764c\u75c5\u4f8b\u3002\u56fd\u5185\u7ed3\u76f4\u80a0ESD\u7684\u53d1\u5c55\u6781\u4e0d\u5747\u8861\uff0c\u53ea\u6709\u5c11\u6570\u5927\u4e2d\u5fc3\u80fd\u5e38\u89c4\u5f00\u5c55\uff0c\u6574\u5757\u5207\u9664\u7387\u4e3a85.5\uff05\uff5e98.3\uff05\uff0c\u6cbb\u6108\u6027\u5207\u9664\u7387\u4e3a83.3\uff05\uff5e97.6\uff05\u3002\u7814\u7a76\u62a5\u9053\uff0c\u7ed3\u76f4\u80a0ESD\u4e0e\u8179\u8154\u955c\u8f85\u52a9\u5916\u79d1\u624b\u672f\u7597\u6548\u76f8\u5f53\uff0c\u800c\u5e76\u53d1\u75c7\u98ce\u9669\u66f4\u5c0f\uff0c\u76f8\u5bf9\u4e8e\u5e38\u89c4\u5185\u955c\u5207\u9664\u548cEMR\uff0c\u5b8c\u6574\u5207\u9664\u7684\u4f18\u52bf\u975e\u5e38\u660e\u663e
p299
sg8
Vlevel5
p300
sg10
VESD\u7597\u6548
p301
sg12
g13
sa(dp302
g6
V\u5185\u955c\u4e0b\u5176\u4ed6\u6cbb\u7597\u65b9\u6cd5\u5305\u62ec\u6c29\u79bb\u5b50\u51dd\u56fa\u672f(argon plasma coagulation\uff0cAPC)\u3001\u5149\u52a8\u529b\u6cbb\u7597(photodynamic therapy\uff0cPDT)\u3001\u6fc0\u5149\u7597\u6cd5\u3001\u5fae\u6ce2\u6cbb\u7597\u7b49\uff0c\u5b83\u4eec\u53ea\u80fd\u53bb\u9664\u80bf\u7624\uff0c\u4e0d\u80fd\u660e\u786e\u75c5\u7406\u5b66\u8bca\u65ad\uff0c\u4e5f\u65e0\u6cd5\u80af\u5b9a\u80bf\u7624\u662f\u5426\u83b7\u5f97\u6839\u6cbb\uff0c\u56e0\u6b64\uff0c\u4e0d\u5efa\u8bae\u4f5c\u4e3a\u65e9\u671f\u7ed3\u76f4\u80a0\u764c\u7684\u9996\u9009\u6cbb\u7597\uff0c\u53ef\u4f5c\u4e3a\u65e0\u6cd5\u8010\u53d7\u624b\u672f\u6216\u5185\u955c\u5207\u9664\u60a3\u8005\u7684\u6cbb\u7597\u9009\u62e9\uff0c\u6cbb\u7597\u540e\u9700\u5bc6\u5207\u968f\u8bbf
p303
sg8
Vlevel4
p304
sg10
V\u5176\u4ed6\u5185\u955c\u6cbb\u7597\u65b9\u6cd5
p305
sg12
g13
sa(dp306
g6
V\u5185\u955c\u4e0b\u5207\u9664\u6cbb\u7597\u4e3b\u8981\u7528\u4e8e\u6dcb\u5df4\u7ed3\u8f6c\u79fb\u98ce\u9669\u4f4e\u4e14\u53ef\u80fd\u5b8c\u6574\u5207\u9664\u7684\u7ed3\u76f4\u80a0\u764c\u75c5\u53d8\u3002\u76ee\u524d\u56fd\u5185\u5c1a\u65e0\u7edf\u4e00\u89c4\u8303\u7684\u5185\u955c\u5207\u9664\u9002\u5e94\u8bc1\uff0c\u591a\u4ee5\u53c2\u8003\u65e5\u672c\u7ed3\u76f4\u80a0\u764c\u6307\u5357\u4e3a\u4e3b\u3002\u9ad8\u9891\u7535\u5708\u5957\u606f\u8089\u5207\u9664\u672f\u548cEMR\u5728\u6211\u56fd\u5df2\u5e7f\u6cdb\u5f00\u5c55\uff0c\u800c\u7ed3\u76f4\u80a0ESD\u5c1a\u4e0d\u5982\u65e5\u3001\u97e9\u4e24\u56fd\u666e\u53ca\uff0c\u4f46\u8f83\u6b27\u7f8e\u56fd\u5bb6\u5df2\u5177\u5907\u4e86\u8f83\u597d\u7684\u53d1\u5c55\u57fa\u7840\uff0c\u968f\u7740\u8d8a\u6765\u8d8a\u591a\u7684\u533b\u9662\u638c\u63e1\u4e0a\u6d88\u5316\u9053ESD\u6280\u672f\uff0c\u7ed3\u76f4\u80a0ESD\u4e5f\u5fc5\u5c06\u9010\u6b65\u53d1\u5c55\u548c\u666e\u53ca
p307
sg8
Vlevel3
p308
sg10
V\u9002\u5e94\u75c7
p309
sg12
g13
sa(dp310
g6
V5mm\u4ee5\u4e0a\u7684\u9686\u8d77\u578b\u75c5\u53d8(I\u578b)
p311
sg8
Vlevel4
p312
sg10
V\u9ad8\u9891\u7535\u5708\u5957\u6cd5\u606f\u8089\u5207\u9664\u672f
p313
sg12
g13
sa(dp314
g6
V(1)5\uff5e20 mm\u7684\u5e73\u5766\u75c5\u53d8\uff1b(2)>10 mm\u7684\u5e7f\u57fa\u75c5\u53d8(Is)\u6000\u7591\u4e3a\u7ed2\u6bdb\u72b6\u817a\u7624\u6216\u5e7f\u57fa\u952f\u9f7f\u72b6\u817a\u7624\uff0f\u606f\u8089(SSA\uff0fP)\uff1b(3)\u53ef\u7591\u9ad8\u7ea7\u522b\u4e0a\u76ae\u5185\u7624\u53d8\u6216\u9ecf\u819c\u4e0b\u8f7b\u5ea6\u6d78\u6da6\u764c\u7684\u75c5\u53d8\u226420 mm\uff0c\u9884\u8ba1EMR\u80fd\u5b8c\u6574\u5207\u9664
p315
sg8
Vlevel4
p316
sg10
V\u5185\u955c\u4e0b\u9ecf\u819c\u5207\u9664\u672f(EMR)
p317
sg12
g13
sa(dp318
g6
V (1)20\uff5e30 mm\u7684\u4fa7\u5411\u53d1\u80b2\u80bf\u7624(LST)-\u9897\u7c92\u578b\u53ef\u9009\u7528EPMR\uff0c\u5982\u4e3a\u7ed3\u8282\u6df7\u5408\u578b\u5e94\u9996\u5148\u5207\u9664\u6700\u5927\u7684\u7ed3\u8282(\u5982\u226510 mm)\u5e76\u6574\u5757\u9001\u68c0\uff1b(2)\u5c1a\u672a\u638c\u63e1ESD\u6280\u672f\u7684\u533b\u9662\uff0c>30 mm\u7684LST\u4e5f\u53ef\u9009\u7528EPMR\uff0c\u4f46\u5e94\u5173\u6ce8\u9ad8\u6b8b\u7559\u590d\u53d1\u98ce\u9669\u5e76\u5bc6\u5207\u968f\u8bbf
p319
sg8
Vlevel4
p320
sg10
V\u5185\u955c\u4e0b\u5206\u7247\u9ecf\u819c\u5207\u9664\u672f(EPMR)
p321
sg12
g13
sa(dp322
g6
V (1)\u7b26\u5408\u5185\u955c\u5207\u9664\u6807\u51c6\u4f46\u76f4\u5f84>20 mm EMR\u96be\u4ee5\u6574\u5757\u5207\u9664\u7684\u75c5\u53d8\u2460LST\u4e00\u975e\u9897\u7c92\u578b>20 mm\uff0c\u7279\u522b\u662f\u5047\u51f9\u9677\u578b\u2461LST\uff0e\u9897\u7c92\u578b>30 mm\u2462\u817a\u7ba1\u5f00\u53e3\u5206\u578b\u5448V\u3002\u7279\u5f81\u7684\u75c5\u53d8\u2463\u9ecf\u819c\u4e0b\u8f7b\u5ea6\u6d78\u6da6\u764c\u2464\u5927\u7684\u51f9\u9677\u578b\u80bf\u7624\u2465\u5927\u7684\u9686\u8d77\u578b\u75c5\u53d8\u6000\u7591\u764c\u53d8(2)\u4f34\u6709\u9ecf\u819c\u4e0b\u7ea4\u7ef4\u5316\u7684\u9ecf\u819c\u75c5\u53d8(3)\u6162\u6027\u708e\u75c7(\u5982\u6e83\u75a1\u6027\u7ed3\u80a0\u708e)\u4f34\u53d1\u7684\u5355\u53d1\u5c40\u90e8\u80bf\u7624(4)\u5185\u955c\u5207\u9664\u540e\u5c40\u90e8\u6b8b\u7559\u7684\u65e9\u671f\u764c
p323
sg8
Vlevel4
p324
sg10
V\u5185\u955c\u9ecf\u819c\u4e0b\u5265\u79bb\u672f(ESD)
p325
sg12
g13
sa(dp326
g6
V (1)\u672f\u524d\u5224\u65ad\u53d1\u751f\u9ecf\u819c\u4e0b\u6df1\u5ea6\u6d78\u6da6\u3001\u56fa\u6709\u808c\u5c42\u4fb5\u72af\u3001\u6dcb\u5df4\u7ed3\u8f6c\u79fb\u751a\u81f3\u8fdc\u5904\u8f6c\u79fb(2)\u7f8e\u56fd\u9ebb\u9189\u533b\u5e08\u534f\u4f1a(ASA)\u5206\u7ea7\u2162\u7ea7\u53ca\u4ee5\u4e0a\u7ecf\u8bc4\u4f30\u65e0\u6cd5\u8010\u53d7\u5185\u955c\u624b\u672f(3)\u65e0\u6cd5\u884c\u80a0\u9053\u51c6\u5907(\u5982\u80a0\u6897\u963b\u7b49)(4)\u6709\u5176\u4ed6\u80a0\u955c\u68c0\u67e5\u7981\u5fcc\u8bc1
p327
sg8
Vlevel3
p328
sg10
V\u7981\u5fcc\u75c7
p329
sg12
g13
sa(dp330
g6
V\u614e\u884c\u5185\u955c\u5207\u9664\u7684\u60c5\u51b5\uff0c\u5e94\u6743\u8861\u5229\u5f0a: (1)\u80a0\u8154\u73af\u5468\u75c5\u53d8\u3001\u7d2f\u53ca\u591a\u4e2a\u76b1\u895e\u7b49\u8bc4\u4f30\u6280\u672f\u96be\u5ea6\u5927\u3001\u7a7f\u5b54\u98ce\u9669\u9ad8\u7684\u75c5\u53d8(2)\u5bb6\u65cf\u6027\u5927\u80a0\u606f\u8089\u75c5\uff0c\u9057\u4f20\u6027\u975e\u606f\u8089\u75c5\u6027\u5927\u80a0\u764c(HNPCC)(3)\u540c\u65f6\u4f34\u53d1\u5927\u80a0\u53e6\u4e00\u90e8\u4f4d\u8fdb\u5c55\u671f\u764c\uff0c\u9884\u8ba1\u5916\u79d1\u624b\u672f\u53ef\u4e00\u6b21\u6027\u5207\u9664(4)\u4f34\u5176\u4ed6\u5668\u5b98\u6076\u6027\u80bf\u7624\uff0c\u9884\u671f\u5bff\u547d\u77ed(5)\u80bf\u7624\u4f4d\u7f6e\u4e0d\u5229\u4e8e\u5185\u955c\u6cbb\u7597\u8005
p331
sg8
Vlevel3
p332
sg10
V\u614e\u884c\u5185\u955c\u5207\u9664\u7684\u60c5\u51b5
p333
sg12
g13
sa(dp334
g6
V (1)\u4f34\u8840\u6db2\u75c5\u3001\u51dd\u8840\u529f\u80fd\u969c\u788d\u53ca\u670d\u7528\u6297\u51dd\u5242\u7684\u60a3\u8005\uff0c\u51dd\u8840\u529f\u80fd\u5c1a\u672a\u7ea0\u6b63(2)\u80a0\u9053\u6025\u6027\u708e\u75c7\u6d3b\u52a8\u671f\uff0c\u5982\u6d3b\u52a8\u6027\u6e83\u75a1\u6027\u7ed3\u80a0\u708e(3)\u9ad8\u70ed\u3001\u8870\u5f31\u3001\u4e25\u91cd\u8179\u75db\u3001\u4f4e\u8840\u538b\u8005(4)\u80a0\u9053\u51c6\u5907\u4e0d\u826f\u3001\u60a3\u8005\u4e0d\u914d\u5408
p335
sg8
Vlevel3
p336
sg10
V\u5e94\u62e9\u671f\u5185\u955c\u5207\u9664\u7684\u60c5\u51b5
p337
sg12
g13
sa(dp338
g6
V\u56f4\u624b\u672f\u671f\u5904\u7406
p339
sg8
Vlevel3
p340
sg10
V\u56f4\u624b\u672f\u671f\u5904\u7406
p341
sg12
g13
sa(dp342
g6
V\u8bc4\u4f30\u60a3\u8005\u5168\u8eab\u72b6\u51b5\uff0c\u6392\u9664\u9ebb\u9189\u53ca\u5185\u955c\u6cbb\u7597\u7981\u5fcc\u8bc1\u3002\u5411\u60a3\u8005\u53ca\u5bb6\u5c5e\u8be6\u7ec6\u8bb2\u8ff0\u5185\u955c\u5207\u9664\u6cbb\u7597\u7684\u76f8\u5173\u4e8b\u9879\uff0c\u7b7e\u7f72\u77e5\u60c5\u540c\u610f\u4e66\u3002\u6240\u6709\u60a3\u8005\u884c\u5fc3\u7535\u76d1\u62a4\uff0c\u7279\u6b8a\u60c5\u51b5\u53ef\u5e94\u7528\u4e19\u6cca\u915a\u9759\u8109\u9ebb\u9189\u3002\u60a3\u8005\u672f\u524d\u5fc5\u987b\u884c\u51dd\u8840\u529f\u80fd\u68c0\u67e5\uff0c\u5982\u5f02\u5e38\u5e94\u4e88\u4ee5\u7ea0\u6b63\u540e\u518d\u884c\u6cbb\u7597\u3002\u5bf9\u670d\u7528\u6297\u51dd\u836f\u60a3\u8005\uff0c\u914c\u60c5\u505c\u836f5\uff5e7 d\uff0c\u5fc5\u8981\u65f6\u8bf7\u76f8\u5173\u5b66\u79d1\u534f\u52a9\u5904\u7406\u3002\u672f\u524d\u5e94\u5145\u5206\u80a0\u9053\u51c6\u5907\u3002\u9884\u8ba1ESD\u64cd\u4f5c\u65f6\u95f4\u957f\u8005\uff0c\u5982\u6709\u6761\u4ef6\u672f\u4e2d\u53ef\u4f7f\u7528CO\uff1a\u6c14\u6cf5
p343
sg8
Vlevel4
p344
sg10
V\u672f\u524d\u51c6\u5907
p345
sg12
g13
sa(dp346
g6
V\u672f\u540e\u7b2c1\u5929\u7981\u98df\uff1b\u5bc6\u5207\u89c2\u5bdf\u8840\u538b\u3001\u8109\u640f\u3001\u547c\u5438\u7b49\u751f\u547d\u4f53\u5f81\u7684\u53d8\u5316\uff0c\u8fdb\u884c\u5fc5\u8981\u7684\u5b9e\u9a8c\u5ba4\u68c0\u67e5\uff0c\u5982\u4e34\u5e8a\u8868\u73b0\u53ca\u76f8\u5173\u68c0\u67e5\u65e0\u5f02\u5e38\uff0c\u672f\u540e\u7b2c2\u5929\u8fdb\u98df\u6d41\u8d28\u6216\u8f6f\u98df
p347
sg8
Vlevel4
p348
sg10
V\u672f\u540e\u5904\u7406
p349
sg12
g13
sa(dp350
g6
V\u5bf9\u4e8e\u672f\u524d\u8bc4\u4f30\u5207\u9664\u8303\u56f4\u5927\u3001\u64cd\u4f5c\u65f6\u95f4\u957f\u3001\u80a0\u9053\u51c6\u5907\u5dee\u3001\u7a7f\u5b54\u98ce\u9669\u9ad8\u8005\uff0c\u53ef\u4ee5\u8003\u8651\u9884\u9632\u6027\u4f7f\u7528\u6297\u751f\u7d20\u3002\u53c2\u8003\u536b\u751f\u90e8\u6297\u83cc\u7d20\u4f7f\u7528\u539f\u5219\uff0c\u5e94\u9009\u7528\u7b2c\u4e8c\u4ee3\u6216\u4e09\u4ee3\u5934\u5b62\u83cc\u7d20\uff0c\u53ef\u52a0\u7528\u785d\u57fa\u54aa\u5511\u7c7b\u836f\u7269\u3002\u672f\u540e\u7528\u836f\u603b\u65f6\u95f4\u4e00\u822c\u4e0d\u8d85\u8fc772 h\uff0c\u4f46\u53ef\u914c\u60c5\u5ef6\u957f\u3002\u8bc4\u4f30\u8ba4\u4e3a\u51fa\u8840\u98ce\u9669\u8f83\u5927\u8005\uff0c\u53ef\u914c\u60c5\u4f7f\u7528\u6b62\u8840\u836f\u7269
p351
sg8
Vlevel5
p352
sg10
V\u672f\u540e\u7528\u836f
p353
sg12
g13
sa(dp354
g6
V\u672f\u540e\u5bf9\u6574\u5757\u5207\u9664\u7684\u6807\u672c\u8fdb\u884c\u51b2\u6d17\u548c\u5c55\u5e73\uff0c\u9ecf\u819c\u9762\u671d\u4e0a\u56fa\u5b9a\u4e8e\u5e73\u677f\u4e0a\uff0c\u89c2\u5bdf\u3001\u6d4b\u91cf\u5e76\u8bb0\u5f55\u65b0\u9c9c\u6807\u672c\u7684\u5927\u5c0f\u3001\u5f62\u72b6\u3001\u9ecf\u819c\u75c5\u53d8\u7684\u8089\u773c\u6240\u89c1(\u5927\u5c0f\u3001\u5f62\u72b6\u3001\u989c\u8272\u3001\u786c\u5ea6\u7b49)\uff0c\u533a\u5206\u53e3\u4fa7\u65ad\u7aef\u548c\u809b\u4fa7\u65ad\u7aef\uff0c\u62cd\u7167\u540e\u5c06\u6807\u672c\u9ecf\u819c\u9762\u671d\u4e0b\u5168\u90e8\u6d78\u6ca1\u4e8e\u56fa\u5b9a\u6db2\u4e2d\u5e76\u9001\u68c0\u3002\u75c5\u7406\u7533\u8bf7\u5355\u4e2d\u5e94\u5411\u75c5\u7406\u533b\u5e08\u63d0\u4f9b\u8be6\u7ec6\u7684\u4e34\u5e8a\u75c5\u53f2\u3001\u63a8\u6d4b\u7684\u6d78\u6da6\u6df1\u5ea6\u3001\u4e34\u5e8a\u8bca\u65ad\u53ca\u5173\u6ce8\u70b9\u3002\u75c5\u7406\u5b66\u53d6\u6750\u3001\u5236\u7247\u67d3\u8272\u53ca\u89c4\u8303\u5316\u7684\u75c5\u7406\u5b66\u62a5\u544a\u53c2\u89c1\u300a\u4e2d\u56fd\u6d88\u5316\u5185\u955c\u6d3b\u7ec4\u7ec7\u68c0\u67e5\u4e0e\u75c5\u7406\u5b66\u68c0\u67e5\u89c4\u8303\u4e13\u5bb6\u5171\u8bc6(\u8349\u6848)\u300b
p355
sg8
Vlevel5
p356
sg10
V\u672f\u540e\u6807\u672c\u5904\u7406
p357
sg12
g13
sa(dp358
g6
V\u5f53\u5782\u76f4\u5207\u7f18\u9633\u6027\u65f6\uff0c\u9700\u8ffd\u52a0\u5916\u79d1\u624b\u672f\uff1b\u5982\u5b58\u5728\u4ee5\u4e0b\u5f81\u8c61\uff0c\u5efa\u8bae\u884c\u80a0\u5207\u9664+\u6dcb\u5df4\u7ed3\u6e05\u626b\u672f\uff1a\u9ecf\u819c\u4e0b\u6d78\u6da6\u6df1\u5ea6\u22651 000 \u03bcm\uff0c\u6dcb\u5df4\u7ba1\u8840\u7ba1\u6d78\u6da6\u9633\u6027\uff1b\u4f4e\u5206\u5316\u817a\u764c\uff0c\u5370\u6212\u7ec6\u80de\u764c\u6216\u9ecf\u6db2\u764c\uff0c\u6d78\u6da6\u6700\u6df1\u90e8\u4f4d\u6709\u9ad8\u7ea7\u522b\u80bf\u7624\u82bd(2\u62163\u7ea7)\uff0c\u5e26\u8482\u606f\u8089\u5982\u6709\u8482\u6d78\u6da6\u3002\u65e5\u672c2\u9879\u5927\u89c4\u6a21\u591a\u4e2d\u5fc3\u7814\u7a76\u5bf9\u884c\u5185\u955c\u5207\u9664\u7684\u9ecf\u819c\u4e0b\u6d78\u6da6\u5927\u80a0\u764c\u60a3\u8005\u8fdb\u884c\u957f\u671f\u968f\u8bbf\uff0c\u53d1\u73b0\u5782\u76f4\u5207\u7f18\u9634\u6027\u3001\u4e2d\u6216\u9ad8\u5206\u5316\u817a\u764c\u3001\u65e0\u6dcb\u5df4\u8840\u7ba1\u4fb5\u72af\u53ca\u9ecf\u819c\u4e0b\u6d78\u6da6\u6df1\u5ea6<l 000\u03bcm\u7684\u60a3\u8005(\u4f4e\u5371\u7ec4)\u5728\u5185\u955c\u5207\u9664\u672f\u540e\u8ffd\u52a0\u4e0e\u4e0d\u8ffd\u52a0\u5916\u79d1\u624b\u672f\u8005\u8fdc\u671f\u9884\u540e\u76f8\u5f53\uff0c\u800c\u9ad8\u5371\u7ec4\u7279\u522b\u662f\u9ad8\u5371\u76f4\u80a0\u764c\u60a3\u8005\u63a8\u8350\u8ffd\u52a0\u5916\u79d1\u624b\u672f(\u56fe7)
p359
sg8
Vlevel5
p360
sg10
V\u672f\u540e\u8ffd\u52a0\u5916\u79d1\u624b\u672f\u7684\u6307\u5f81
p361
sg12
g13
sa(dp362
g6
V\u65e9\u671f\u7ed3\u76f4\u80a0\u764c\u53ca\u764c\u524d\u75c5\u53d8\u5185\u955c\u4e0b\u5207\u9664\u867d\u7136\u5c5e\u4e8e\u5fae\u521b\u624b\u672f\uff0c\u4f46\u4ecd\u5b58\u5728\u4e00\u5b9a\u7684\u5e76\u53d1\u75c7\u53d1\u751f\u7387\uff0c\u4ee5ESD\u66f4\u4e3a\u5e38\u89c1\uff1b\u4e3b\u8981\u5305\u62ec\u51fa\u8840\u3001\u7a7f\u5b54\u3001\u7535\u51dd\u7efc\u5408\u5f81\u7b49(\u88685)
p363
sg8
Vlevel3
p364
sg10
V\u64cd\u4f5c\u76f8\u5173\u5e76\u53d1\u75c7\u53ca\u5904\u7406
p365
sg12
g13
sa(dp366
g6
V\u672f\u4e2d\u51fa\u8840\u6307\u672f\u4e2d\u9700\u8981\u6b62\u8840\u6cbb\u7597(\u5982\u7535\u51dd\u6216\u6b62\u8840\u5939\u6b62\u8840)\u7684\u5c40\u90e8\u521b\u9762\u51fa\u8840\uff1b\u672f\u540e\u51fa\u8840\u6307\u672f\u540e2\u5468\u5185\u9700\u6025\u8bca\u7559\u89c2\u3001\u4f4f\u9662\u6216\u5e72\u9884\u5904\u7406(\u518d\u6b21\u80a0\u955c\u3001\u8840\u7ba1\u9020\u5f71\u6813\u585e\u6216\u5916\u79d1\u624b\u672f)\u7684\u51fa\u8840\uff0c\u591a\u53d1\u751f\u5728\u672f\u540e48 h\u5185
p367
sg8
Vlevel4
p368
sg10
V\u51fa\u8840
p369
sg12
g13
sa(dp370
g6
V\u56fd\u5916\u6587\u732e\u62a5\u9053\uff0cEMR\u672f\u4e2d\u51fa\u8840\u7387\u4e3a1.8\uff05\uff5e18\uff05\uff0c\u672f\u540e\u51fa\u8840\u7387\u4e3a0.2\uff05\uff5e7.2\uff05\uff0cESD\u672f\u540e\u51fa\u8840\u7387\u4e3a0\uff5e3.6\uff05\u3002\u7814\u7a76\u53d1\u73b0EMR\u672f\u4e2d\u51fa\u8840\u4e0e\u75c5\u53d8\u8f83\u5927\u30010-IIa+Is\u578b\u75c5\u53d8\u3001\u75c5\u53d8\u542b\u7ed2\u6bdb\u6210\u5206\u53ca\u64cd\u4f5c\u8005\u7ecf\u9a8c\u4e0d\u8db3\u6709\u5173\uff1b\u75c5\u53d8\u4f4d\u4e8e\u53f3\u534a\u7ed3\u80a0\u3001\u8fd1\u671f\u670d\u7528\u963f\u53f8\u5339\u6797\u3001\u4f7f\u7528\u65e0\u5fae\u5904\u7406\u5668\u63a7\u5236\u7684\u7535\u5207\u6a21\u5f0f\u548c\u51fa\u73b0\u672f\u4e2d\u51fa\u8840\u8005\u4e5f\u5bb9\u6613\u53d1\u751f\u672f\u540e\u51fa\u8840\u3002\u76f4\u80a0\u75c5\u53d8\u662fESD\u8fdf\u53d1\u51fa\u8840\u7684\u72ec\u7acb\u5371\u9669\u56e0\u7d20\u3002\u56fd\u5185EMR\u672f\u4e2d\u51fa\u8840\u7387\u4e3a1.0\uff05\uff5e3.1\uff05\uff0c\u672f\u540e\u51fa\u8840\u7387\u4e3a0.6\uff05\uff5e3.0\uff05\uff0cESD\u7684\u672f\u4e2d\u51fa\u8840\u7387\u4e3a\uff0c\u672f\u540e\u51fa\u8840\u7387\u4e3a1.4\uff05\uff5e12.5\uff05\u3002\u91d1\u9ed1\u9e70\u7b49\u62a5\u9053\u75c5\u53d8>20 mm\u662fEMR\u672f\u540e\u53d1\u751f\u5e76\u53d1\u75c7\u7684\u72ec\u7acb\u5371\u9669\u56e0\u7d20\u3002\u5f20\u8f76\u7fa4\u7b49\u62a5\u9053659\u4f8b\u4e0b\u6d88\u5316\u9053ESD\uff0c\u53d1\u751f\u8fdf\u53d1\u6027\u51fa\u884010\u4f8b\uff0c\u591a\u4f4d\u4e8e\u4f4e\u4f4d\u76f4\u80a0
p371
sg8
Vlevel5
p372
sg10
V\u51fa\u8840\u53d1\u751f\u7387
p373
sg12
g13
sa(dp374
g6
V\u672f\u4e2d\u51fa\u8840\u591a\u4e3a\u81ea\u9650\u6027\uff0c\u5c11\u91cf\u6e17\u8840\u53ef\u7535\u51dd\u5904\u7406\uff0c\u55b7\u5c04\u6027\u51fa\u8840\u53ef\u4f7f\u7528\u91d1\u5c5e\u5939\u6b62\u8840\uff0c\u800cESD\u672f\u4e2d\u51fa\u8840\u5219\u56e0\u5f71\u54cd\u540e\u7eed\u9ecf\u819c\u4e0b\u5265\u79bb\u800c\u8f83\u5c11\u4f7f\u7528\u6b62\u8840\u5939\u3002ESD\u672f\u4e2d\u5728\u9ecf\u819c\u4e0b\u53d1\u73b0\u8f83\u5c0f\u8840\u7ba1\uff0c\u53ef\u7528\u7535\u5200\u6216APC\u76f4\u63a5\u7535\u51dd\u3002\u65e2\u5f80\u7814\u7a76\u8ba4\u4e3a\u5e94\u5728\u5185\u955c\u5207\u9664\u672f\u540e\u5e38\u89c4\u4f7f\u7528APC\u6216\u6d3b\u68c0\u94b3\u5bf9\u521b\u9762\u53ef\u89c1\u8840\u7ba1\u8fdb\u884c\u5904\u7406\uff0c\u4f46\u6700\u65b0RCT\u7814\u7a76\u53d1\u73b0\u5bf9\u521b\u9762\u53ef\u89c1\u8840\u7ba1\u9884\u51dd\u5e76\u4e0d\u80fd\u663e\u8457\u964d\u4f4e\u8f83\u5927\u75c5\u53d8\u5185\u955c\u5207\u9664\u672f\u540e\u8fdf\u53d1\u51fa\u8840\u98ce\u9669\u3002\u5927\u591a\u6570\u672f\u540e\u51fa\u8840\u4e5f\u662f\u81ea\u9650\u6027\u7684\uff0c\u82e5\u60a3\u8005\u5faa\u73af\u60c5\u51b5\u7a33\u5b9a\uff0c\u65e0\u9700\u5185\u955c\u6b62\u8840\uff1b\u800c\u652f\u6301\u6cbb\u7597\u540e\u60a3\u8005\u5faa\u73af\u60c5\u51b5\u4ecd\u4e0d\u7a33\u5b9a\uff0c\u5219\u9700\u6025\u8bca\u7ed3\u80a0\u955c\u4e0b\u8fdb\u884c\u786e\u5207\u6b62\u8840\uff0c\u6b64\u65f6\u4e0d\u63a8\u8350\u5bf9\u521b\u9762\u51fa\u8840\u70b9\u884c\u70ed\u51dd\u6b62\u8840\uff0c\u53ef\u589e\u52a0\u900f\u58c1\u635f\u4f24\u548c\u7a7f\u5b54\u98ce\u9669
p375
sg8
Vlevel5
p376
sg10
V\u6b62\u8840\u539f\u5219\u53ca\u5904\u7406\u65b9\u6cd5
p377
sg12
g13
sa(dp378
g6
V\u672f\u4e2d\u7a7f\u5b54\u591a\u80fd\u5373\u523b\u53d1\u73b0\uff0c\u800c\u64cd\u4f5c\u7ed3\u675f\u540e\u8179\u90e8\u5e73\u7247\u53d1\u73b0\u8188\u4e0b\u6e38\u79bb\u6c14\u4f53\u3001CT\u53d1\u73b0\u8179\u8154\u6e38\u79bb\u6c14\u4f53\u6216\u67e5\u4f53\u89c1\u660e\u663e\u5e7f\u6cdb\u8179\u819c\u523a\u6fc0\u5f81\u7b49\uff0c\u5e94\u8003\u8651\u4e3a\u672f\u540e\u7a7f\u5b54
p379
sg8
Vlevel4
p380
sg10
V\u7a7f\u5b54
p381
sg12
g13
sa(dp382
g6
V\u56fd\u5916\u6587\u732e\u62a5\u9053EMR\u7a7f\u5b54\u7387<1.5\uff05\uff0cESD\u7a7f\u5b54\u7387\u4e3a0.8\uff05\uff5e20.4\uff05\uff0c\u56fd\u5185\u6587\u732e\u62a5\u9053ESD\u7a7f\u5b54\u7387\u4e3a2.9\uff05\uff5e14.5\uff05\u3002\u590d\u6742EMR\u548cESD\u662f\u7a7f\u5b54\u7684\u9ad8\u5371\u56e0\u7d20\uff0c\u5176\u4ed6\u8fd8\u5305\u62ec\u4f7f\u7528\u70ed\u6d3b\u68c0\u94b3\u3001\u64cd\u4f5c\u533b\u5e08\u7ecf\u9a8c\u4e0d\u8db3\u7b49\u3002LST\u75c5\u53d8\u3001\u80bf\u7624\u8f83\u5927\u548c\u75c5\u53d8\u7ea4\u7ef4\u5316\u662fESD\u7a7f\u5b54\u7684\u5371\u9669\u56e0\u7d20\uff0c\u800c\u9ecf\u819c\u4e0b\u6ce8\u5c04\u900f\u660e\u8d28\u9178\u5219\u4e3a\u4fdd\u62a4\u56e0\u7d20\u3002\u64cd\u4f5c\u8fc7\u7a0b\u4e2d\u6ce8\u610f\u62bd\u5438\u80a0\u9053\u5185\u7684\u6c14\u4f53\uff0c\u53ef\u80fd\u6709\u5229\u4e8e\u9884\u9632\u7a7f\u5b54\u53d1\u751f
p383
sg8
Vlevel5
p384
sg10
V\u7a7f\u5b54\u53d1\u751f\u7387\u53ca\u5371\u9669\u56e0\u7d20
p385
sg12
g13
sa(dp386
g6
V\u7a7f\u5b54\u65e9\u671f\u53d1\u73b0\u540e\u5982\u80a0\u9053\u51c6\u5907\u826f\u597d\u3001\u65e0\u80a0\u5185\u5bb9\u7269\u6f0f\u4eba\u8179\u8154\u5e94\u7acb\u5373\u5185\u955c\u4e0b\u5939\u95ed\uff0c\u5982\u521b\u9762\u53ef\u6709\u6548\u5939\u95ed\u4e14\u65e0\u5f25\u6f2b\u6027\u8179\u819c\u708e\u8005\uff0c\u53ef\u671b\u4fdd\u5b88\u6cbb\u7597\u6210\u529f\u3002\u65e9\u671f\u5185\u955c\u4fee\u590d\u548c\u4f7f\u7528CO\uff0c\u6c14\u4f53\u53ef\u51cf\u5c11\u5916\u79d1\u624b\u672f\u7387\u3002\u5185\u955c\u4e0b\u4f7f\u7528\u91d1\u5c5e\u5939\u65e9\u671f\u5939\u95ed10 mm\u4ee5\u5185\u7684\u7a7f\u5b54\u6210\u529f\u7387\u8d85\u8fc790\uff05\uff0c\u56fd\u5916\u7814\u7a76\u8bc1\u5b9eOTSC(over-the-scope clip)\u7cfb\u7edf\u53ef\u5b89\u5168\u6709\u6548\u5904\u7406\u66f4\u5927\u7684\u7a7f\u5b54\uff0c\u4f46\u9700\u8fdb\u4e00\u6b65\u4e34\u5e8a\u8bc4\u4f30\u3002\u4e34\u5e8a\u6000\u7591\u7a7f\u5b54\u8005\u5728\u5f71\u50cf\u5b66\u786e\u8bc1\u524d\u5373\u53ef\u7acb\u5373\u5f00\u59cb\u7ecf\u9a8c\u6027\u6cbb\u7597\uff0c\u6000\u7591\u548c\u786e\u8bca\u7a7f\u5b54\u7684\u60a3\u8005\u987b\u5bc6\u5207\u76d1\u62a4\u751f\u547d\u4f53\u5f81\uff0c\u8865\u6db2\u3001\u9759\u8109\u5e94\u7528\u5e7f\u8c31\u6297\u751f\u7d20\u3002\u5916\u79d1\u624b\u672f\u7684\u9002\u5e94\u8bc1\u662f\u5185\u955c\u4fee\u8865\u56f0\u96be\u6216\u5931\u8d25\uff0c\u6301\u7eed\u80a0\u5185\u5bb9\u7269\u6f0f\u51fa\u6240\u81f4\u8179\u819c\u708e\uff0c\u4e00\u822c\u7a7f\u5b54\u8d85\u8fc74 h\u800c\u672a\u884c\u5185\u955c\u4e0b\u5939\u95ed\u5904\u7406\u7684\u60a3\u8005\u5efa\u8bae\u5916\u79d1\u624b\u672f\u6cbb\u7597
p387
sg8
Vlevel5
p388
sg10
V\u7a7f\u5b54\u6cbb\u7597\u539f\u5219\u53ca\u5904\u7406\u65b9\u6cd5
p389
sg12
g13
sa(dp390
g6
V\u53c8\u79f0\u606f\u8089\u5207\u9664\u672f\u540e\u7efc\u5408\u5f81\u6216\u900f\u58c1\u7efc\u5408\u5f81\uff0c\u8868\u73b0\u4e3a\u7ed3\u80a0\u955c\u75c5\u53d8\u9ad8\u9891\u7535\u5207\u9664\u540e\u51fa\u73b0\u7684\u5c40\u9650\u6027\u8179\u75db\u3001\u53d1\u70ed\u3001\u767d\u7ec6\u80de\u5347\u9ad8\u3001\u8179\u819c\u708e\u800c\u65e0\u660e\u663e\u7a7f\u5b54\u5f81\u8c61\uff0c\u53d1\u751f\u7387\u4e3a0.003\uff05\uff5e0.1\uff05\u3002\u9ad8\u8840\u538b\u3001\u75c5\u53d8\u8f83\u5927\u3001\u5f62\u6001\u5e73\u5766\u662f\u7535\u51dd\u7efc\u5408\u5f81\u7684\u72ec\u7acb\u5371\u9669\u56e0\u7d20\u3002\u76f4\u80a0\u53ca\u4e59\u72b6\u7ed3\u80a0\u75c5\u53d8ESD\u672f\u540e\u7535\u51dd\u7efc\u5408\u5f81\u53d1\u751f\u98ce\u9669\u8f83\u4f4e\uff0c\u800c\u4f4d\u4e8e\u5176\u4ed6\u80a0\u6bb5\u53ca\u76f4\u5f84>30mm\u7684\u75c5\u53d8\u672f\u540e\u9700\u5bc6\u5207\u89c2\u5bdf\u3002\u5bf9\u4e8e\u7535\u51dd\u7efc\u5408\u5f81\u7684\u60a3\u8005\u4e00\u822c\u91c7\u53d6\u9759\u8109\u8865\u6db2\uff0c\u4f7f\u7528\u5e7f\u8c31\u6297\u751f\u7d20\uff0c\u7981\u98df\u76f4\u81f3\u75c7\u72b6\u6d88\u5931\uff0c\u901a\u5e38\u80fd\u83b7\u5f97\u826f\u597d\u9884\u540e
p391
sg8
Vlevel4
p392
sg10
V\u7535\u51dd\u7efc\u5408\u5f81
p393
sg12
g13
sa(dp394
g6
V\u56fd\u5916\u6587\u732e\u62a5\u9053\uff0c\u5e38\u89c4EMR\u5c40\u90e8\u590d\u53d1\u7387\u4e3a0.8\uff05\uff5e7.2\uff05\uff0cEMR\u6216EPMR\u5207\u9664\u8f83\u5927\u7ed3\u76f4\u80a0\u75c5\u53d8\u540e\u5c40\u90e8\u590d\u53d1\u7387\u8f83\u9ad8\uff0c\u56f0\u96be\u75c5\u4f8b\u7684\u5c40\u90e8\u6b8b\u7559\uff0f\u590d\u53d1\u7387\u751a\u81f3\u9ad8\u8fbe20.4\uff05\uff5e27\uff05\uff0c\u835f\u8403\u5206\u6790\u53d1\u73b0EMR\u5207\u9664\u7ed3\u76f4\u80a0\u65e0\u8482\u75c5\u53d8\u7684\u4e2d\u4f4d\u5c40\u90e8\u590d\u53d1\u7387\u8fbe15\uff05\uff0c\u5206\u7247\u5207\u9664\u590d\u53d1\u7387\u9ad8\u8fbe20\uff05\uff0c\u800c\u6574\u5757\u5207\u9664\u540e\u590d\u53d1\u7387\u4ec53\uff05\uff0c\u5206\u7247\u5207\u9664\u662f\u590d\u53d1\u7684\u552f\u4e00\u72ec\u7acb\u5371\u9669\u56e0\u7d20\u3002\u7ed3\u76f4\u80a0ESD\u7684\u5c40\u90e8\u590d\u53d1\u7387\u4ec5\u4e3a0\uff5e2.0\uff05\uff0c\u4e0eEMR\u76f8\u6bd4\uff0cESD\u5c40\u90e8\u590d\u53d1\u7684\u4f3d\u503c\u4e3a0.09\u3002\u56fd\u5185\u6587\u732e\u62a5\u9053EMR\u590d\u53d1\u7387\u4e3a0\uff5e3.2\uff05\uff0cESD\u7684\u5c40\u90e8\u590d\u53d1\u7387\u4e3a0\uff5e4.9\uff05
p395
sg8
Vlevel3
p396
sg10
V\u672f\u540e\u590d\u53d1\u7387
p397
sg12
g13
sa(dp398
g6
V\u5207\u9664\u75c5\u53d8\u540e\u5e94\u4ed4\u7ec6\u68c0\u67e5\u521b\u9762\uff0c\u6709\u6761\u4ef6\u5efa\u8bae\u4f7f\u7528\u67d3\u8272\u6216NBI\u89c2\u5bdf\uff0c\u53d1\u73b0\u53ef\u89c1\u6b8b\u7559\u65f6\u6709\u6761\u4ef6\u5c3d\u91cf\u4f7f\u7528\u5708\u5957\u5668\u5207\u9664\uff0c\u7814\u7a76\u63d0\u793a\u4f7f\u7528APC\u51dd\u9664\u590d\u53d1\u98ce\u9669\u9ad8\uff0c\u53ef\u63a7\u6027\u5dee
p399
sg8
Vlevel3
p400
sg10
V\u590d\u53d1\u7684\u9884\u9632\u548c\u5904\u7406
p401
sg12
g13
sa(dp402
g6
V\u56fd\u5185\u8f83\u4e3a\u516c\u8ba4\u7684\u662f\u6cbb\u6108\u6027\u5207\u9664\u540e6\u548c12\u4e2a\u6708\u5404\u590d\u67e51\u6b21\u7ed3\u80a0\u955c\uff0c\u6b64\u540e\u6bcf\u5e74\u590d\u67e51\u6b21\u7ed3\u80a0\u955c\uff0c\u5e76\u884c\u80bf\u7624\u6807\u5fd7\u7269\u548c\u76f8\u5173\u5f71\u50cf\u5b66\u68c0\u67e5\u3002\u4e00\u822c\u8ba4\u4e3a\u5206\u7247\u5207\u9664\u7684\u75c5\u4f8b\uff0c\u6309\u8bc4\u4f30\u590d\u53d1\u98ce\u9669\u4e0d\u540c\u57283\uff5e6\u4e2a\u6708\u5185\u884c\u9996\u6b21\u590d\u67e5\u4e3a\u5b9c
p403
sg8
Vlevel3
p404
sg10
V\u968f\u8bbf
p405
sg12
g13
sa(dp406
g6
V\u7ed3\u76f4\u80a0\u764c\u7684\u5177\u4f53\u75c5\u56e0\u5c1a\u4e0d\u660e\u786e\uff0c\u4f46\u5bf9\u5176\u53d1\u75c5\u7684\u5371\u9669\u56e0\u7d20\u5df2\u6709\u8f83\u591a\u7814\u7a76\u3002\u76ee\u524d\u8ba4\u4e3a\u7ed3\u76f4\u80a0\u764c\u662f\u7531\u73af\u5883\u3001\u996e\u98df\u3001\u751f\u6d3b\u65b9\u5f0f\u4e0e\u57fa\u56e0\u7b49\u82e5\u5e72\u56e0\u7d20\u534f\u540c\u4f5c\u7528\u7684\u7ed3\u679c
p407
sg8
Vlevel1
p408
sg10
V\u7ed3\u76f4\u80a0\u764c\u7684\u5371\u9669\u56e0\u7d20
p409
sg12
g13
sa(dp410
g6
V\u5e74\u9f84\u662f\u7ed3\u76f4\u80a0\u764c\u660e\u786e\u7684\u5371\u9669\u56e0\u7d20\uff0c\u7ed3\u76f4\u80a0\u764c\u53d1\u75c5\u7387\u968f\u5e74\u9f84\u589e\u957f\u800c\u589e\u52a0\u3002\u6211\u56fd\u7ed3\u76f4\u80a0\u764c\u7684\u53d1\u75c5\u7387\u548c\u6b7b\u4ea1\u7387\u4ece40\u5c81\u5f00\u59cb\u5448\u73b0\u5feb\u901f\u589e\u957f\u7684\u8d8b\u52bf\uff0c\u53d1\u75c5\u7387\u572880\u5c81\u4ee5\u4e0a\u5e74\u9f84\u7ec4\u8fbe\u5230\u9ad8\u5cf0(197.4\uff0f10\u4e07\u4eba)\u3002\u7537\u6027\u7ed3\u76f4\u80a0\u764c\u60a3\u75c5\u98ce\u9669\u9ad8\u4e8e\u5973\u6027
p411
sg8
Vlevel2
p412
sg10
V\u4eba\u53e3\u5b66\u56e0\u7d20
p413
sg12
g13
sa(dp414
g6
V\u7ed3\u76f4\u80a0\u764c\u662f\u4e00\u79cd\u6709\u660e\u663e\u9057\u4f20\u503e\u5411\u7684\u6076\u6027\u80bf\u7624\u3002\u835f\u8403\u5206\u6790\u663e\u793a\uff0c\u67091\u540d\u4ee5\u4e0a\u4e00\u7ea7\u4eb2\u5c5e\u60a3\u6709\u7ed3\u76f4\u80a0\u764c\u65f6\uff0c\u8be5\u4e2a\u4f53\u60a3\u7ed3\u76f4\u80a0\u764c\u7684\u603b\u4f53\u98ce\u9669\u6bd4\u4e3a2.24\uff0c\u5f53\u5bb6\u65cf\u4e2d\u67092\u540d\u4ee5\u4e0a\u4eb2\u5c5e\u60a3\u6709\u7ed3\u76f4\u80a0\u764c\u65f6\uff0c\u603b\u4f53\u98ce\u9669\u6bd4\u5c06\u589e\u81f33.97\uff1b50\u5c81\u6210\u5e74\u4eba\u5982\u67091\u540d\u4ee5\u4e0a\u4e00\u7ea7\u4eb2\u5c5e\u60a3\u7ed3\u76f4\u80a0\u764c\uff0c\u5176\u60a3\u7ed3\u76f4\u80a0\u764c\u7684\u98ce\u9669\u75311.8\uff05\u5347\u81f33.4\uff05\uff0c\u5982\u67092\u540d\u4ee5\u4e0a\u4e00\u7ea7\u4eb2\u5c5e\u60a3\u7ed3\u76f4\u80a0\u764c\uff0c\u8be5\u98ce\u9669\u5347\u81f36.9\uff05\u3002\u4e2d\u56fd\u53f0\u6e7e\u5730\u533a\u7684\u4e00\u9879\u7814\u7a76\u53d1\u73b0\uff0c\u7ed3\u76f4\u80a0\u764c\u60a3\u8005\u7684\u76f4\u7cfb\u4eb2\u5c5e\u60a3\u7ed3\u76f4\u80a0\u817a\u7624\u98ce\u9669\u4e3a\u5bf9\u7167\u7ec4\u76842.33\u500d\uff0c\u9ad8\u5371\u817a\u7624\u7684\u98ce\u9669\u4e3a\u5bf9\u7167\u7ec4\u76844.5\u500d\uff0c\u4e14\u53d1\u751f\u817a\u7624\u5e74\u9f84\u63d0\u524d\uff0c\u56e0\u6b64\u5efa\u8bae\u7ed3\u76f4\u80a0\u764c\u60a3\u8005\u7684\u76f4\u7cfb\u4eb2\u5c5e\u63d0\u524d\u81f340\u5c81\u884c\u7ed3\u80a0\u955c\u7b5b\u67e5\u3002\u6765\u81ea\u4e2d\u56fd\u9999\u6e2f\u5730\u533a\u7684\u7814\u7a76\u8868\u660e\uff0c\u7ed3\u76f4\u80a0\u764c\u60a3\u8005\u7684\u65e0\u75c7\u72b6\u5144\u5f1f\u59d0\u59b9\u53d1\u751f\u7ed3\u76f4\u80a0\u764c\u3001\u7ed3\u76f4\u80a0\u8fdb\u5c55\u671f\u817a\u7624\u7684\u98ce\u9669\u5747\u663e\u8457\u589e\u52a0
p415
sg8
Vlevel2
p416
sg10
V\u5371\u9669\u56e0\u7d20\u5bb6\u65cf\u53f2
p417
sg12
g13
sa(dp418
g6
V\u708e\u75c7\u6027\u80a0\u75c5(inflammatory bowel disease\uff0cIBD)\u662f\u7ed3\u76f4\u80a0\u764c\u660e\u786e\u7684\u5371\u9669\u56e0\u7d20\u3002\u66fe\u6709\u7814\u7a76\u8ba4\u4e3a\u7ea620\uff05\u7684IBD\u60a3\u8005\u53ef\u5728\u53d1\u75c510\u5e74\u5185\u53d1\u751f\u7ed3\u76f4\u80a0\u764c\uff0cIBD\u60a3\u8005\u53d1\u751f\u7ed3\u76f4\u80a0\u764c\u7684\u98ce\u9669\u662f\u5065\u5eb7\u4eba\u7fa4\u76842\uff5e4\u500d\u3002\u4f46\u6700\u8fd1\u7684\u835f\u8403\u5206\u6790\u7ed3\u679c\u8868\u660e\uff0c\u6e83\u75a1\u6027\u7ed3\u80a0\u708e(ulcerative colitis\uff0cUC)\u60a3\u8005\u5e73\u5747\u968f\u8bbf14\u5e74\u540e\u6c47\u603b\u6807\u51c6\u5316\u53d1\u75c5\u6bd4\u4e3a2.4(95\uff05CI\uff1a2.1\uff5e2.7)\u3002\u6211\u56fd\u4e00\u9879\u591a\u4e2d\u5fc3\u7814\u7a76\u8868\u660e\uff0c\u75c5\u7a0b10\u300120\u300130\u5e74\u7684UC\u60a3\u8005\u53d1\u751f\u7ed3\u76f4\u80a0\u764c\u7684\u7d2f\u79ef\u98ce\u9669\u5206\u522b\u4e3a1.2\uff05\u30013.6\uff05\u548c14.4\uff05
p419
sg8
Vlevel2
p420
sg10
V\u708e\u75c7\u6027\u80a0\u75c5
p421
sg12
g13
sa(dp422
g6
V\u5df2\u6709\u591a\u9879\u7814\u7a76\u8bc1\u660e\u4ee5\u6444\u4eba\u5927\u91cf\u8089\u7c7b\u3001\u8102\u80aa\u3001\u7cd6\u548c\u751c\u54c1\u4e3a\u7279\u70b9\u7684\u897f\u5f0f\u81b3\u98df\u6a21\u5f0f\u53ef\u589e\u52a0\u7ed3\u76f4\u80a0\u764c\u53d1\u75c5\u98ce\u9669\u3002\u9ad8\u7ea4\u7ef4\u996e\u98df\u662f\u7ed3\u76f4\u80a0\u764c\u7684\u4fdd\u62a4\u56e0\u7d20\u3002\u4f46\u81b3\u98df\u6a21\u5f0f\u4e0e\u7ed3\u76f4\u80a0\u764c\u7684\u76f8\u5173\u6027\u8fd8\u53d7\u6027\u522b\u3001\u9057\u4f20\u7b49\u56e0\u7d20\u5f71\u54cd
p423
sg8
Vlevel2
p424
sg10
V\u996e\u98df
p425
sg12
g13
sa(dp426
g6
V\u5438\u70df\u4eba\u7fa4\u7ed3\u76f4\u80a0\u764c\u53d1\u75c5\u98ce\u9669\u662f\u4e0d\u5438\u70df\u4eba\u7fa4\u76841.27\u500d\uff0c\u7ed3\u76f4\u80a0\u764c\u98ce\u9669\u968f\u65e5\u5438\u70df\u91cf\u3001\u70df\u9f84\u548c\u7d2f\u8ba1\u5438\u70df\u91cf\u7684\u589e\u52a0\u800c\u589e\u9ad8\uff0c\u70df\u9f84>50\u5e74\u7684\u4eba\u7fa4\u53d1\u75c5\u98ce\u9669\u6bd4\u4e0d\u5438\u70df\u4eba\u7fa4\u589e\u52a038\uff05\u3002\u7ed3\u76f4\u80a0\u764c\u53d1\u75c5\u98ce\u9669\u53ef\u968f\u6212\u70df\u65f6\u95f4\u7684\u5ef6\u957f\u548c\u6212\u70df\u5e74\u9f84\u7684\u63d0\u524d\u800c\u964d\u4f4e
p427
sg8
Vlevel2
p428
sg10
V\u5438\u70df
p429
sg12
g13
sa(dp430
g6
V\u5927\u91cf\u7814\u7a76\u663e\u793a\u8d85\u91cd\u6216\u80a5\u80d6\u5f71\u54cd\u7ed3\u76f4\u80a0\u817a\u7624\u7684\u53d1\u751f\u53ca\u764c\u53d8\u8fc7\u7a0b\u3002\u4f53\u8d28\u6307\u6570(body mass index\uff0cBMI)\u6bcf\u589e\u52a05\u4e2a\u5355\u4f4d\uff0c\u7ed3\u76f4\u80a0\u817a\u7624\u7684\u98ce\u9669\u589e\u52a019\uff05(RR=1.19)\uff1b\u817a\u7624\u53d1\u75c5\u98ce\u9669\u72ec\u7acb\u4e8e\u79cd\u65cf\u3001\u5730\u7406\u5206\u5e03\u3001\u7814\u7a76\u8bbe\u8ba1\u3001\u6027\u522b\u7b49\u6df7\u6742\u56e0\u7d20
p431
sg8
Vlevel2
p432
sg10
V\u8d85\u91cd\u6216\u80a5\u80d6
p433
sg12
g13
sa(dp434
g6
V\u4e0e\u975e\u7cd6\u5c3f\u75c5\u60a3\u8005\u76f8\u6bd4\uff0c2\u578b\u7cd6\u5c3f\u75c5\u60a3\u8005\u7ed3\u76f4\u80a0\u764c\u53d1\u751f\u7387\u589e\u52a027\uff05\uff0c\u7ed3\u76f4\u80a0\u764c\u6b7b\u4ea1\u7387\u4e5f\u660e\u663e\u589e\u52a020\uff05
p435
sg8
Vlevel2
p436
sg10
V2\u578b\u7cd6\u5c3f\u75c5
p437
sg12
g13
sa(dp438
g6
V\u7ed3\u76f4\u80a0\u764c\u7684\u62a5\u8b66\u75c7\u72b6\u5305\u62ec\uff1a\u6d88\u5316\u9053\u51fa\u8840(\u9ed1\u4fbf\u3001\u8840\u4fbf\u7b49)\u3001\u6d88\u7626\u3001\u8179\u6cfb\u3001\u8179\u90e8\u80bf\u5757\u3001\u6392\u4fbf\u4e60\u60ef\u6539\u53d8\u7b49\u3002\u62a5\u8b66\u75c7\u72b6\u5bf9\u7ed3\u76f4\u80a0\u764c\u7684\u9884\u6d4b\u4f5c\u7528\u4e00\u76f4\u5b58\u5728\u8f83\u591a\u4e89\u8bae\u3002\u56fd\u5185\u5927\u89c4\u6a21\u5355\u4e2d\u5fc3\u7814\u7a76\u5bf9\u8d85\u8fc71\u4e07\u4f8b\u56e0\u4e0b\u6d88\u5316\u9053\u75c7\u72b6\u5c31\u8bca\u60a3\u8005\u7684\u7ed3\u80a0\u955c\u8d44\u6599\u8fdb\u884c\u5206\u6790\u540e\u53d1\u73b0\uff0c\u9664\u8179\u90e8\u80bf\u5757\u5916\uff0c\u5176\u4f59\u62a5\u8b66\u75c7\u72b6\u5bf9\u7ed3\u76f4\u80a0\u764c\u7684\u9884\u6d4b\u4f5c\u7528\u6781\u4e3a\u6709\u9650\uff0c\u4f46\u662f\u6709\u8179\u90e8\u80bf\u5757\u7684\u60a3\u8005\u7edd\u5927\u591a\u6570\u4e3a\u665a\u671f\u7ed3\u76f4\u80a0\u764c\uff0c\u56e0\u6b64\u5728\u6211\u56fd\uff0c\u6709\u65e0\u62a5\u8b66\u75c7\u72b6\u5e76\u4e0d\u80fd\u4f5c\u4e3a\u662f\u5426\u884c\u7ed3\u80a0\u955c\u68c0\u67e5\u7684\u51b3\u5b9a\u56e0\u7d20\u3002\u8003\u8651\u6211\u56fd\u7ed3\u80a0\u955c\u68c0\u67e5\u8d39\u7528\u8f83\u4e3a\u4f4e\u5ec9\uff0c\u666e\u53ca\u7387\u9ad8\u7684\u73b0\u72b6\uff0c\u5bf9\u6709\u4e0b\u6d88\u5316\u9053\u75c7\u72b6\u7684\u60a3\u8005\u5efa\u8bae\u884c\u7ed3\u80a0\u955c\u68c0\u67e5\u6392\u9664\u80bf\u7624\u3001\u708e\u75c7\u7b49\u5668\u8d28\u6027\u75c5\u53d8
p439
sg8
Vlevel1
p440
sg10
V\u7ed3\u76f4\u80a0\u764c\u7684\u62a5\u8b66\u75c7\u72b6
p441
sg12
g13
sa(dp442
g6
V\u6839\u636e\u5371\u9669\u56e0\u7d20\u5bf9\u4e0d\u540c\u4eba\u7fa4\u8fdb\u884c\u4e2a\u4f53\u5316\u98ce\u9669\u5206\u5c42\u53ef\u4ee5\u7b5b\u9009\u51fa\u9ad8\u5371\u53d7\u68c0\u8005\uff0c\u5177\u6709\u91cd\u8981\u4e34\u5e8a\u610f\u4e49\u3002\u9ad8\u5371\u56e0\u7d20\u95ee\u5377\u662f\u4e00\u9879\u7ecf\u6d4e\u53ef\u884c\u7684\u7b5b\u67e5\u65b9\u6cd5\uff0c\u53ef\u901a\u8fc7\u75c5\u53f2\u3001\u75c7\u72b6\u3001\u5bb6\u65cf\u53f2\u7b49\u8bc6\u522b\u51fa\u9ad8\u5371\u4eba\u7fa4\uff0c\u5df2\u5728\u6211\u56fd\u90e8\u5206\u5730\u533a\u4f7f\u7528\u3002\u6211\u56fd\u4e00\u9879\u7814\u7a76\u53d1\u73b0\u5e74\u9f84\u3001\u6027\u522b\u3001\u5438\u70df\u53f2\u3001\u7cd6\u5c3f\u75c5\u4ee5\u53ca\u7eff\u8272\u852c\u83dc\u3001\u814c\u5236\u98df\u54c1\u3001\u6cb9\u70b8\u98df\u54c1\u548c\u767d\u8089\u7684\u6444\u4eba\u662f\u7ed3\u76f4\u80a0\u764c\u7684\u72ec\u7acb\u9884\u6d4b\u56e0\u7d20\u30022014\u5e74\u4e9a\u592a\u7ed3\u76f4\u80a0\u764c\u7b5b\u67e5\u5171\u8bc6\u6307\u51fa\uff0c\u5e74\u9f84\u3001\u7537\u6027\u3001\u6709\u7ed3\u76f4\u80a0\u764c\u5bb6\u65cf\u53f2\u3001\u5438\u70df\u548c\u80a5\u80d6\u662f\u4e9a\u592a\u5730\u533a\u7ed3\u76f4\u80a0\u764c\u548c\u8fdb\u5c55\u671f\u817a\u7624\u7684\u5371\u9669\u56e0\u7d20\uff0c\u4e9a\u592a\u98ce\u9669\u8bc4\u5206\u53ef\u4f5c\u4e3a\u8fdb\u5c55\u671f\u7ed3\u76f4\u80a0\u80bf\u7624\u9ad8\u5371\u4eba\u7fa4\u7684\u7b5b\u9009\u5de5\u5177\uff0c\u9002\u7528\u4e8e\u4e9a\u592a\u65e0\u75c7\u72b6\u4eba\u7fa4\u7684\u7ed3\u76f4\u80a0\u764c\u7b5b\u67e5\u3002\u540e\u7eed\u7814\u7a76\u63d0\u793a\u57fa\u4e8e\u6211\u56fd\u5143\u75c7\u72b6\u4eba\u7fa4\u5e74\u9f84\u3001\u6027\u522b\u3001\u5438\u70df\u3001\u7ed3\u76f4\u80a0\u764c\u5bb6\u65cf\u53f2\u3001BMI\u548c\u81ea\u8bc9\u7cd6\u5c3f\u75c5\u7684\u8bc4\u5206\u7cfb\u7edf\u53ef\u9884\u6d4b\u7ed3\u76f4\u80a0\u80bf\u7624\u7684\u98ce\u9669(\u5305\u62ec\u817a\u7624\u3001\u8fdb\u5c55\u671f\u817a\u7624\u548c\u7ed3\u76f4\u80a0\u764c)\uff0c\u6709\u52a9\u4e8e\u7b5b\u67e5\u65b9\u6848\u7684\u9009\u62e9\u3002\u6839\u636e\u8be5\u65b9\u6848\uff0c\u5e76\u7ed3\u5408\u6211\u56fd\u7684\u5b9e\u9645\u60c5\u51b5\uff0c\u53ef\u53c2\u8003\u88681\u5bf9\u60a3\u8005\u8fdb\u884c\u98ce\u9669\u8bc4\u5206\uff1a\u63a8\u8350\u9ad8\u5371\u60a3\u8005(3\uff5e6\u5206)\u8fdb\u884c\u7ed3\u80a0\u955c\u68c0\u67e5\uff0c\u4f4e\u5371\u60a3\u8005(0\uff5e2\u5206)\u53ef\u8003\u8651\u7caa\u9690\u8840\u7b5b\u67e5\u6216(\u548c)\u8840\u6e05\u6807\u5fd7\u7269\u7b5b\u67e5(\u5982septin9DNA\u7532\u57fa\u5316\u68c0\u6d4b\u7b49)
p443
sg8
Vlevel1
p444
sg10
V\u7ed3\u76f4\u80a0\u764c\u98ce\u9669\u5206\u5c42
p445
sg12
g13
sa(dp446
g6
V\u5b9a\u4e49\u548c\u672f\u8bed
p447
sg8
Vlevel1
p448
sg10
V\u5b9a\u4e49\u548c\u672f\u8bed
p449
sg12
g13
sa(dp450
g6
V\u4f4e\u7ea7\u522b\u4e0a\u76ae\u5185\u7624\u53d8(10w.grade intraepithelial neoplasia\uff0cLGIN)\u76f8\u5f53\u4e8e\u539f\u6765\u7684\u8f7b\u3001\u4e2d\u5ea6\u5f02\u578b\u589e\u751f\uff0c\u9ad8\u7ea7\u522b\u4e0a\u76ae\u5185\u7624\u53d8(high\u2015grade intraepithelial neoplasia\uff0cHGIN)\u5219\u5305\u62ec\u91cd\u5ea6\u5f02\u578b\u589e\u751f\u3001\u539f\u4f4d\u764c\u3001\u539f\u4f4d\u764c\u53ef\u7591\u6d78\u6da6\u53ca\u9ecf\u819c\u5185\u764c
p451
sg8
Vlevel2
p452
sg10
V\u4e0a\u76ae\u5185\u7624\u53d8
p453
sg12
g13
sa(dp454
g6
V\u6307\u4e0e\u7ed3\u80a0\u764c\u53d1\u751f\u5bc6\u5207\u76f8\u5173\u7684\u75c5\u7406\u53d8\u5316\uff0c\u5305\u62ec\u7ed3\u76f4\u80a0\u817a\u7624\u3001\u817a\u7624\u75c5\u548c\u708e\u75c7\u6027\u80a0\u75c5\u76f8\u5173\u5f02\u578b\u589e\u751f\u7b49\uff0c\u65b0\u8fd1\u547d\u540d\u7684\u4f20\u7edf\u952f\u9f7f\u72b6\u817a\u7624(traditional serrated adenoma\uff0cTSA)\u548c\u5e7f\u57fa\u952f\u9f7f\u72b6\u817a\u7624/\u606f\u8089(sessile serrated adenoma/polyps\uff0cSSA/P)\u7b49\u952f\u9f7f\u72b6\u75c5\u53d8\u4e5f\u5c5e\u4e8e\u764c\u524d\u75c5\u53d8\u7684\u8303\u7574
p455
sg8
Vlevel2
p456
sg10
V\u7ed3\u76f4\u80a0\u764c\u764c\u524d\u75c5\u53d8
p457
sg12
g13
sa(dp458
g6
V\u53ef\u5206\u4e3a\u7ba1\u72b6\u817a\u7624\u3001\u7ba1\u72b6\u7ed2\u6bdb\u72b6\u817a\u7624\u53ca\u7ed2\u6bdb\u72b6\u817a\u7624\uff0c\u4ee5\u7ed2\u6bdb\u72b6\u817a\u7624\u764c\u53d8\u7387\u6700\u9ad8\uff0c\u7ba1\u72b6\u817a\u7624\u6700\u4f4e\u3002\u5927\u591a\u6570\u7ed3\u80a0\u764c\u7ecf\u7531\u817a\u7624-\u817a\u764c\u9014\u5f84\u5f62\u6210
p459
sg8
Vlevel3
p460
sg10
V\u7ed3\u76f4\u80a0\u817a\u7624
p461
sg12
g13
sa(dp462
g6
V\u6307\u6ee1\u8db3\u4ee5\u4e0b1\u6761\u6216\u591a\u6761\u6807\u51c6\u7684\u817a\u7624\uff1a\u2460\u76f4\u5f84>10 mm\uff1b\u2461\u542b\u6709\u7ed2\u6bdb\u6210\u5206\uff1b\u2462\u6709\u91cd\u5ea6\u5f02\u578b\u589e\u751f\u6216\u9ad8\u7ea7\u522b\u4e0a\u76ae\u5185\u7624\u53d8
p463
sg8
Vlevel3
p464
sg10
V\u8fdb\u5c55\u671f\u817a\u7624
p465
sg12
g13
sa(dp466
g6
V\u6307\u4e00\u7ec4\u4ee5\u4e0a\u76ae\u952f\u9f7f\u72b6\u7ed3\u6784\u4e3a\u7279\u5f81\u7684\u75c5\u53d8\uff0c\u5305\u62ec\u589e\u751f\u6027\u606f\u8089(hyperplastic polyp\uff0cHP)\u3001SSA/P\u548cTSA\u3002\u4e00\u822c\u8ba4\u4e3aHP\u4e0d\u5177\u6709\u6076\u53d8\u6f5c\u80fd\uff0c\u800cSSA/P\u548cTSA\u53ef\u901a\u8fc7\u952f\u9f7f\u72b6\u9014\u5f84\u764c\u53d8\u3002SSA/P\u6839\u636e\u7ec6\u80de\u5f02\u578b\u6027\u5206\u4e3a\u4e0d\u4f34\u7ec6\u80de\u5f02\u578b\u589e\u751f\u578b\u548c\u4f34\u6709\u7ec6\u80de\u5f02\u578b\u589e\u751f\u578b(SSA/P with cytological dysplasia)
p467
sg8
Vlevel3
p468
sg10
V\u952f\u9f7f\u72b6\u75c5\u53d8
p469
sg12
g13
sa(dp470
g6
V (1aterally spreading tumor\uff0cLST)\u6307\u76f4\u5f84\u226510 mm\uff0c\u6cbf\u80a0\u58c1\u4fa7\u5411\u6269\u5c55\u800c\u975e\u5782\u76f4\u751f\u957f\u7684\u4e00\u7c7b\u8868\u6d45\u6027\u7ed3\u76f4\u80a0\u75c5\u53d8\u3002\u4f9d\u636e\u5176\u8868\u9762\u5f62\u6001\u53ef\u5206\u4e3a\u9897\u7c92\u578b(\u9897\u7c92\u5747\u4e00\u578b\u548c\u7ed3\u8282\u6df7\u5408\u578b)\u548c\u975e\u9897\u7c92\u578b(\u6241\u5e73\u9686\u8d77\u578b\u548c\u5047\u51f9\u9677\u578b)\u3002LST\u5e76\u975e\u7ec4\u7ec7\u5b66\u5206\u7c7b\uff0c\u5176\u75c5\u7406\u53ef\u80fd\u4e3a\u817a\u7624\u6216\u952f\u9f7f\u72b6\u75c5\u53d8\u7b49\uff0c\u6709\u9ecf\u819c\u4e0b\u6d78\u6da6\u98ce\u9669
p471
sg8
Vlevel2
p472
sg10
V\u4fa7\u5411\u53d1\u80b2\u80bf\u7624
p473
sg12
g13
sa(dp474
g6
V (en bloc resection)\u75c5\u7076\u5728\u5185\u955c\u4e0b\u88ab\u6574\u5757\u5207\u9664\u5e76\u83b7\u5f97\u5355\u5757\u6807\u672c
p475
sg8
Vlevel2
p476
sg10
V\u6574\u5757\u5207\u9664
p477
sg12
g13
sa(dp478
g6
V\u5185\u955c\u4e0b\u5207\u9664\u7684\u6807\u672c\u56fa\u5b9a\u540e\u6bcf\u96942 mm\u5782\u76f4\u5207\u7247\uff0c\u82e5\u6807\u672c\u4fa7\u5207\u7f18\u6709\u80bf\u7624\u7ec6\u80de\u6d78\u6da6\u4e3a\u6c34\u5e73\u5207\u7f18\u9633\u6027\uff0c\u82e5\u57fa\u5e95\u5207\u7f18\u6709\u80bf\u7624\u7ec6\u80de\u6d78\u6da6\u5219\u79f0\u4e3a\u5782\u76f4\u5207\u7f18\u9633\u6027
p479
sg8
Vlevel2
p480
sg10
V\u6c34\u5e73/\u5782\u76f4\u5207\u7f18\u9633\u6027
p481
sg12
g13
sa(dp482
g6
V (complete resection/R0 resection)\u6574\u5757\u5207\u9664\u6807\u672c\u7684\u6c34\u5e73\u548c\u5782\u76f4\u5207\u7f18\u5747\u4e3a\u9634\u6027\u79f0\u4e3a\u5b8c\u5168\u5207\u9664
p483
sg8
Vlevel2
p484
sg10
V\u5b8c\u5168\u5207\u9664
p485
sg12
g13
sa(dp486
g6
V (curative resection)\u5207\u9664\u6807\u672c\u6c34\u5e73\u548c\u5782\u76f4\u5207\u7f18\u5747\u4e3a\u9634\u6027\u4e14\u65e0\u6dcb\u5df4\u7ed3\u8f6c\u79fb\u98ce\u9669
p487
sg8
Vlevel2
p488
sg10
V\u6cbb\u6108\u6027\u5207\u9664
p489
sg12
g13
sa(dp490
g6
V(10cal recurrence/residual)\u7ed3\u80a0\u955c\u8868\u73b0\uff1a(1)\u539f\u5185\u955c\u5207\u9664\u90e8\u4f4d\u5b58\u5728\u80bf\u7624\u75c5\u7076\uff1b(2)\u4f34\u6709\u9ecf\u819c\u805a\u96c6\u7684\u80bf\u7624\u75c5\u7076\uff1b(3)\u4e0d\u4f34\u9ecf\u819c\u805a\u96c6\u4f46\u7d27\u90bb\u90e8\u4f4d\u6709\u660e\u786e\u5185\u955c\u5207\u9664\u672f\u540e\u7622\u75d5\u7684\u80bf\u7624\u75c5\u7076\u3002\u65e9\u671f\u5c40\u90e8\u590d\u53d1/\u6b8b\u7559\u6307\u5185\u955c\u6cbb\u75976\u4e2a\u6708\u540e\u7b2c1\u6b21\u968f\u8bbf\u7ed3\u80a0\u955c\u53d1\u73b0\u4e0a\u8ff0\u75c5\u7076\uff1b\u665a\u671f\u5c40\u90e8\u590d\u53d1\u5219\u5b9a\u4e49\u4e3a\u81f3\u5c111\u6b21\u9634\u6027\u968f\u8bbf\u7ed3\u80a0\u955c\u540e\u53d1\u73b0\u4e0a\u8ff0\u75c5\u53d8
p491
sg8
Vlevel2
p492
sg10
V\u5c40\u90e8\u590d\u53d1/\u6b8b\u7559
p493
sg12
g13
sa(dp494
g6
V (interval colorectal cancer)\u4e5f\u79f0\u4e3a\u7ed3\u80a0\u955c\u540e\u7ed3\u76f4\u80a0\u764c(post\u2015colonoscopy colorectal cancer\uff0cPCCRC)\uff0c\u5b9a\u4e49\u4e3a\u7b5b\u67e5\u6216\u76d1\u6d4b\u68c0\u67e5\u672a\u53d1\u73b0\uff0c\u800c\u5728\u63a8\u8350\u7684\u4e0b\u4e00\u6b21\u68c0\u67e5\u65e5\u671f\u4e4b\u524d\u53d1\u751f\u7684\u7ed3\u76f4\u80a0\u764c
p495
sg8
Vlevel2
p496
sg10
V\u95f4\u671f\u7ed3\u76f4\u80a0\u764c
p497
sg12
g13
sa(dp498
g6
V\u6240\u6709\u7ed3\u76f4\u80a0\u80bf\u7624\u6000\u7591\u764c\u53d8\u5747\u5e94\u5728\u767d\u5149\u53ca\u67d3\u8272\u5185\u955c\u4e0b\u4ed4\u7ec6\u89c2\u5bdf\uff0c\u6709\u6761\u4ef6\u53ef\u884c\u653e\u5927\u5185\u955c\u548c\u7535\u5b50\u67d3\u8272\u5185\u955c\u4ee5\u5224\u65ad\u53ef\u80fd\u7684\u6d78\u6da6\u6df1\u5ea6\uff0c\u9884\u6d4b\u6dcb\u5df4\u7ed3\u8f6c\u79fb\u7684\u98ce\u9669\u3002\u5bf90-IIc\u578b\u75c5\u53d8\u3001\u975e\u9897\u7c92\u578b\u53ca\u7ed3\u8282\u6df7\u5408\u578bLST\u5efa\u8bae\u5e38\u89c4\u4f7f\u7528\u67d3\u8272\u653e\u5927\u6216\u7535\u5b50\u67d3\u8272\u5185\u955c(NBI)\u8bc4\u4f30\u9ecf\u819c\u4e0b\u53ca\u6df1\u5ea6\u6d78\u6da6\u764c\u98ce\u9669\u3002\u9664\u5185\u955c\u4e0b\u7cbe\u7ec6\u89c2\u5bdf\u75c5\u7076\u4ee5\u5916\uff0c\u8003\u8651\u5230\u6210\u672c\u6548\u76ca\uff0c\u672c\u5171\u8bc6\u63a8\u8350\u65e9\u671f\u7ed3\u80a0\u764c\u672f\u524d\u8bc4\u4f30\u4f7f\u7528\u589e\u5f3aCT\uff0c\u6709\u6761\u4ef6\u53ef\u9009\u7528mEUS\uff1b\u800c\u65e9\u671f\u76f4\u80a0\u764c\u7684\u672f\u524d\u8bc4\u4f30\u5219\u63a8\u8350\u4f7f\u7528ERUS\u548c\u589e\u5f3aMRI\u3002\u4e0d\u63a8\u8350PET\u2014CT\u4f5c\u4e3a\u5e38\u89c4\u8bc4\u4f30\u65b9\u6cd5\u3002
p499
sg8
Vlevel2
p500
sg10
V\u672f\u524d\u8bc4\u4f30
p501
sg12
g13
sa(dp502
g6
V\u5efa\u8bae\u5e38\u89c4\u4f7f\u7528\u67d3\u8272\u653e\u5927\u6216\u7535\u5b50\u67d3\u8272\u5185\u955c(NBI)\u8bc4\u4f30\u9ecf\u819c\u4e0b\u53ca\u6df1\u5ea6\u6d78\u6da6\u764c\u98ce\u9669
p503
sg8
Vlevel3
p504
sg10
V\u975e\u9897\u7c92\u578b\u53ca\u7ed3\u8282\u6df7\u5408\u578bLST
p505
sg12
g13
sa(dp506
g6
V\u9664\u5185\u955c\u4e0b\u7cbe\u7ec6\u89c2\u5bdf\u75c5\u7076\u4ee5\u5916\uff0c\u8003\u8651\u5230\u6210\u672c\u6548\u76ca\uff0c\u672c\u5171\u8bc6\u63a8\u8350\u65e9\u671f\u7ed3\u80a0\u764c\u672f\u524d\u8bc4\u4f30\u4f7f\u7528\u589e\u5f3aCT\uff0c\u6709\u6761\u4ef6\u53ef\u9009\u7528mEUS
p507
sg8
Vlevel3
p508
sg10
V\u65e9\u671f\u7ed3\u80a0\u764c\u672f\u524d\u8bc4\u4f30
p509
sg12
g13
sa(dp510
g6
V\u800c\u65e9\u671f\u76f4\u80a0\u764c\u7684\u672f\u524d\u8bc4\u4f30\u5219\u63a8\u8350\u4f7f\u7528ERUS\u548c\u589e\u5f3aMRI\u3002\u4e0d\u63a8\u8350PET\u2015CT\u4f5c\u4e3a\u5e38\u89c4\u8bc4\u4f30\u65b9\u6cd5
p511
sg8
Vlevel3
p512
sg10
V\u65e9\u671f\u76f4\u80a0\u764c\u7684\u672f\u524d\u8bc4\u4f30
p513
sg12
g13
sa(dp514
g6
V\u672f\u524d\u51c6\u786e\u5224\u65ad\u80bf\u7624\u6d78\u6da6\u6df1\u5ea6\u3001\u8303\u56f4\u53ca\u6709\u65e0\u6dcb\u5df4\u7ed3\u4fb5\u72af
p515
sg8
Vlevel3
p516
sg10
V\u9009\u62e9\u5408\u7406\u7684\u6cbb\u7597\u65b9\u5f0f\u7684\u5173\u952e
p517
sg12
g13
sa(dp518
g6
V\u4e3b\u8981\u501f\u52a9\u67d3\u8272\u5185\u955c\u548c\u7535\u5b50\u67d3\u8272\u5185\u955c\u6765\u5224\u65ad\uff0c\u5bf9\u6df1\u5ea6\u7684\u5224\u65ad\u5219\u4e3b\u8981\u4f9d\u9760\u75c5\u53d8\u5927\u4f53\u5f62\u6001\u3001\u653e\u5927\u67d3\u8272\u89c2\u5bdf\u75c5\u53d8\u817a\u7ba1\u5f00\u53e3\u5206\u578b\u3001NBI\u5206\u578b\u7b49\uff0c\u8d85\u58f0\u5185\u955c\u4e5f\u53ef\u63d0\u4f9b\u6709\u7528\u7684\u4fe1\u606f\uff0c\u4f46\u76ee\u524d\u7f3a\u4e4f\u7edf\u4e00\u7684\u6807\u51c6\uff0c\u53d7\u64cd\u4f5c\u8005\u6c34\u5e73\u7684\u5f71\u54cd\u8f83\u5927\uff0c\u51c6\u786e\u7684\u8bc4\u4f30\u4ecd\u4f9d\u9760\u672f\u540e\u6807\u672c\u7684\u75c5\u7406\u8bca\u65ad
p519
sg8
Vlevel3
p520
sg10
V\u80bf\u7624\u6d78\u6da6\u8303\u56f4\u7684\u8bc4\u4f30
p521
sg12
g13
sa(dp522
g6
V\u4e34\u5e8a\u5e38\u7528\u7684\u57fa\u672c\u8bc4\u4f30\u65b9\u6cd5
p523
sg8
Vlevel3
p524
sg10
V\u8bc4\u4f30\u65b9\u6cd5
p525
sg12
g13
sa(dp526
g6
V\u53d1\u751f\u9ecf\u819c\u4e0b\u6216\u66f4\u6df1\u5c42\u6b21\u6d78\u6da6\u98ce\u9669\u8f83\u4f4e(<2\uff05) 
p527
sg8
Vlevel4
p528
sg10
V0-IIa\u62160-IIb\u75c5\u53d8\u53ca\u9897\u7c92\u5747\u4e00\u578bLST
p529
sg12
g13
sa(dp530
g6
V\u9ecf\u819c\u4e0b\u6d78\u6da6\u98ce\u9669\u5219\u76f8\u5bf9\u66f4\u9ad8(\u8d85\u8fc736\uff05) 
p531
sg8
Vlevel4
p532
sg10
V0-IIc\u75c5\u53d8\u53ca\u975e\u9897\u7c92\u578b\u53ca\u7ed3\u8282\u6df7\u5408\u578bLST
p533
sg12
g13
sa(dp534
g6
V\u9ecf\u819c\u4e0b\u6d78\u6da6\u764c\u98ce\u9669\u8d8a\u9ad8\uff0c\u8d85\u8fc71 cm\u75c5\u53d8\u7684\u9ecf\u819c\u4e0b\u6d78\u6da6\u98ce\u9669\u8d85\u8fc770\uff05
p535
sg8
Vlevel4
p536
sg10
V0-IIc\u75c5\u53d8\u8d8a\u5927
p537
sg12
g13
sa(dp538
g6
V\u226510 mm\u7684\u7ed3\u8282\u6613\u53d1\u751f\u9ecf\u819c\u4e0b\u6d78\u6da6\uff0c\u6700\u5927\u7684\u7ed3\u8282\u5904\u6d78\u6da6\u6700\u6df1
p539
sg8
Vlevel4
p540
sg10
V\u7ed3\u8282\u6df7\u5408\u578bLST
p541
sg12
g13
sa(dp542
g6
V\u6709\u7ea630\uff05\u8868\u73b0\u4e3a\u591a\u7076\u6027\u9ecf\u819c\u4e0b\u6d78\u6da6\uff0c\u7279\u522b\u662f\u5728\u51f9\u9677\u5904\u66f4\u4e3a\u660e\u663e
p543
sg8
Vlevel4
p544
sg10
V\u975e\u9897\u7c92\u578bLST
p545
sg12
g13
sa(dp546
g6
V\u65e5\u672c\u5de5\u85e4\u5206\u578b\u4e0e\u75c5\u7406\u8bca\u65ad\u7684\u9ad8\u5ea6\u76f8\u5173\u5df2\u5f97\u5230\u516c\u8ba4\uff0c\u800cV\u578b\u817a\u7ba1\u5f00\u53e3\u7684\u7ec6\u5206\u5bf9\u5224\u65ad\u6d78\u6da6\u6df1\u5ea6\u6709\u5f88\u5927\u5e2e\u52a9\uff0c\u53ef\u5206\u4e3aV1\u578b(\u8f7b\u5ea6\u4e0d\u89c4\u5219V1\u578b\u3001\u91cd\u5ea6\u4e0d\u89c4\u5219V1\u578b)\u548cVN\u578b
p547
sg8
Vlevel4
p548
sg10
V\u817a\u7ba1\u5f00\u53e3\u5206\u578b
p549
sg12
g13
sa(dp550
g6
V\u76ee\u524d\u8ba4\u4e3a\u8f7b\u5ea6\u4e0d\u89c4\u5219V1\u764c\u6d78\u6da6\u6df1\u5ea6<1 000\u03bcm
p551
sg8
Vlevel5
p552
sg10
V\u8f7b\u5ea6\u4e0d\u89c4\u5219V1\u764c
p553
sg12
g13
sa(dp554
g6
V\u800c\u91cd\u5ea6\u4e0d\u89c4\u5219V1\u578b\u548cVN\u578b\u764c\u6d78\u6da6\u6df1\u5ea6>1 000\u03bcm
p555
sg8
Vlevel5
p556
sg10
V\u91cd\u5ea6\u4e0d\u89c4\u5219V1\u578b\u548cVN\u578b\u764c
p557
sg12
g13
sa(dp558
g6
V\u8fd1\u5e74\u6765\u63a8\u884c\u7684NICE\u5206\u578b\uff0c\u8bd5\u56fe\u4e0d\u4f7f\u7528\u653e\u5927\u6280\u672f\uff0c\u5728NBI\u9ad8\u6e05\u80a0\u955c\u89c2\u5bdf\u4e0b\u7efc\u5408\u8bc4\u5224\u75c5\u53d8\u7684\u989c\u8272\u3001\u5fae\u8840\u7ba1\u7ed3\u6784\u548c\u8868\u9762\u5206\u578b\uff0c\u8f83\u4e3a\u7b80\u5355\u6613\u7528\u3002NICE 1\u578b\u548c2\u578b\u80fd\u5b9e\u65f6\u6709\u6548\u5730\u533a\u5206\u589e\u751f\u6027\u606f\u8089\u548c\u817a\u7624\u65e7\u5ddd\uff0cNICE 3\u578b\u5219\u80fd\u8bc6\u522b\u6d78\u6da6\u8d85\u8fc71 000\u03bcm\u7684\u9ecf\u819c\u4e0b\u764c\uff0c\u4f46\u5176\u51c6\u786e\u6027\u8fd8\u5b58\u6709\u4e89\u8bae\uff0c\u5c1a\u5f85\u5728\u6211\u56fd\u4eba\u7fa4\u4e2d\u8fdb\u4e00\u6b65\u9a8c\u8bc1
p559
sg8
Vlevel4
p560
sg10
VNBI\u5206\u578b
p561
sg12
g13
sa(dp562
g6
V\u5305\u62ecEUS\u3001\u5c0f\u63a2\u5934EUS(mini-probe EUS\uff0cmEUS)\u3001\u76f4\u80a0\u8154\u5185\u8d85\u58f0(endorectal ultrasound\uff0cERUS)\u3002mEUS\u6709\u5229\u4e8e\u53d1\u73b0\u9002\u5408\u5185\u955c\u5207\u9664\u7684T1\u75c5\u53d8\uff1b\u800c\u5224\u65adN\u5206\u671f\u5b9c\u9009\u752812 MHz\u7684mEUS\u3002ERUS\u5219\u53ef\u4ee5\u7cbe\u786e\u5730\u8bc4\u4f30\u4e2d\u4f4e\u4f4d\u76f4\u80a0\u80bf\u7624\u7684\u6d78\u6da6\u6df1\u5ea6(T\u5206\u671f)\uff0c\u51c6\u786e\u6027\u4f18\u4e8eCT\u548cMRI\uff0c\u5224\u65adN\u5206\u671f\u7684\u51c6\u786e\u6027\u5219\u6b20\u4f73\uff0c\u96be\u4ee5\u533a\u5206\u708e\u6027\u548c\u8f6c\u79fb\u7684\u6dcb\u5df4\u7ed3
p563
sg8
Vlevel4
p564
sg10
V\u8d85\u58f0\u5185\u955c
p565
sg12
g13
sa(dp566
g6
VCT\u68c0\u67e5\u4e3b\u8981\u7528\u4e8e\u5224\u65ad\u7ed3\u76f4\u80a0\u764c\u6709\u65e0\u8fdc\u5904\u8f6c\u79fb(\u51c6\u786e\u5ea6\u4e3a95\uff05)\uff0c\u5bf9T\u5206\u671f(\u51c6\u786e\u5ea6\u4e3a67\uff05)\u548cN\u5206\u671f(\u51c6\u786e\u5ea6\u4e3a69\uff05)\u7684\u8bca\u65ad\u4f5c\u7528\u6709\u9650\u3002\u63a8\u8350\u884c\u589e\u5f3aCT\uff0c\u5982\u6709\u7981\u5fcc\u53ef\u884c\u589e\u5f3aMRI\u68c0\u67e5
p567
sg8
Vlevel4
p568
sg10
VCT
p569
sg12
g13
sa(dp570
g6
V\u76f4\u80a0\u764c\u672f\u524d\u8bc4\u4f30\u7684\u91cd\u8981\u68c0\u67e5\uff0c\u5bf9\u4e8e\u6cbb\u7597\u65b9\u5f0f\u7684\u9009\u62e9\u6709\u91cd\u8981\u4f5c\u7528
p571
sg8
Vlevel4
p572
sg10
VMRI
p573
sg12
g13
sa(dp574
g6
VPET\u5728\u5224\u65ad\u6709\u65e0\u5c40\u90e8\u6216\u8fdc\u5904\u8f6c\u79fb\u65b9\u9762\u5e76\u4e0d\u663e\u8457\u4f18\u4e8eCT\u6216MRI\uff0c\u800c\u4e14\u68c0\u67e5\u8d39\u7528\u8f83\u9ad8\uff0c\u6545\u4e0d\u63a8\u8350\u5e38\u89c4\u5e94\u7528PET.CT\u5bf9\u65e9\u671f\u7ed3\u76f4\u80a0\u764c\u6dcb\u5df4\u7ed3\u4fb5\u72af\u8fdb\u884c\u8bc4\u4f30
p575
sg8
Vlevel4
p576
sg10
VPET-CT
p577
sg12
g13
sa(dp578
g6
V\u7ed3\u76f4\u80a0\u764c\u53d1\u75c5\u7387
p579
sg8
Vlevel1
p580
sg10
V\u7ed3\u76f4\u80a0\u764c\u6d41\u884c\u75c5\u5b66
p581
sg12
g13
sa(dp582
g6
V\u636e\u300a\u4e2d\u56fd\u80bf\u7624\u767b\u8bb0\u5e74\u62a5\u300b\u663e\u793a\uff0c\u7ed3\u76f4\u80a0\u764c\u662f\u6211\u56fd\u80bf\u7624\u767b\u8bb0\u5730\u533a2009\u5e74\u7b2c\u4e8c\u5e38\u89c1\u7684\u6d88\u5316\u9053\u80bf\u7624\uff0c\u4ec5\u6b21\u4e8e\u80c3\u764c\uff0c\u53d1\u75c5\u7387\u4e3a29.44\uff0f10\u4e07\uff0c\u540c\u671f\u6b7b\u4ea1\u7387\u4e3a14.23\uff0f10\u4e07\uff0c\u5360\u6076\u6027\u80bf\u7624\u6b7b\u4ea1\u7387\u7684\u7b2c5\u4f4d
p583
sg8
Vlevel2
p584
sg10
V2009\u5e74\u53d1\u75c5\u7387\u548c\u6b7b\u4ea1\u7387
p585
sg12
g13
sa(dp586
g6
V\u7537\u6027\u53d1\u75c5\u7387\u548c\u6b7b\u4ea1\u7387\u4e3a\u5973\u6027\u76841.2\uff5e1.3\u500d\uff0c\u4e14\u589e\u957f\u8d8b\u52bf\u66f4\u4e3a\u663e\u8457
p587
sg8
Vlevel2
p588
sg10
V\u53d1\u75c5\u7387\u6027\u522b\u5dee\u5f02
p589
sg12
g13
sa(dp590
g6
V\u5e74\u9f84\u6807\u5316\u540e\u57ce\u5e02\u4eba\u53e3\u7684\u53d1\u75c5\u7387\u548c\u6b7b\u4ea1\u7387\u5747\u6bd4\u519c\u6751\u4eba\u53e3\u9ad8\u51fa65\uff05\u4ee5\u4e0a\uff0c\u589e\u5e45\u7ea6\u4e3a\u519c\u6751\u76842\u500d\u4ee5\u4e0a
p591
sg8
Vlevel2
p592
sg10
V\u53d1\u75c5\u7387\u57ce\u5e02\u519c\u6751\u5dee\u5f02
p593
sg12
g13
sa(dp594
g6
V\u8fd120\u5e74\u6765\u6211\u56fd\u7684\u7ed3\u76f4\u80a0\u764c\u53d1\u75c5\u7387\u5448\u6301\u7eed\u4e0a\u5347\u8d8b\u52bf\uff0c\u7ed3\u80a0\u764c\u53d1\u75c5\u7387\u589e\u9ad8\u660e\u663e\uff0c\u76f4\u80a0\u764c\u57fa\u672c\u7a33\u5b9a\uff1b\u6b7b\u4ea1\u7387\u4ece40\u5c81\u5f00\u59cb\u6301\u7eed\u5feb\u901f\u4e0a\u5347\uff0c85\u5c81\u7ec4\u65f6\u8fbe\u5230\u5cf0\u503c\u4e14\u672a\u89c1\u4e0b\u964d\u3002\u7b2c\u4e09\u6b21\u6b7b\u56e0\u8c03\u67e5\u663e\u793a\uff0c\u6211\u56fd\u7ed3\u76f4\u80a0\u764c\u6b7b\u4ea1\u7387\u4e0e\u7b2c\u4e8c\u6b21\u6b7b\u56e0\u8c03\u67e5\u76f8\u6bd4\u4e0a\u5347\u4e8640.0\uff05\uff0c\u4e0e\u7b2c\u4e00\u6b21\u6b7b\u56e0\u8c03\u67e5\u76f8\u6bd4\u4e0a\u5347\u4e8677.9\uff05\u3002\u76ee\u524d\uff0c\u6211\u56fd\u7ed3\u76f4\u80a0\u764c\u53d1\u75c5\u6570\u548c\u6b7b\u4ea1\u6570\u5360\u4e16\u754c\u540c\u671f\u768418\uff05\uff5e20\uff05
p595
sg8
Vlevel2
p596
sg10
V\u53d1\u75c5\u7387\u53d8\u5316\u8d8b\u52bf
p597
sg12
g13
sa(dp598
g6
V\u6211\u56fd\u7ed3\u76f4\u80a0\u764c\u5206\u5e03\u5730\u533a\u5dee\u5f02\u660e\u663e\uff0c\u6cbf\u6d77\u5730\u533a(\u4e1c\u90e8\u5730\u533a)\u6bd4\u5185\u9646(\u897f\u5317\u5730\u533a)\u9ad8\u53d1\uff0c\u6c5f\u82cf\u3001\u6d59\u6c5f\u3001\u4e0a\u6d77\u3001\u798f\u5efa\u548c\u4e1c\u5317\u53ca\u534e\u5317\u7684\u90e8\u5206\u5730\u533a\u53d1\u75c5\u7387\u4e0a\u5347\u8f83\u5feb\uff0c\u957f\u6c5f\u4e2d\u4e0b\u6e38\u5730\u533a\u7684\u7ed3\u76f4\u80a0\u764c\u53d1\u75c5\u7387\u548c\u6b7b\u4ea1\u7387\u6700\u9ad8
p599
sg8
Vlevel2
p600
sg10
V\u7ed3\u76f4\u80a0\u764c\u5206\u5e03\u5730\u533a
p601
sg12
g13
sa(dp602
g6
V\u6765\u81ea\u4e2d\u56fd\u9999\u6e2f\u5730\u533a\u3001\u542f\u4e1c\u3001\u4e0a\u6d77\u3001\u5929\u6d25\u7684\u6570\u636e\u663e\u793a\uff0c\u5927\u80a0\u764c\u7684\u5e73\u57475\u5e74\u5e74\u9f84\u6807\u5316\u76f8\u5bf9\u751f\u5b58\u7387\u4e3a44\uff05(36\uff05\uff5e63\uff05)\uff1b\u6211\u56fd\u4e00\u9879\u5927\u89c4\u6a21\u7814\u7a76\u5bf9\u8d85\u8fc71\u4e07\u4f8b\u786e\u8bca\u4e3a\u7ed3\u76f4\u80a0\u764c\u7684\u60a3\u8005\u8fdb\u884c\u968f\u8bbf\uff0c\u53d1\u73b0\u5e74\u9f84\u6807\u53165\u5e74\u76f8\u5bf9\u751f\u5b58\u7387\u8fbe47.2\uff05\uff0c\u5176\u4e2d\u57ce\u5e02\u60a3\u8005\u76845\u5e74\u751f\u5b58\u7387\u5df2\u8d85\u8fc750\uff05\uff0c\u4f46\u519c\u6751\u60a3\u8005\u4ecd\u4e0d\u8db340\uff05\uff0c\u8fdc\u4f4e\u4e8e\u6b27\u7f8e\u53d1\u8fbe\u56fd\u5bb6\u53ca\u65e5\u672c
p603
sg8
Vlevel2
p604
sg10
V\u5e74\u9f84\u6807\u5316\u76f8\u5bf9\u751f\u5b58\u7387
p605
sg12
g13
sa(dp606
g6
V\u817a\u9cde\u764c
p607
sg8
Vlevel1
p608
sg10
V\u817a\u9cde\u764c
p609
sg12
g13
sa(dp610
g6
V\u68ad\u5f62\u7ec6\u80de\u764c
p611
sg8
Vlevel1
p612
sg10
V\u68ad\u5f62\u7ec6\u80de\u764c
p613
sg12
g13
sa(dp614
g6
V\u9cde\u72b6\u7ec6\u80de\u764c
p615
sg8
Vlevel1
p616
sg10
V\u9cde\u72b6\u7ec6\u80de\u764c
p617
sg12
g13
sa(dp618
g6
V\u672a\u5206\u5316\u764c
p619
sg8
Vlevel1
p620
sg10
V\u672a\u5206\u5316\u764c
p621
sg12
g13
sa(dp622
g6
V\u7b5b\u72b6\u7c89\u523a\u578b\u817a\u764c
p623
sg8
Vlevel2
p624
sg10
V\u7b5b\u72b6\u7c89\u523a\u578b\u817a\u764c
p625
sg12
g13
sa(dp626
g6
V\u9ad3\u6837\u764c
p627
sg8
Vlevel2
p628
sg10
V\u9ad3\u6837\u764c
p629
sg12
g13
sa(dp630
g6
V\u5fae\u4e73\u5934\u764c
p631
sg8
Vlevel2
p632
sg10
V\u5fae\u4e73\u5934\u764c
p633
sg12
g13
sa(dp634
g6
V\u9ecf\u6db2\u817a\u764c
p635
sg8
Vlevel2
p636
sg10
V\u9ecf\u6db2\u817a\u764c
p637
sg12
g13
sa(dp638
g6
V\u952f\u9f7f\u72b6\u817a\u764c
p639
sg8
Vlevel2
p640
sg10
V\u952f\u9f7f\u72b6\u817a\u764c
p641
sg12
g13
sa(dp642
g6
V\u5370\u6212\u7ec6\u80de\u764c
p643
sg8
Vlevel2
p644
sg10
V\u5370\u6212\u7ec6\u80de\u764c
p645
sg12
g13
sa(dp646
g6
V\u9ad8\u7ea7\u522b\u817a\u764c
p647
sg8
Vlevel2
p648
sg10
V\u9ad8\u7ea7\u522b\u817a\u764c
p649
sg12
g13
sa(dp650
g6
V\u4e2d\u7ea7\u522b\u817a\u764c
p651
sg8
Vlevel2
p652
sg10
V\u4e2d\u7ea7\u522b\u817a\u764c
p653
sg12
g13
sa(dp654
g6
V\u4f4e\u7ea7\u522b\u817a\u764c
p655
sg8
Vlevel2
p656
sg10
V\u4f4e\u7ea7\u522b\u817a\u764c
p657
sg12
g13
sa(dp658
g6
V\u817a\u764c
p659
sg8
Vlevel1
p660
sg10
V\u817a\u764c
p661
sg12
g13
sa(dp662
g6
V\u764c\u7ec4\u7ec7\u6d78\u6da6\u9ecf\u819c\u4e0b\u5c42\u4e0a1/3
p663
sg8
Vlevel3
p664
sg10
VSM1
p665
sg12
g13
sa(dp666
g6
V\u764c\u7ec4\u7ec7\u6d78\u6da6\u9ecf\u819c\u4e0b\u5c42\u4e2d1/3
p667
sg8
Vlevel3
p668
sg10
VSM2
p669
sg12
g13
sa(dp670
g6
V\u764c\u7ec4\u7ec7\u6d78\u6da6\u9ecf\u819c\u4e0b\u5c42\u4e0b1/3
p671
sg8
Vlevel3
p672
sg10
VSM3
p673
sg12
g13
sa(dp674
g6
V\u6307\u764c\u7ec4\u7ec7\u6d78\u6da6\u9ecf\u819c\u4e0b\u5c42\u7684\u6df1\u5ea6<1000\u03bcm
p675
sg8
Vlevel4
p676
sg10
V\u6307\u764c\u7ec4\u7ec7\u6d78\u6da6\u9ecf\u819c\u4e0b\u5c42\u7684\u6df1\u5ea6<1000\u03bcm
p677
sg12
g13
sa(dp678
g6
V\u9ecf\u819c\u4e0b\u764c
p679
sg8
Vlevel2
p680
sg10
V\u9ecf\u819c\u4e0b\u764c
p681
sg12
g13
sa(dp682
g6
V\u9ecf\u819c\u5185\u764c
p683
sg8
Vlevel2
p684
sg10
V\u9ecf\u819c\u5185\u764c
p685
sg12
g13
sa(dp686
g6
V\u53c2\u71671998\u5e74\u7ef4\u4e5f\u7eb3\u80c3\u80a0\u4e0a\u76ae\u80bf\u7624\u75c5\u7406\u5206\u578b\u6807\u51c6\uff0c\u6839\u636e\u4e0d\u540c\u5185\u955c\u548c\u75c5\u7406\u8bca\u65ad\uff0c\u9009\u62e9\u4e0d\u540c\u7684\u4e34\u5e8a\u5904\u7406\u65b9\u5f0f (\u88682)
p687
sg8
Vlevel1
p688
sg10
V1998\u5e74\u5206\u578b\u6807\u51c6
p689
sg12
g13
sasVedges
p690
(lp691
(dp692
Vsource
p693
I0
sg8
Vinclude
p694
sVtarget
p695
I2
sVmarker_type
p696
Vlevel2
p697
sS'name'
p698
V\u5305\u542b
p699
sa(dp700
g693
I0
sg8
g694
sg695
I1
sg696
g697
sg698
V\u5206\u7c7b
p701
sa(dp702
g693
I0
sg8
g694
sg695
I4
sg696
g697
sg698
g699
sa(dp703
g693
I4
sg8
g694
sg695
I3
sg696
g697
sg698
g699
sa(dp704
g693
I4
sg8
g694
sg695
I12
sg696
g697
sg698
g699
sa(dp705
g693
I4
sg8
g694
sg695
I13
sg696
g697
sg698
g699
sa(dp706
g693
I4
sg8
g694
sg695
I5
sg696
g697
sg698
g699
sa(dp707
g693
I4
sg8
g694
sg695
I45
sg696
g697
sg698
g699
sa(dp708
g693
I4
sg8
g694
sg695
I46
sg696
g697
sg698
g699
sa(dp709
g693
I5
sg8
g694
sg695
I14
sg696
g697
sg698
g701
sa(dp710
g693
I5
sg8
g694
sg695
I18
sg696
g697
sg698
g701
sa(dp711
g693
I5
sg8
g694
sg695
I25
sg696
g697
sg698
g701
sa(dp712
g693
I5
sg8
g694
sg695
I36
sg696
g697
sg698
g701
sa(dp713
g693
I5
sg8
g694
sg695
I40
sg696
g697
sg698
g699
sa(dp714
g693
I5
sg8
g694
sg695
I28
sg696
g697
sg698
g701
sa(dp715
g693
I3
sg8
g694
sg695
I6
sg696
g697
sg698
g699
sa(dp716
g693
I3
sg8
g694
sg695
I7
sg696
g697
sg698
g699
sa(dp717
g693
I3
sg8
g694
sg695
I8
sg696
g697
sg698
g699
sa(dp718
g693
I3
sg8
g694
sg695
I10
sg696
g697
sg698
g699
sa(dp719
g693
I3
sg8
g694
sg695
I11
sg696
g697
sg698
g699
sa(dp720
g693
I3
sg8
g694
sg695
I9
sg696
g697
sg698
g699
sa(dp721
g693
I14
sg8
g694
sg695
I15
sg696
g697
sg698
g699
sa(dp722
g693
I14
sg8
g694
sg695
I16
sg696
g697
sg698
g699
sa(dp723
g693
I14
sg8
g694
sg695
I17
sg696
g697
sg698
g699
sa(dp724
g693
I18
sg8
g694
sg695
I19
sg696
g697
sg698
g699
sa(dp725
g693
I18
sg8
g694
sg695
I20
sg696
g697
sg698
g699
sa(dp726
g693
I18
sg8
g694
sg695
I21
sg696
g697
sg698
g699
sa(dp727
g693
I18
sg8
g694
sg695
I22
sg696
g697
sg698
g699
sa(dp728
g693
I18
sg8
g694
sg695
I23
sg696
g697
sg698
g699
sa(dp729
g693
I18
sg8
g694
sg695
I24
sg696
g697
sg698
g701
sa(dp730
g693
I25
sg8
g694
sg695
I26
sg696
g697
sg698
g699
sa(dp731
g693
I25
sg8
g694
sg695
I27
sg696
g697
sg698
g699
sa(dp732
g693
I28
sg8
g694
sg695
I29
sg696
g697
sg698
g701
sa(dp733
g693
I28
sg8
g694
sg695
I30
sg696
g697
sg698
g699
sa(dp734
g693
I28
sg8
g694
sg695
I31
sg696
g697
sg698
g701
sa(dp735
g693
I28
sg8
g694
sg695
I32
sg696
g697
sg698
g701
sa(dp736
g693
I28
sg8
g694
sg695
I33
sg696
g697
sg698
g701
sa(dp737
g693
I28
sg8
g694
sg695
I34
sg696
g697
sg698
g699
sa(dp738
g693
I28
sg8
g694
sg695
I35
sg696
g697
sg698
g699
sa(dp739
g693
I36
sg8
g694
sg695
I37
sg696
g697
sg698
g699
sa(dp740
g693
I36
sg8
g694
sg695
I38
sg696
g697
sg698
g699
sa(dp741
g693
I36
sg8
g694
sg695
I39
sg696
g697
sg698
g699
sa(dp742
g693
I40
sg8
g694
sg695
I41
sg696
g697
sg698
g699
sa(dp743
g693
I40
sg8
g694
sg695
I42
sg696
g697
sg698
g699
sa(dp744
g693
I40
sg8
g694
sg695
I43
sg696
g697
sg698
g699
sa(dp745
g693
I40
sg8
g694
sg695
I44
sg696
g697
sg698
g699
sa(dp746
g693
I46
sg8
g694
sg695
I47
sg696
g697
sg698
g699
sa(dp747
g693
I46
sg8
g694
sg695
I55
sg696
g697
sg698
g699
sa(dp748
g693
I47
sg8
g694
sg695
I48
sg696
g697
sg698
g699
sa(dp749
g693
I47
sg8
g694
sg695
I49
sg696
g697
sg698
g699
sa(dp750
g693
I47
sg8
g694
sg695
I50
sg696
g697
sg698
g699
sa(dp751
g693
I47
sg8
g694
sg695
I51
sg696
g697
sg698
g699
sa(dp752
g693
I47
sg8
g694
sg695
I52
sg696
g697
sg698
g699
sa(dp753
g693
I47
sg8
g694
sg695
I53
sg696
g697
sg698
g699
sa(dp754
g693
I47
sg8
g694
sg695
I54
sg696
g697
sg698
g699
sa(dp755
g693
I55
sg8
g694
sg695
I56
sg696
g697
sg698
g699
sa(dp756
g693
I55
sg8
g694
sg695
I57
sg696
g697
sg698
g699
sa(dp757
g693
I55
sg8
g694
sg695
I58
sg696
g697
sg698
g699
sa(dp758
g693
I55
sg8
g694
sg695
I59
sg696
g697
sg698
g699
sa(dp759
g693
I1
sg8
g694
sg695
I60
sg696
g697
sg698
g699
sa(dp760
g693
I60
sg8
g694
sg695
I61
sg696
g697
sg698
g699
sa(dp761
g693
I60
sg8
g694
sg695
I62
sg696
g697
sg698
g699
sa(dp762
g693
I60
sg8
g694
sg695
I74
sg696
g697
sg698
g699
sa(dp763
g693
I60
sg8
g694
sg695
I79
sg696
g697
sg698
g699
sa(dp764
g693
I60
sg8
g694
sg695
I80
sg696
g697
sg698
g699
sa(dp765
g693
I60
sg8
g694
sg695
I81
sg696
g697
sg698
g699
sa(dp766
g693
I60
sg8
g694
sg695
I82
sg696
g697
sg698
g699
sa(dp767
g693
I60
sg8
g694
sg695
I88
sg696
g697
sg698
g699
sa(dp768
g693
I60
sg8
g694
sg695
I96
sg696
g697
sg698
g699
sa(dp769
g693
I60
sg8
g694
sg695
I97
sg696
g697
sg698
g699
sa(dp770
g693
I60
sg8
g694
sg695
I98
sg696
g697
sg698
g699
sa(dp771
g693
I62
sg8
g694
sg695
I63
sg696
g697
sg698
g701
sa(dp772
g693
I62
sg8
g694
sg695
I64
sg696
g697
sg698
g699
sa(dp773
g693
I62
sg8
g694
sg695
I69
sg696
g697
sg698
g699
sa(dp774
g693
I62
sg8
g694
sg695
I73
sg696
g697
sg698
g699
sa(dp775
g693
I64
sg8
g694
sg695
I65
sg696
g697
sg698
g699
sa(dp776
g693
I64
sg8
g694
sg695
I66
sg696
g697
sg698
g699
sa(dp777
g693
I64
sg8
g694
sg695
I67
sg696
g697
sg698
g699
sa(dp778
g693
I64
sg8
g694
sg695
I68
sg696
g697
sg698
g699
sa(dp779
g693
I69
sg8
g694
sg695
I70
sg696
g697
sg698
g699
sa(dp780
g693
I69
sg8
g694
sg695
I71
sg696
g697
sg698
g699
sa(dp781
g693
I69
sg8
g694
sg695
I72
sg696
g697
sg698
g699
sa(dp782
g693
I74
sg8
g694
sg695
I75
sg696
g697
sg698
g699
sa(dp783
g693
I74
sg8
g694
sg695
I76
sg696
g697
sg698
g699
sa(dp784
g693
I74
sg8
g694
sg695
I77
sg696
g697
sg698
g699
sa(dp785
g693
I74
sg8
g694
sg695
I78
sg696
g697
sg698
g699
sa(dp786
g693
I82
sg8
g694
sg695
I83
sg696
g697
sg698
g699
sa(dp787
g693
I82
sg8
g694
sg695
I84
sg696
g697
sg698
g701
sa(dp788
g693
I84
sg8
g694
sg695
I85
sg696
g697
sg698
g699
sa(dp789
g693
I84
sg8
g694
sg695
I86
sg696
g697
sg698
g701
sa(dp790
g693
I84
sg8
g694
sg695
I87
sg696
g697
sg698
g699
sa(dp791
g693
I88
sg8
g694
sg695
I89
sg696
g697
sg698
g699
sa(dp792
g693
I88
sg8
g694
sg695
I92
sg696
g697
sg698
g699
sa(dp793
g693
I88
sg8
g694
sg695
I95
sg696
g697
sg698
g699
sa(dp794
g693
I89
sg8
g694
sg695
I90
sg696
g697
sg698
g699
sa(dp795
g693
I89
sg8
g694
sg695
I91
sg696
g697
sg698
g699
sa(dp796
g693
I92
sg8
g694
sg695
I93
sg696
g697
sg698
g699
sa(dp797
g693
I92
sg8
g694
sg695
I94
sg696
g697
sg698
g699
sa(dp798
g693
I0
sg8
g694
sg695
I99
sg696
g697
sg698
g699
sa(dp799
g693
I0
sg8
g694
sg695
I107
sg696
g697
sg698
g699
sa(dp800
g693
I0
sg8
g694
sg695
I108
sg696
g697
sg698
g699
sa(dp801
g693
I99
sg8
g694
sg695
I100
sg696
g697
sg698
g701
sa(dp802
g693
I99
sg8
g694
sg695
I101
sg696
g697
sg698
g699
sa(dp803
g693
I99
sg8
g694
sg695
I102
sg696
g697
sg698
g699
sa(dp804
g693
I99
sg8
g694
sg695
I103
sg696
g697
sg698
g699
sa(dp805
g693
I99
sg8
g694
sg695
I104
sg696
g697
sg698
g699
sa(dp806
g693
I99
sg8
g694
sg695
I105
sg696
g697
sg698
g699
sa(dp807
g693
I99
sg8
g694
sg695
I106
sg696
g697
sg698
g699
sa(dp808
g693
I0
sg8
g694
sg695
I109
sg696
g697
sg698
g699
sa(dp809
g693
I109
sg8
g694
sg695
I110
sg696
g697
sg698
g699
sa(dp810
g693
I109
sg8
g694
sg695
I111
sg696
g697
sg698
g699
sa(dp811
g693
I109
sg8
g694
sg695
I115
sg696
g697
sg698
g699
sa(dp812
g693
I109
sg8
g694
sg695
I116
sg696
g697
sg698
g699
sa(dp813
g693
I109
sg8
g694
sg695
I117
sg696
g697
sg698
g699
sa(dp814
g693
I109
sg8
g694
sg695
I118
sg696
g697
sg698
g699
sa(dp815
g693
I109
sg8
g694
sg695
I119
sg696
g697
sg698
g699
sa(dp816
g693
I109
sg8
g694
sg695
I120
sg696
g697
sg698
g699
sa(dp817
g693
I109
sg8
g694
sg695
I121
sg696
g697
sg698
g699
sa(dp818
g693
I111
sg8
g694
sg695
I112
sg696
g697
sg698
g699
sa(dp819
g693
I111
sg8
g694
sg695
I113
sg696
g697
sg698
g699
sa(dp820
g693
I111
sg8
g694
sg695
I114
sg696
g697
sg698
g701
sa(dp821
g693
I1
sg8
g694
sg695
I122
sg696
g697
sg698
g699
sa(dp822
g693
I122
sg8
g694
sg695
I123
sg696
g697
sg698
g699
sa(dp823
g693
I122
sg8
g694
sg695
I124
sg696
g697
sg698
g701
sa(dp824
g693
I122
sg8
g694
sg695
I125
sg696
g697
sg698
g701
sa(dp825
g693
I122
sg8
g694
sg695
I126
sg696
g697
sg698
g699
sa(dp826
g693
I122
sg8
g694
sg695
I127
sg696
g697
sg698
g701
sa(dp827
g693
I122
sg8
g694
sg695
I128
sg696
g697
sg698
g699
sa(dp828
g693
I128
sg8
g694
sg695
I129
sg696
g697
sg698
g699
sa(dp829
g693
I128
sg8
g694
sg695
I130
sg696
g697
sg698
g699
sa(dp830
g693
I128
sg8
g694
sg695
I131
sg696
g697
sg698
g699
sa(dp831
g693
I128
sg8
g694
sg695
I132
sg696
g697
sg698
g699
sa(dp832
g693
I128
sg8
g694
sg695
I133
sg696
g697
sg698
g699
sa(dp833
g693
I128
sg8
g694
sg695
I134
sg696
g697
sg698
g699
sa(dp834
g693
I128
sg8
g694
sg695
I137
sg696
g697
sg698
g699
sa(dp835
g693
I128
sg8
g694
sg695
I138
sg696
g697
sg698
g699
sa(dp836
g693
I128
sg8
g694
sg695
I139
sg696
g697
sg698
g699
sa(dp837
g693
I128
sg8
g694
sg695
I140
sg696
g697
sg698
g699
sa(dp838
g693
I128
sg8
g694
sg695
I141
sg696
g697
sg698
g699
sa(dp839
g693
I134
sg8
g694
sg695
I135
sg696
g697
sg698
g701
sa(dp840
g693
I134
sg8
g694
sg695
I136
sg696
g697
sg698
g701
sa(dp841
g693
I0
sg8
g694
sg695
I142
sg696
g697
sg698
g699
sa(dp842
g693
I142
sg8
g694
sg695
I143
sg696
g697
sg698
g699
sa(dp843
g693
I142
sg8
g694
sg695
I148
sg696
g697
sg698
g699
sa(dp844
g693
I142
sg8
g694
sg695
I144
sg696
g697
sg698
g699
sa(dp845
g693
I142
sg8
g694
sg695
I145
sg696
g697
sg698
g699
sa(dp846
g693
I142
sg8
g694
sg695
I146
sg696
g697
sg698
g699
sa(dp847
g693
I142
sg8
g694
sg695
I147
sg696
g697
sg698
g699
sa(dp848
g693
I0
sg8
g694
sg695
I1
sg696
g697
sg698
g701
sa(dp849
g693
I0
sg8
g694
sg695
I162
sg696
g697
sg698
g701
sa(dp850
g693
I0
sg8
g694
sg695
I149
sg696
g697
sg698
g701
sa(dp851
g693
I0
sg8
g694
sg695
I150
sg696
g697
sg698
g701
sa(dp852
g693
I0
sg8
g694
sg695
I151
sg696
g697
sg698
g701
sa(dp853
g693
I0
sg8
g694
sg695
I152
sg696
g697
sg698
g701
sa(dp854
g693
I162
sg8
g694
sg695
I153
sg696
g697
sg698
g701
sa(dp855
g693
I162
sg8
g694
sg695
I154
sg696
g697
sg698
g701
sa(dp856
g693
I162
sg8
g694
sg695
I155
sg696
g697
sg698
g701
sa(dp857
g693
I162
sg8
g694
sg695
I156
sg696
g697
sg698
g701
sa(dp858
g693
I162
sg8
g694
sg695
I157
sg696
g697
sg698
g701
sa(dp859
g693
I162
sg8
g694
sg695
I158
sg696
g697
sg698
g701
sa(dp860
g693
I162
sg8
g694
sg695
I159
sg696
g697
sg698
g701
sa(dp861
g693
I162
sg8
g694
sg695
I160
sg696
g697
sg698
g701
sa(dp862
g693
I162
sg8
g694
sg695
I161
sg696
g697
sg698
g701
sa(dp863
g693
I1
sg8
g694
sg695
I168
sg696
g697
sg698
g701
sa(dp864
g693
I1
sg8
g694
sg695
I167
sg696
g697
sg698
g701
sa(dp865
g693
I163
sg8
g694
sg695
I166
sg696
g697
sg698
g699
sa(dp866
g693
I167
sg8
g694
sg695
I163
sg696
g697
sg698
g699
sa(dp867
g693
I167
sg8
g694
sg695
I164
sg696
g697
sg698
g699
sa(dp868
g693
I167
sg8
g694
sg695
I165
sg696
g697
sg698
g699
sa(dp869
g693
I0
sg8
g694
sg695
I169
sg696
g697
sg698
g699
sass.