(dp0
V\u6d41\u884c\u6027\u611f\u5192\u6cbb\u7597\u65b9\u6848
p1
(dp2
Vnodes
p3
(lp4
(dp5
S'content'
p6
V\u8bca\u7597\u65b9\u6848
p7
sS'name'
p8
V\u6d41\u884c\u6027\u611f\u5192
p9
sS'ID'
p10
S'0'
p11
sa(dp12
g6
S''
p13
sg8
V\u57fa\u672c\u539f\u5219
p14
sg10
V1
p15
sa(dp16
g6
g13
sg8
V\u5bf9\u4e34\u5e8a\u8bca\u65ad\u75c5\u4f8b\u548c\u786e\u8bca\u75c5\u4f8b\u5e94\u5c3d\u65e9\u9694\u79bb\u6cbb\u7597\u3002
p17
sg10
V1.1
p18
sa(dp19
g6
g13
sg8
V\u4f4f\u9662\u6cbb\u7597\u6807\u51c6(\u6ee1\u8db3\u4e0b\u5217\u6807\u51c61\u6761\u62161\u6761\u4ee5\u4e0a):
p20
sg10
V1.2
p21
sa(dp22
g6
g13
sg8
V(1)\u598a\u5a20\u4e2d\u665a\u671f\u5987\u5973\u3002
p23
sg10
V1.2.1
p24
sa(dp25
g6
g13
sg8
V(2)\u57fa\u7840\u75be\u75c5\u660e\u663e\u52a0\u91cd,\u5982:\u6162\u6027\u963b\u585e\u6027\u80ba\u75be\u75c5\u3001\u7cd6\u5c3f\u75c5\u3001\u6162\u6027\u5fc3\u529f\u80fd\u4e0d\u5168\u3001\u6162\u6027\u80be\u529f\u80fd\u4e0d\u5168\u3001\u809d\u786c\u5316\u7b49\u3002
p26
sg10
V1.2.2
p27
sa(dp28
g6
g13
sg8
V(3)\u7b26\u5408\u91cd\u75c7\u6216\u5371\u91cd\u6d41\u611f\u8bca\u65ad\u6807\u51c6\u3002
p29
sg10
V1.2.3
p30
sa(dp31
g6
g13
sg8
V(4)\u4f34\u6709\u5668\u5b98\u529f\u80fd\u969c\u788d\u3002
p32
sg10
V1.2.4
p33
sa(dp34
g6
g13
sg8
V\u975e\u4f4f\u9662\u60a3\u8005\u5c45\u5bb6\u9694\u79bb,\u4fdd\u6301\u623f\u95f4\u901a\u98ce\u3002\u5145\u5206\u4f11\u606f,\u591a\u996e\u6c34,\u996e\u98df\u5e94\u5f53\u6613\u4e8e\u6d88\u5316\u548c\u5bcc\u6709\u8425\u517b\u3002\u5bc6\u5207\u89c2\u5bdf\u75c5\u60c5\u53d8\u5316,\u5c24\u5176\u662f\u513f\u7ae5\u548c\u8001\u5e74\u60a3\u8005\u3002
p35
sg10
V1.3
p36
sa(dp37
g6
g13
sg8
V\u6d41\u611f\u75c5\u6bd2\u611f\u67d3\u9ad8\u5371\u4eba\u7fa4\u5bb9\u6613\u5f15\u53d1\u91cd\u75c7\u6d41\u611f,\u5c3d\u65e9\u6297\u75c5\u6bd2\u6cbb\u7597\u53ef\u51cf\u8f7b\u6d41\u611f\u75c7\u72b6,\u7f29\u77ed\u6d41\u611f\u75c5\u7a0b,\u964d\u4f4e\u91cd\u75c7\u6d41\u611f\u7684\u75c5\u6b7b\u7387\u3002
p38
sg10
V1.4
p39
sa(dp40
g6
g13
sg8
V\u907f\u514d\u76f2\u76ee\u6216\u4e0d\u6021\u5f53\u4f7f\u7528\u6297\u83cc\u836f\u7269\u3002\u4ec5\u5728\u6d41\u611f\u7ee7\u53d1\u7ec6\u83cc\u6027\u80ba\u708e\u3001\u4e2d\u8033\u708e\u548c\u9f3b\u7aa6\u708e\u7b49\u65f6\u624d\u6709\u4f7f\u7528\u6297\u751f\u7d20\u7684\u6307\u5f81\u3002
p41
sg10
V1.5
p42
sa(dp43
g6
g13
sg8
V\u513f\u7ae5\u5fcc\u7528\u963f\u53f8\u5339\u6797\u6216\u542b\u963f\u53f8\u5339\u6797\u836f\u7269\u4ee5\u53ca\u5176\u4ed6\u6c34\u6768\u9178\u5236\u5242\u3002
p44
sg10
V1.6
p45
sa(dp46
g6
g13
sg8
V\u5bf9\u75c7\u6cbb\u7597
p47
sg10
V2
p48
sa(dp49
g6
g13
sg8
V\u9ad8\u70ed\u8005\u53ef\u8fdb\u884c\u7269\u7406\u964d\u6e29,\u6216\u5e94\u7528\u89e3\u70ed\u836f\u7269\u3002\u54b3\u55fd\u54b3\u75f0\u4e25\u91cd\u8005\u7ed9\u4e88\u6b62\u54b3\u795b\u75f0\u836f\u7269\u3002\u6839\u636e\u7f3a\u6c27\u7a0b\u5ea6\u53ef\u91c7\u7528\u9f3b\u5bfc\u7ba1\u3001\u5f00\u653e\u9762\u7f69\u53ca\u50a8\u6c27\u9762\u7f69\u8fdb\u884c\u6c27\u7597\u3002
p50
sg10
V2.1
p51
sa(dp52
g6
V\u6cbb\u7597\u539f\u5219:\u79ef\u6781\u6cbb\u7597\u539f\u53d1\u75c5,\u9632\u6cbb\u5e76\u53d1\u75c7,\u5e76\u8fdb\u884c\u6709\u6548\u7684\u5668\u5b98\u529f\u80fd\u652f\u6301\u3002\u000a
p53
sg8
V\u91cd\u75c7\u75c5\u4f8b\u7684\u6cbb\u7597
p54
sg10
V3
p55
sa(dp56
g6
g13
sg8
V\u5982\u51fa\u73b0\u4f4e\u6c27\u8840\u75c7\u6216\u547c\u5438\u8870\u7aed,\u5e94\u53ca\u65f6\u7ed9\u4e88\u76f8\u5e94\u7684\u6cbb\u7597\u63aa\u65bd,\u5305\u62ec\u6c27\u7597\u6216\u673a\u68b0\u901a\u6c14\u7b49\u3002
p57
sg10
V3.1
p58
sa(dp59
g6
g13
sg8
V\u5408\u5e76\u4f11\u514b\u65f6\u7ed9\u4e88\u76f8\u5e94\u6297\u4f11\u514b\u6cbb\u7597\u3002
p60
sg10
V3.2
p61
sa(dp62
g6
g13
sg8
V\u51fa\u73b0\u5176\u4ed6\u810f\u5668\u529f\u80fd\u635f\u5bb3\u65f6,\u7ed9\u4e88\u76f8\u5e94\u652f\u6301\u6cbb\u7597\u3002
p63
sg10
V3.3
p64
sa(dp65
g6
g13
sg8
V\u51fa\u73b0\u7ee7\u53d1\u611f\u67d3\u65f6,\u7ed9\u4e88\u76f8\u5e94\u6297\u611f\u67d3\u6cbb\u7597\u3002
p66
sg10
V3.4
p67
sa(dp68
g6
g13
sg8
V\u6297\u6d41\u611f\u75c5\u6bd2\u6cbb\u7597\u65f6\u673a
p69
sg10
V4
p70
sa(dp71
g6
g13
sg8
V\u53d1\u75c548h\u5185\u8fdb\u884c\u6297\u75c5\u6bd2\u6cbb\u7597\u53ef\u51cf\u5c11\u6d41\u611f\u5e76\u53d1\u75c7\u3001\u964d\u4f4e\u4f4f\u9662\u60a3\u8005\u7684\u75c5\u6b7b\u7387\u3001\u7f29\u77ed\u4f4f\u9662\u65f6\u95f4,\u53d1\u75c5\u65f6\u95f4\u8d85\u8fc748h\u7684\u91cd\u75c7\u60a3\u8005\u4f9d\u7136\u80fd\u4ece\u6297\u75c5\u6bd2\u6cbb\u7597\u4e2d\u83b7\u76ca\u3002
p72
sg10
V4.1
p73
sa(dp74
g6
g13
sg8
V\u91cd\u75c7\u6d41\u611f\u9ad8\u5371\u4eba\u7fa4\u53ca\u91cd\u75c7\u60a3\u8005,\u5e94\u5c3d\u65e9(\u53d1\u75c548h\u5185)\u7ed9\u4e88\u6297\u6d41\u611f\u75c5\u6bd2\u6cbb\u7597,\u4e0d\u5fc5\u7b49\u5f85\u75c5\u6bd2\u68c0\u6d4b\u7ed3\u679c;\u5982\u679c\u53d1\u75c5\u65f6\u95f4\u8d85\u8fc748h,\u75c7\u72b6\u65e0\u6539\u5584\u6216\u5448\u6076\u5316\u503e\u5411\u65f6\u4e5f\u5e94\u8fdb\u884c\u6297\u6d41\u611f\u75c5\u6bd2\u6cbb\u7597\u3002
p75
sg10
V4.2
p76
sa(dp77
g6
g13
sg8
V\u65e0\u91cd\u75c7\u6d41\u611f\u9ad8\u5371\u56e0\u7d20\u7684\u60a3\u8005,\u53d1\u75c5\u65f6\u95f4\u4e0d\u8db348h,\u4e3a\u7f29\u77ed\u75c5\u7a0b\u3001\u51cf\u5c11\u5e76\u53d1\u75c7\u4e5f\u53ef\u4ee5\u6297\u75c5\u6bd2\u6cbb\u7597\u3002
p78
sg10
V4.3
p79
sa(dp80
g6
V\u795e\u7ecf\u6c28\u9178\u9176\u6291\u5236\u5242(NAD\u5bf9\u7532\u578b\u3001\u4e59\u578b\u6d41\u611f\u5747\u6709\u6548\u3002\u79bb\u5b50\u901a\u9053M2\u963b\u6ede\u5242\u91d1\u521a\u70f7\u80fa\u548c\u91d1\u521a\u4e59\u80fa\u4ec5\u5bf9\u7532\u578b\u6d41\u611f\u75c5\u6bd2\u6709\u6548,\u4f46\u76ee\u524d\u76d1\u6d4b\u8d44\u6599\u663e\u793a\u7532\u578b\u6d41\u611f\u75c5\u6bd2\u5bf9\u5176\u8010\u836f\uff0c\u4e0d\u5efa\u8bae\u4f7f\u7528\u3002\u000a
p81
sg8
V\u6297\u6d41\u611f\u75c5\u6bd2\u836f\u7269
p82
sg10
V5
p83
sa(dp84
g6
V\u6210\u4eba\u5242\u91cf\u6bcf\u6b2175mg,\u6bcf\u65e52\u6b21,\u7597\u7a0b5\u5929,\u91cd\u75c7\u75c5\u4f8b\u5242\u91cf\u53ef\u52a0\u500d,\u7597\u7a0b\u53ef\u5ef6\u957f\u3002\u80be\u529f\u80fd\u4e0d\u5168\u8005\u8981\u6839\u636e\u80be\u529f\u80fd\u8c03\u6574\u5242\u91cf\u30021\u5c81\u53ca\u4ee5\u4e0a\u5e74\u9f84\u7684\u513f\u7ae5\u5e94\u6839\u636e\u4f53\u91cd\u7ed9\u836f:\u4f53\u91cd\u4e0d\u8db315Kg\u8005,\u4e8830mg\u6bcf\u65e52\u6b21;\u4f53\u91cd15~23Kg\u8005,\u4e8845mg\u6bcf\u65e52\u6b21;\u4f53\u91cd23~40Kg\u8005,\u4e8860mg\u6bcf\u65e52\u6b21;\u4f53\u91cd\u5927\u4e8e40Kg\u8005,\u4e8875mg\u6bcf\u65e52\u6b21\u3002\u5bf9\u4e8e\u541e\u54bd\u80f6\u56ca\u6709\u56f0\u96be\u7684\u513f\u7ae5,\u53ef\u9009\u7528\u5965\u53f8\u4ed6\u97e6\u9897\u7c92\u5242\u3002\u5bf9\u7528\u836f\u8fc7\u7a0b\u4e2d\u65e0\u6548\u6216\u75c5\u60c5\u52a0\u91cd\u7684\u60a3\u8005,\u8981\u6ce8\u610f\u662f\u5426\u51fa\u73b0\u8010\u836f\u3002\u000a
p85
sg8
V\u5965\u53f8\u4ed6\u97e6
p86
sg10
V5.1
p87
sa(dp88
g6
V\u9002\u7528\u4e8e\u4e8e\u6210\u4eba\u53ca7\u5c81\u4ee5\u4e0a\u9752\u5c11\u5e74,\u7528\u6cd5:\u6bcf\u65e52\u6b21,\u95f4\u969412\u5c0f\u65f6;\u6bcf\u6b2110mg(\u5206\u4e24\u6b21\u5438\u5165)\u3002\u4f46\u5438\u5165\u5242\u4e0d\u5efa\u8bae\u7528\u4e8e\u91cd\u75c7\u6216\u6709\u5e76\u53d1\u75c7\u7684\u60a3\u8005\u3002\u000a
p89
sg8
V\u624e\u90a3\u7c73\u97e6
p90
sg10
V5.2
p91
sa(dp92
g6
V\u6210\u4eba\u7528\u91cf\u4e3a300~600mg,\u5c0f\u4e8e30d\u65b0\u751f\u513f6mg/kg,31-90d\u5a74\u513f8mg/kg,91d-17\u5c81\u513f\u91cf10mg/kg,\u9759\u8109\u6ef4\u6ce8,\u6bcf\u65e51\u6b21,1~5\u5929,\u91cd\u75c7\u75c5\u4f8b\u7597\u7a0b\u53ef\u9002\u5f53\u5ef6\u957f\u3002\u76ee\u524d\u4e34\u5e8a\u5e94\u7528\u6570\u636e\u6709\u9650,\u5e94\u4e25\u5bc6\u89c2\u5bdf\u4e0d\u826f\u53cd\u5e94\u3002\u000a\u000a
p93
sg8
V\u5e15\u62c9\u7c73\u97e6
p94
sg10
V5.3
p95
sa(dp96
g6
g13
sg8
V\u4e2d\u533b\u6cbb\u7597-\u8f7b\u75c7\u8fa8\u8bc1\u6cbb\u7597\u65b9\u6848
p97
sg10
V6
p98
sa(dp99
g6
g13
sg8
V\u98ce\u70ed\u53cd\u80c3
p100
sg10
V6.1
p101
sa(dp102
g6
V\u53d1\u75c5\u521d\u671f,\u53d1\u70ed\u6216\u672a\u53d1\u70ed,\u54bd\u7ea2\u4e0d\u9002,\u8f7b\u54b3\u5c11\u75f0,\u65e0\u6c57
p103
sg8
V\u4e3b\u75c7
p104
sg10
V6.1.1
p105
sa(dp106
g6
V\u820c\u8d28\u7ea2,\u82d4\u8584\u6216\u8584\u817b,\u8109\u6d6e\u6570
p107
sg8
V\u820c\u8109
p108
sg10
V6.1.2
p109
sa(dp110
g6
V\u758f\u98ce\u89e3\u8868,\u6e05\u70ed\u89e3\u6bd2
p111
sg8
V\u6cbb\u6cd5
p112
sg10
V6.1.3
p113
sa(dp114
g6
V\u94f6\u7fd8\u6563\u5408\u6851\u83ca\u996e\u52a0\u51cf\uff1b\u94f6\u82b115g\u8fde\u7fd815g\u6851\u53f610g\uff1b\u83ca\u82b110g\u6854\u689710g\u725b\u84a1\u5b5015g\uff1b\u7af9\u53f66g\u82a6\u683930g\uff1b\u8584\u8377(\u540e\u4e0b)3g\u751f\u7518\u83493g\u3002
p115
sg8
V\u57fa\u672c\u65b9\u836f
p116
sg10
V6.1.4
p117
sa(dp118
g6
V\u6c34\u714e\u670d,\u6bcf\u5242\u6c34\u714e400\u6beb\u5347,\u6bcf\u6b21\u53e3\u670d200\u6beb\u5347,1\u65e52\u6b21;\u5fc5\u8981\u65f6\u53ef\u65e5\u670d2\u5242,\u6bcf6\u5c0f\u65f6\u53e3\u670d1\u6b21,\u6bcf\u6b21200\u6beb\u5347\u3002
p119
sg8
V\u714e\u670d\u6cd5
p120
sg10
V6.1.5
p121
sa(dp122
g6
V\u82d4\u539a\u817b\u52a0\u970d\u999910g\u3001\u4f69\u517010g;\u54b3\u55fd\u91cd\u52a0\u674f\u4ec110g\u3001\u7099\u6787\u6777\u53f610g;\u8179\u6cfb\u52a0\u9ec4\u8fde6g\u3001\u6728\u99993g;\u54bd\u75db\u91cd\u52a0\u9526\u706f\u7b3c9g\u3001\u7384\u53c215g\u3002\u82e5\u5455\u5410\u53ef\u5148\u7528\u9ec4\u8fde6g,\u82cf\u53f610g\u6c34\u714e\u9891\u670d\u3002
p123
sg8
V\u52a0\u51cf
p124
sg10
V6.1.6
p125
sa(dp126
g6
V\u758f\u98ce\u89e3\u8868\u3001\u6e05\u70ed\u89e3\u6bd2\u7c7b,\u5982\u91d1\u82b1\u6e05\u611f\u9897\u7c92\u3001\u8fde\u82b1\u6e05\u761f\u80f6\u56ca\u3001\u6e05\u5f00\u7075\u9897\u7c92(\u53e3\u670d\u6db2)\u3001\u758f\u98ce\u89e3\u6bd2\u80f6\u56ca\u3001\u94f6\u7fd8\u89e3\u6bd2\u7c7b\u3001\u6851\u83ca\u611f\u5192\u7c7b\u7b49\u3002\u513f\u7ae5\u53ef\u9009\u513f\u7ae5\u6297\u611f\u9897\u7c92\u3001\u5c0f\u513f\u8c49\u7fd8\u6e05\u70ed\u9897\u7c92\u7b49\u3002
p127
sg8
V\u5e38\u7528\u4e2d\u6210\u836f
p128
sg10
V6.1.7
p129
sa(dp130
g6
g13
sg8
V\u70ed\u6bd2\u88ad\u80ba
p131
sg10
V6.2
p132
sa(dp133
g6
V\u9ad8\u70ed,\u54b3\u55fd,\u75f0\u7c98\u54af\u75f0\u4e0d\u723d,\u53e3\u6e34\u559c\u996e,\u54bd\u75db,\u76ee\u8d64\u3002
p134
sg8
V\u4e3b\u75c7
p135
sg10
V6.2.1
p136
sa(dp137
g6
V\u820c\u8d28\u7ea2,\u82d4\u9ec4\u6216\u817b,\u8109\u6ed1\u6570
p138
sg8
V\u820c\u8109
p139
sg10
V6.2.2
p140
sa(dp141
g6
V\u6e05\u70ed\u89e3\u6bd2,\u5ba3\u80ba\u6b62\u54b3\u3002
p142
sg8
V\u6cbb\u6cd5
p143
sg10
V6.2.3
p144
sa(dp145
g6
V\u9ebb\u674f\u77f3\u7518\u6c64\u52a0\u51cf\uff1b\u7099\u9ebb\u9ec45g\u674f\u4ec110g\uff1b\u751f\u77f3\u818f(\u5148\u714e)35g\u77e5\u6bcd10g\uff1b\u6d59\u8d1d\u6bcd10g\u6854\u689710g\u9ec4\u82a915g\uff1b\u67f4\u80e115g\u751f\u7518\u834910g\u3002
p146
sg8
V\u57fa\u672c\u65b9\u836f
p147
sg10
V6.2.4
p148
sa(dp149
g6
V\u6c34\u714e\u670d,\u6bcf\u5242\u6c34\u714e400\u6beb\u5347,\u6bcf\u6b21\u53e3\u670d200\u6beb\u5347,1\u65e52\u6b21;\u5fc5\u8981\u65f6\u53ef\u65e5\u670d2\u5242,\u6bcf6\u5c0f\u65f6\u53e3\u670d1\u6b21,\u6bcf\u6b21200\u6beb\u5347\u3002
p150
sg8
V\u714e\u670d\u6cd5
p151
sg10
V6.2.5
p152
sa(dp153
g6
V\u4fbf\u79d8\u52a0\u751f\u5927\u9ec4(\u540e\u4e0b)6g; \u6301\u7eed\u9ad8\u70ed\u52a0\u9752\u84bf15g\u3001\u4e39\u76ae10g\u3002
p154
sg8
V\u52a0\u51cf
p155
sg10
V6.2.6
p156
sa(dp157
g6
V\u6e05\u70ed\u89e3\u6bd2\u3001\u5ba3\u80ba\u6b62\u54b3\u7c7b,\u5982\u8fde\u82b1\u6e05\u761f\u80f6\u56ca\u3001\u94f6\u9ec4\u7c7b\u5236\u5242\u3001\u83b2\u82b1\u6e05\u70ed\u7c7b\u5236\u5242\u7b49\u3002\u513f\u7ae5\u53ef\u9009\u5c0f\u513f\u80ba\u70ed\u54b3\u5598\u9897\u7c92(\u53e3\u670d\u6db2)\u3001\u5c0f\u513f\u54b3\u5598\u7075\u9897\u7c92(\u53e3\u670d\u6db2)\u3001\u7f9a\u7f8a\u89d2\u7c89\u51b2\u670d\u3002
p158
sg8
V\u5e38\u7528\u4e2d\u6210\u836f
p159
sg10
V6.2.7
p160
sa(dp161
g6
g13
sg8
V\u6bd2\u70ed\u58c5\u80ba
p162
sg10
V6.3
p163
sa(dp164
g6
V\u9ad8\u70ed\u4e0d\u9000,\u54b3\u55fd\u91cd,\u5c11\u75f0\u6216\u65e0\u75f0,\u5598\u4fc3\u3002\u77ed\u6c14\u5934\u8eab\u75db;\u6216\u4f34\u5fc3\u60b8,\u8e81\u6270\u4e0d\u5b89\u3002
p165
sg8
V\u4e3b\u75c7
p166
sg10
V6.3.1
p167
sa(dp168
g6
V\u820c\u8d28\u7ea2,\u82d4\u8584\u9ec4\u6216\u817b,\u8109\u5f26\u6570\u3002
p169
sg8
V\u820c\u8109
p170
sg10
V6.3.2
p171
sa(dp172
g6
V\u89e3\u6bd2\u6e05\u70ed,\u6cfb\u80ba\u6d3b\u7edc,
p173
sg8
V\u6cbb\u6cd5
p174
sg10
V6.3.3
p175
sa(dp176
g6
V\u5ba3\u767d\u627f\u6c14\u6c64\u52a0\u51cf\uff1b\u7099\u9ebb\u9ec46g\u751f\u77f3\u818f(\u5148\u714e)45g\uff1b\u674f\u4ec19g\u77e5\u6bcd10g\uff1b\u9c7c\u8165\u834915g\u6500\u82c8\u5b5010g\uff1b\u9c7c\u8165\u834915g\u6500\u82c8\u5b5010g\uff1b\u9ec4\u82d310g\u6d59\u8d1d\u6bcd10g\uff1b\u751f\u5927\u9ec4(\u540e\u4e0b)6g\u9752\u84bf15g\uff1b\u8d64\u828d10g\u751f\u7518\u83493g\uff1b\u714e\u670d\u6cd5\uff1a\u6c34\u714e\u670d,\u6bcf\u5242\u6c34\u714e400\u6beb\u5347,\u6bcf\u6b21\u53e3\u670d200\u6beb\u5347,1\u65e52\u6b21;\u5fc5\u8981\u65f6\u53ef\u65e5\u670d2\u5242,\u6bcf6\u5c0f\u65f6\u53e3\u670d1\u6b21,\u6bcf\u6b21200\u6beb\u5347\u3002\u4e5f\u53ef\u9f3b\u9972\u6216\u7ed3\u80a0\u6ef4\u6ce8\u3002
p177
sg8
V\u57fa\u672c\u65b9\u836f
p178
sg10
V6.3.4
p179
sa(dp180
g6
V\u6301\u7eed\u9ad8\u70ed\u52a0\u7f9a\u7f8a\u89d2\u7c890.6g(\u5206\u51b2)\u3001\u5b89\u5bab\u725b\u9ec4\u4e381\u4e38; \u8179\u80c0\u4fbf\u79d8\u52a0\u67b3\u5b9e9g\u3001\u5143\u660e\u7c896g(\u5206\u51b2); \u5598\u4fc3\u52a0\u91cd\u4f34\u6709\u6c57\u51fa\u4e4f\u529b\u8005\u52a0\u897f\u6d0b\u53c210g\u3001\u4e94\u5473\u5b506g\u3002
p181
sg8
V\u52a0\u51cf
p182
sg10
V6.3.5
p183
sa(dp184
g6
g13
sg8
V\u6bd2\u70ed\u5185\u9677\u5185\u95ed\u5916\u8131
p185
sg10
V6.4
p186
sa(dp187
g6
V\u795e\u8bc6\u660f\u8499\u3001\u6de1\u6f20,\u53e3\u5507\u722a\u7532\u7d2b\u6697,\u547c\u5438\u6d45\u4fc3,\u54af\u7c89\u7ea2\u8272\u8840\u6c34,\u80f8\u8179\u707c\u70ed,\u56db\u80a2\u53a5\u51b7,\u6c57\u51fa,\u5c3f\u5c11\u3002
p188
sg8
V\u4e3b\u75c7
p189
sg10
V6.4.1
p190
sa(dp191
g6
V\u820c\u7ea2\u7edb\u6216\u6697\u6de1,\u8109\u6c89\u7ec6\u6570\u3002
p192
sg8
V\u820c\u8109
p193
sg10
V6.4.2
p194
sa(dp195
g6
V\u76ca\u6c14\u56fa\u8131,\u6e05\u70ed\u89e3\u6bd2\u3002
p196
sg8
V\u6cbb\u6cd5
p197
sg10
V6.4.3
p198
sa(dp199
g6
V\u53c2\u9644\u6c64\u52a0\u51cf\uff1b\u751f\u6652\u53c215g\u70ae\u9644\u5b50(\u5148\u714e)10g\uff1b\u9ec4\u8fde6g\u91d1\u94f6\u82b120g\uff1b\u751f\u5927\u9ec46g\u9752\u84bf15g\uff1b\u5c71\u8438\u808915g\u67b3\u5b9e10g\uff1b\u714e\u670d\u6cd5\uff1a\u6c34\u714e\u670d,\u6bcf\u5242\u6c34\u714e400\u6beb\u5347,\u6bcf\u6b21\u53e3\u670d200\u6beb\u5347,1\u65e52\u6b21;\u5fc5\u8981\u65f6\u53ef\u65e5\u670d2\u5242,\u6bcf6\u5c0f\u65f6\u53e3\u670d1\u6b21,\u6bcf\u6b21200\u6beb\u5347\u3002\u4e5f\u53ef\u9f3b\u9972\u6216\u7ed3\u80a0\u6ef4\u6ce8\u3002
p200
sg8
V\u57fa\u672c\u65b9\u836f
p201
sg10
V6.4.4
p202
sa(dp203
g6
g13
sg8
V\u6c14\u9634\u4e24\u865a,\u6b63\u6c14\u672a\u590d
p204
sg10
V6.5
p205
sa(dp206
g6
V\u795e\u5026\u4e4f\u529b,\u6c14\u77ed,\u54b3\u55fd,\u75f0\u5c11,\u7eb3\u5dee
p207
sg8
V\u4e3b\u75c7
p208
sg10
V6.5.1
p209
sa(dp210
g6
V\u820c\u6697\u6216\u6de1\u7ea2,\u82d4\u8584\u817b,\u8109\u5f26\u7ec6\u3002
p211
sg8
V\u820c\u8109
p212
sg10
V6.5.2
p213
sa(dp214
g6
V\u76ca\u6c14\u517b\u9634
p215
sg8
V\u6cbb\u6cd5
p216
sg10
V6.5.3
p217
sa(dp218
g6
V\u6c99\u53c2\u9ea6\u95e8\u51ac\u6c64\u52a0\u51cf\uff1b\u6c99\u53c215g\u9ea6\u51ac15g\u4e94\u5473\u5b5010g\uff1b\u6d59\u8d1d\u6bcd10g\u674f\u4ec110g\u9752\u84bf10g\uff1b\u7099\u6787\u6777\u53f610g\u7126\u4e09\u4ed9\u540410g\uff1b\u714e\u670d\u6cd5\uff1a\u6c34\u714e\u670d,\u6bcf\u5242\u6c34\u714e400\u6beb\u5347,\u6bcf\u6b21\u53e3\u670d200\u6beb\u5347,1\u65e52\u6b21;\u5fc5\u8981\u65f6\u53ef\u65e5\u670d2\u5242,\u6bcf6\u5c0f\u65f6\u53e3\u670d1\u6b21,\u6bcf\u6b21200\u6beb\u5347\u3002\u4e5f\u53ef\u9f3b\u9972\u6216\u7ed3\u80a0\u6ef4\u6ce8\u3002
p219
sg8
V\u57fa\u672c\u65b9\u836f
p220
sg10
V6.5.4
p221
sa(dp222
g6
V1.\u598a\u5a20\u671f\u5987\u5973\u53d1\u75c5,\u6cbb\u7597\u53c2\u8003\u6210\u4eba\u65b9\u6848,\u907f\u514d\u4f7f\u7528\u598a\u5a20\u7981\u5fcc\u836f,\u6cbb\u75c5\u4e0e\u5b89\u80ce\u5e76\u4e3e,\u4ee5\u9632\u6d41\u4ea7,\u5e76\u5e94\u6ce8\u610f\u5242\u91cf,\u4e2d\u75c5\u5373\u6b62\u30022.\u513f\u7ae5\u7528\u836f\u53ef\u53c2\u8003\u6210\u4eba\u6cbb\u7597\u65b9\u6848,\u6839\u636e\u513f\u79d1\u89c4\u5b9a\u8c03\u6574\u5242\u91cf,\u65e0\u513f\u7ae5\u9002\u5e94\u75c7\u7684\u4e2d\u6210\u836f\u4e0d\u5b9c\u4f7f\u7528\u3002
p223
sg8
V\u6ce8
p224
sg10
V6.5.5
p225
sasVedges
p226
(lp227
(dp228
S'source'
p229
I0
sS'target'
p230
I1
sa(dp231
g229
I1
sg230
I2
sa(dp232
g229
I1
sg230
I3
sa(dp233
g229
I3
sg230
I4
sa(dp234
g229
I3
sg230
I5
sa(dp235
g229
I3
sg230
I6
sa(dp236
g229
I3
sg230
I7
sa(dp237
g229
I1
sg230
I8
sa(dp238
g229
I1
sg230
I9
sa(dp239
g229
I1
sg230
I10
sa(dp240
g229
I1
sg230
I11
sa(dp241
g229
I0
sg230
I12
sa(dp242
g229
I12
sg230
I13
sa(dp243
g229
I0
sg230
I14
sa(dp244
g229
I14
sg230
I15
sa(dp245
g229
I14
sg230
I16
sa(dp246
g229
I14
sg230
I17
sa(dp247
g229
I14
sg230
I18
sa(dp248
g229
I0
sg230
I19
sa(dp249
g229
I19
sg230
I20
sa(dp250
g229
I19
sg230
I21
sa(dp251
g229
I19
sg230
I22
sa(dp252
g229
I0
sg230
I23
sa(dp253
g229
I23
sg230
I24
sa(dp254
g229
I23
sg230
I25
sa(dp255
g229
I23
sg230
I26
sa(dp256
g229
I0
sg230
I27
sa(dp257
g229
I27
sg230
I28
sa(dp258
g229
I28
sg230
I29
sa(dp259
g229
I28
sg230
I30
sa(dp260
g229
I28
sg230
I31
sa(dp261
g229
I28
sg230
I32
sa(dp262
g229
I28
sg230
I33
sa(dp263
g229
I28
sg230
I34
sa(dp264
g229
I28
sg230
I35
sa(dp265
g229
I27
sg230
I36
sa(dp266
g229
I36
sg230
I37
sa(dp267
g229
I36
sg230
I38
sa(dp268
g229
I36
sg230
I39
sa(dp269
g229
I36
sg230
I40
sa(dp270
g229
I36
sg230
I41
sa(dp271
g229
I36
sg230
I42
sa(dp272
g229
I36
sg230
I43
sa(dp273
g229
I27
sg230
I44
sa(dp274
g229
I44
sg230
I45
sa(dp275
g229
I44
sg230
I46
sa(dp276
g229
I44
sg230
I47
sa(dp277
g229
I44
sg230
I48
sa(dp278
g229
I44
sg230
I49
sa(dp279
g229
I27
sg230
I50
sa(dp280
g229
I50
sg230
I51
sa(dp281
g229
I50
sg230
I52
sa(dp282
g229
I50
sg230
I53
sa(dp283
g229
I50
sg230
I54
sa(dp284
g229
I27
sg230
I55
sa(dp285
g229
I55
sg230
I56
sa(dp286
g229
I55
sg230
I57
sa(dp287
g229
I55
sg230
I58
sa(dp288
g229
I55
sg230
I59
sa(dp289
g229
I55
sg230
I60
sass.