(dp0
V\u843d\u6795
p1
(dp2
S'nodes'
p3
(lp4
(dp5
S'content'
p6
S'\xe7\x97\x87\xe7\x8a\xb6'
p7
sS'times'
p8
I1
sS'type'
p9
S'symptom'
p10
sS'name'
p11
g1
sS'level'
p12
S'level0'
p13
sa(dp14
S'count'
p15
F86.0
sg11
V\u540e\u6eaa
p16
sg12
S'level1'
p17
sg8
I1
sg6
S'\xe5\x8d\x95\xe7\xa9\xb4'
p18
sS'percentage'
p19
F11.6
sg9
S'xuewei'
p20
sa(dp21
g15
F24.0
sg11
V\u540e\u6eaa\uff0c\u60ac\u949f
p22
sg12
S'level2'
p23
sg8
I1
sg6
S'\xe9\x85\x8d\xe4\xbc\x8d'
p24
sg19
V
p25
sg9
S'xuewei2'
p26
sa(dp27
g15
F75.0
sg11
V\u5916\u52b3\u5bab
p28
sg12
g17
sg8
I1
sg6
g18
sg19
F10.1
sg9
g20
sa(dp29
g15
F19.0
sg11
V\u540e\u6eaa\uff0c\u5927\u690e
p30
sg12
g23
sg8
I1
sg6
g24
sg19
g25
sg9
g26
sa(dp31
g15
F48.0
sg11
V\u60ac\u949f
p32
sg12
g17
sg8
I1
sg6
g18
sg19
F6.5
sg9
g20
sa(dp33
g15
F28.0
sg11
V\u540e\u6eaa\uff0c\u5916\u52b3\u5bab
p34
sg12
g23
sg8
I1
sg6
g24
sg19
g25
sg9
g26
sa(dp35
g15
F39.0
sg11
V\u963f\u662f\u7a74
p36
sg12
g17
sg8
I1
sg6
g18
sg19
F5.3
sg9
g20
sa(dp37
g15
F18.0
sg11
V\u540e\u6eaa\uff0c\u963f\u662f\u7a74
p38
sg12
g23
sg8
I1
sg6
g24
sg19
g25
sg9
g26
sa(dp39
g15
F35.0
sg11
V\u98ce\u6c60
p40
sg12
g17
sg8
I1
sg6
g18
sg19
F4.7
sg9
g20
sa(dp41
g15
F19.0
sg11
V\u98ce\u6c60\uff0c\u80a9\u4e95
p42
sg12
g23
sg8
I1
sg6
g24
sg19
g25
sg9
g26
sa(dp43
g15
F29.0
sg11
V\u5927\u690e
p44
sg12
g17
sg8
I1
sg6
g18
sg19
F3.9
sg9
g20
sa(dp45
g15
F17.0
sg11
V\u98ce\u6c60\uff0c\u5927\u690e
p46
sg12
g23
sg8
I1
sg6
g24
sg19
g25
sg9
g26
sa(dp47
g15
F26.0
sg11
V\u80a9\u4e95
p48
sg12
g17
sg8
I1
sg6
g18
sg19
F3.5
sg9
g20
sa(dp49
g15
F14.0
sg11
V\u98ce\u6c60\uff0c\u5916\u52b3\u5bab
p50
sg12
g23
sg8
I1
sg6
g24
sg19
g25
sg9
g26
sa(dp51
g15
F25.0
sg11
V\u5916\u5173
p52
sg12
g17
sg8
I1
sg6
g18
sg19
F3.4
sg9
g20
sa(dp53
g15
F17.0
sg11
V\u98ce\u6c60\uff0c\u963f\u662f\u7a74
p54
sg12
g23
sg8
I1
sg6
g24
sg19
g25
sg9
g26
sa(dp55
g15
F17.0
sg11
V\u5929\u5b97
p56
sg12
g17
sg8
I1
sg6
g18
sg19
F2.3
sg9
g20
sa(dp57
g15
F17.0
sg11
V\u60ac\u949f\uff0c\u5927\u690e
p58
sg12
g23
sg8
I1
sg6
g24
sg19
g25
sg9
g26
sa(dp59
g15
F16.0
sg11
V\u4e2d\u6e1a
p60
sg12
g17
sg8
I1
sg6
g18
sg19
F2.2
sg9
g20
sa(dp61
g15
F20.0
sg11
V\u60ac\u949f\uff0c\u5916\u52b3\u5bab
p62
sg12
g23
sg8
I1
sg6
g24
sg19
g25
sg9
g26
sasS'edges'
p63
(lp64
(dp65
S'source'
p66
I0
sg19
F11.6
sS'target'
p67
I1
sS'marker_type'
p68
g23
sg11
F86.0
sa(dp69
g66
I0
sg19
g25
sg67
I2
sg68
g23
sg11
F24.0
sa(dp70
g66
I0
sg19
F10.1
sg67
I3
sg68
g23
sg11
F75.0
sa(dp71
g66
I0
sg19
g25
sg67
I4
sg68
g23
sg11
F19.0
sa(dp72
g66
I0
sg19
F6.5
sg67
I5
sg68
g23
sg11
F48.0
sa(dp73
g66
I0
sg19
g25
sg67
I6
sg68
g23
sg11
F28.0
sa(dp74
g66
I0
sg19
F5.3
sg67
I7
sg68
g23
sg11
F39.0
sa(dp75
g66
I0
sg19
g25
sg67
I8
sg68
g23
sg11
F18.0
sa(dp76
g66
I0
sg19
F4.7
sg67
I9
sg68
g23
sg11
F35.0
sa(dp77
g66
I0
sg19
g25
sg67
I10
sg68
g23
sg11
F19.0
sa(dp78
g66
I0
sg19
F3.9
sg67
I11
sg68
g23
sg11
F29.0
sa(dp79
g66
I0
sg19
g25
sg67
I12
sg68
g23
sg11
F17.0
sa(dp80
g66
I0
sg19
F3.5
sg67
I13
sg68
g23
sg11
F26.0
sa(dp81
g66
I0
sg19
g25
sg67
I14
sg68
g23
sg11
F14.0
sa(dp82
g66
I0
sg19
F3.4
sg67
I15
sg68
g23
sg11
F25.0
sa(dp83
g66
I0
sg19
g25
sg67
I16
sg68
g23
sg11
F17.0
sa(dp84
g66
I0
sg19
F2.3
sg67
I17
sg68
g23
sg11
F17.0
sa(dp85
g66
I0
sg19
g25
sg67
I18
sg68
g23
sg11
F17.0
sa(dp86
g66
I0
sg19
F2.2
sg67
I19
sg68
g23
sg11
F16.0
sa(dp87
g66
I0
sg19
g25
sg67
I20
sg68
g23
sg11
F20.0
sassV\u95ed\u7ecf
p88
(dp89
g3
(lp90
(dp91
g6
g7
sg8
I1
sg9
g10
sg11
g88
sg12
g13
sa(dp92
g15
F17.0
sg11
V\u6c14\u6d77
p93
sg12
g17
sg8
I1
sg6
g18
sg19
F0.0623
sg9
g20
sa(dp94
g15
F16.0
sg11
V\u5e26\u8109
p95
sg12
g17
sg8
I1
sg6
g18
sg19
F0.0586
sg9
g20
sa(dp96
g15
F14.0
sg11
V\u6c34\u6cc9
p97
sg12
g17
sg8
I1
sg6
g18
sg19
F0.0513
sg9
g20
sa(dp98
g15
F13.0
sg11
V\u4e09\u9634\u4ea4
p99
sg12
g17
sg8
I1
sg6
g18
sg19
F0.0476
sg9
g20
sa(dp100
g15
F12.0
sg11
V\u8840\u6d77
p101
sg12
g17
sg8
I1
sg6
g18
sg19
F0.044
sg9
g20
sa(dp102
g15
F10.0
sg11
V\u4f1a\u9634
p103
sg12
g17
sg8
I1
sg6
g18
sg19
F0.0366
sg9
g20
sa(dp104
g15
F10.0
sg11
V\u80be\u4fde
p105
sg12
g17
sg8
I1
sg6
g18
sg19
F0.0366
sg9
g20
sa(dp106
g15
F10.0
sg11
V\u7ef4\u9053
p107
sg12
g17
sg8
I1
sg6
g18
sg19
F0.0366
sg9
g20
sa(dp108
g15
F10.0
sg11
V\u4e2d\u9ace
p109
sg12
g17
sg8
I1
sg6
g18
sg19
F0.0366
sg9
g20
sa(dp110
g15
F9.0
sg11
V\u6c14\u7a74
p111
sg12
g17
sg8
I1
sg6
g18
sg19
F0.033
sg9
g20
sasg63
(lp112
(dp113
g66
I0
sg19
F0.0623
sg67
I1
sg68
g23
sg11
F17.0
sa(dp114
g66
I0
sg19
F0.0586
sg67
I2
sg68
g23
sg11
F16.0
sa(dp115
g66
I0
sg19
F0.0513
sg67
I3
sg68
g23
sg11
F14.0
sa(dp116
g66
I0
sg19
F0.0476
sg67
I4
sg68
g23
sg11
F13.0
sa(dp117
g66
I0
sg19
F0.044
sg67
I5
sg68
g23
sg11
F12.0
sa(dp118
g66
I0
sg19
F0.0366
sg67
I6
sg68
g23
sg11
F10.0
sa(dp119
g66
I0
sg19
F0.0366
sg67
I7
sg68
g23
sg11
F10.0
sa(dp120
g66
I0
sg19
F0.0366
sg67
I8
sg68
g23
sg11
F10.0
sa(dp121
g66
I0
sg19
F0.0366
sg67
I9
sg68
g23
sg11
F10.0
sa(dp122
g66
I0
sg19
F0.033
sg67
I10
sg68
g23
sg11
F9.0
sassV\u819d\u75f9
p123
(dp124
g3
(lp125
(dp126
g6
g7
sg8
I1
sg9
g10
sg11
g123
sg12
g13
sa(dp127
g15
F708.0
sg11
V\u728a\u9f3b
p128
sg12
g17
sg8
I1
sg6
g18
sg19
g25
sg9
g20
sa(dp129
g15
F664.0
sg11
V\u5185\u819d\u773c
p130
sg12
g17
sg8
I1
sg6
g18
sg19
g25
sg9
g20
sa(dp131
g15
F626.0
sg11
V\u9633\u9675\u6cc9
p132
sg12
g17
sg8
I1
sg6
g18
sg19
g25
sg9
g20
sa(dp133
g15
F559.0
sg11
V\u8db3\u4e09\u91cc
p134
sg12
g17
sg8
I1
sg6
g18
sg19
g25
sg9
g20
sa(dp135
g15
F537.0
sg11
g101
sg12
g17
sg8
I1
sg6
g18
sg19
g25
sg9
g20
sa(dp136
g15
F473.0
sg11
V\u6881\u4e18
p137
sg12
g17
sg8
I1
sg6
g18
sg19
g25
sg9
g20
sa(dp138
g15
F438.0
sg11
V\u9634\u9675\u6cc9
p139
sg12
g17
sg8
I1
sg6
g18
sg19
g25
sg9
g20
sa(dp140
g15
F340.0
sg11
V\u9e64\u9876
p141
sg12
g17
sg8
I1
sg6
g18
sg19
g25
sg9
g20
sa(dp142
g15
F283.0
sg11
V\u963f\u662f\u7a74
p143
sg12
g17
sg8
I1
sg6
g18
sg19
g25
sg9
g20
sa(dp144
g15
F142.0
sg11
g99
sg12
g17
sg8
I1
sg6
g18
sg19
g25
sg9
g20
sasg63
(lp145
(dp146
g66
I0
sg19
g25
sg67
I1
sg68
g23
sg11
F708.0
sa(dp147
g66
I0
sg19
g25
sg67
I2
sg68
g23
sg11
F664.0
sa(dp148
g66
I0
sg19
g25
sg67
I3
sg68
g23
sg11
F626.0
sa(dp149
g66
I0
sg19
g25
sg67
I4
sg68
g23
sg11
F559.0
sa(dp150
g66
I0
sg19
g25
sg67
I5
sg68
g23
sg11
F537.0
sa(dp151
g66
I0
sg19
g25
sg67
I6
sg68
g23
sg11
F473.0
sa(dp152
g66
I0
sg19
g25
sg67
I7
sg68
g23
sg11
F438.0
sa(dp153
g66
I0
sg19
g25
sg67
I8
sg68
g23
sg11
F340.0
sa(dp154
g66
I0
sg19
g25
sg67
I9
sg68
g23
sg11
F283.0
sa(dp155
g66
I0
sg19
g25
sg67
I10
sg68
g23
sg11
F142.0
sassV\u8033\u804b
p156
(dp157
g3
(lp158
(dp159
g6
g7
sg8
I1
sg9
g10
sg11
g156
sg12
g13
sa(dp160
g15
F204.0
sg11
V\u542c\u5bab
p161
sg12
g17
sg8
I1
sg6
g18
sg19
g25
sg9
g20
sa(dp162
g15
F89.0
sg11
V\u542c\u5bab\uff0c\u4e2d\u6e1a
p163
sg12
g23
sg8
I1
sg6
g24
sg19
g25
sg9
g26
sa(dp164
g15
F203.0
sg11
V\u7ff3\u98ce
p165
sg12
g17
sg8
I1
sg6
g18
sg19
g25
sg9
g20
sa(dp166
g15
F74.0
sg11
V\u542c\u5bab\uff0c\u5916\u5173
p167
sg12
g23
sg8
I1
sg6
g24
sg19
g25
sg9
g26
sa(dp168
g15
F196.0
sg11
V\u542c\u4f1a
p169
sg12
g17
sg8
I1
sg6
g18
sg19
g25
sg9
g20
sa(dp170
g15
F181.0
sg11
V\u542c\u5bab\uff0c\u7ff3\u98ce
p171
sg12
g23
sg8
I1
sg6
g24
sg19
g25
sg9
g26
sa(dp172
g15
F163.0
sg11
V\u8033\u95e8
p173
sg12
g17
sg8
I1
sg6
g18
sg19
g25
sg9
g20
sa(dp174
g15
F147.0
sg11
V\u542c\u5bab\uff0c\u8033\u95e8
p175
sg12
g23
sg8
I1
sg6
g24
sg19
g25
sg9
g26
sa(dp176
g15
F107.0
sg11
V\u4e2d\u6e1a
p177
sg12
g17
sg8
I1
sg6
g18
sg19
g25
sg9
g20
sa(dp178
g15
F175.0
sg11
V\u542c\u5bab\uff0c\u542c\u4f1a
p179
sg12
g23
sg8
I1
sg6
g24
sg19
g25
sg9
g26
sa(dp180
g15
F85.0
sg11
V\u5916\u5173
p181
sg12
g17
sg8
I1
sg6
g18
sg19
g25
sg9
g20
sa(dp182
g15
F30.0
sg11
V\u542c\u5bab\uff0c\u8db3\u4e34\u6ce3
p183
sg12
g23
sg8
I1
sg6
g24
sg19
g25
sg9
g26
sa(dp184
g15
F53.0
sg11
V\u767e\u4f1a
p185
sg12
g17
sg8
I1
sg6
g18
sg19
g25
sg9
g20
sa(dp186
g15
F31.0
sg11
V\u542c\u5bab\uff0c\u4fa0\u6eaa
p187
sg12
g23
sg8
I1
sg6
g24
sg19
g25
sg9
g26
sa(dp188
g15
F50.0
sg11
V\u98ce\u6c60
p189
sg12
g17
sg8
I1
sg6
g18
sg19
g25
sg9
g20
sa(dp190
g15
F43.0
sg11
V\u542c\u5bab\uff0c\u4e09\u9634\u4ea4
p191
sg12
g23
sg8
I1
sg6
g24
sg19
g25
sg9
g26
sa(dp192
g15
F50.0
sg11
V\u5408\u8c37
p193
sg12
g17
sg8
I1
sg6
g18
sg19
g25
sg9
g20
sa(dp194
g15
F48.0
sg11
V\u542c\u5bab\uff0c\u5408\u8c37
p195
sg12
g23
sg8
I1
sg6
g24
sg19
g25
sg9
g26
sa(dp196
g15
F48.0
sg11
V\u592a\u51b2
p197
sg12
g17
sg8
I1
sg6
g18
sg19
g25
sg9
g20
sa(dp198
g15
F41.0
sg11
V\u542c\u5bab\uff0c\u98ce\u6c60
p199
sg12
g23
sg8
I1
sg6
g24
sg19
g25
sg9
g26
sasg63
(lp200
(dp201
g66
I0
sg19
g25
sg67
I1
sg68
g23
sg11
F204.0
sa(dp202
g66
I0
sg19
g25
sg67
I2
sg68
g23
sg11
F89.0
sa(dp203
g66
I0
sg19
g25
sg67
I3
sg68
g23
sg11
F203.0
sa(dp204
g66
I0
sg19
g25
sg67
I4
sg68
g23
sg11
F74.0
sa(dp205
g66
I0
sg19
g25
sg67
I5
sg68
g23
sg11
F196.0
sa(dp206
g66
I0
sg19
g25
sg67
I6
sg68
g23
sg11
F181.0
sa(dp207
g66
I0
sg19
g25
sg67
I7
sg68
g23
sg11
F163.0
sa(dp208
g66
I0
sg19
g25
sg67
I8
sg68
g23
sg11
F147.0
sa(dp209
g66
I0
sg19
g25
sg67
I9
sg68
g23
sg11
F107.0
sa(dp210
g66
I0
sg19
g25
sg67
I10
sg68
g23
sg11
F175.0
sa(dp211
g66
I0
sg19
g25
sg67
I11
sg68
g23
sg11
F85.0
sa(dp212
g66
I0
sg19
g25
sg67
I12
sg68
g23
sg11
F30.0
sa(dp213
g66
I0
sg19
g25
sg67
I13
sg68
g23
sg11
F53.0
sa(dp214
g66
I0
sg19
g25
sg67
I14
sg68
g23
sg11
F31.0
sa(dp215
g66
I0
sg19
g25
sg67
I15
sg68
g23
sg11
F50.0
sa(dp216
g66
I0
sg19
g25
sg67
I16
sg68
g23
sg11
F43.0
sa(dp217
g66
I0
sg19
g25
sg67
I17
sg68
g23
sg11
F50.0
sa(dp218
g66
I0
sg19
g25
sg67
I18
sg68
g23
sg11
F48.0
sa(dp219
g66
I0
sg19
g25
sg67
I19
sg68
g23
sg11
F48.0
sa(dp220
g66
I0
sg19
g25
sg67
I20
sg68
g23
sg11
F41.0
sassV\u7259\u75db
p221
(dp222
g3
(lp223
(dp224
g6
g7
sg8
I1
sg9
g10
sg11
g221
sg12
g13
sa(dp225
g15
F293.0
sg11
g193
sg12
g17
sg8
I1
sg6
g18
sg19
g25
sg9
g20
sa(dp226
g15
F176.0
sg11
V\u5408\u8c37\uff0c\u988a\u8f66
p227
sg12
g23
sg8
I1
sg6
g24
sg19
F0.369
sg9
g26
sa(dp228
g15
F210.0
sg11
V\u988a\u8f66
p229
sg12
g17
sg8
I1
sg6
g18
sg19
g25
sg9
g20
sa(dp230
g15
F164.0
sg11
V\u5408\u8c37\uff0c\u4e0b\u5173
p231
sg12
g23
sg8
I1
sg6
g24
sg19
F0.3438
sg9
g26
sa(dp232
g15
F195.0
sg11
V\u4e0b\u5173
p233
sg12
g17
sg8
I1
sg6
g18
sg19
g25
sg9
g20
sa(dp234
g15
F144.0
sg11
V\u988a\u8f66\uff0c\u4e0b\u5173
p235
sg12
g23
sg8
I1
sg6
g24
sg19
F0.3019
sg9
g26
sa(dp236
g15
F115.0
sg11
V\u5185\u5ead
p237
sg12
g17
sg8
I1
sg6
g18
sg19
g25
sg9
g20
sa(dp238
g15
F127.0
sg11
V\u5408\u8c37\uff0c\u988a\u8f66\uff0c\u4e0b\u5173
p239
sg12
g23
sg8
I1
sg6
g24
sg19
F0.2662
sg9
g26
sa(dp240
g15
F62.0
sg11
V\u592a\u6eaa
p241
sg12
g17
sg8
I1
sg6
g18
sg19
g25
sg9
g20
sa(dp242
g15
F85.0
sg11
V\u5408\u8c37\uff0c\u5185\u5ead
p243
sg12
g23
sg8
I1
sg6
g24
sg19
F0.1782
sg9
g26
sa(dp244
g15
F49.0
sg11
g189
sg12
g17
sg8
I1
sg6
g18
sg19
g25
sg9
g20
sa(dp245
g15
F71.0
sg11
V\u988a\u8f66\uff0c\u5185\u5ead
p246
sg12
g23
sg8
I1
sg6
g24
sg19
F0.1488
sg9
g26
sa(dp247
g15
F35.0
sg11
V\u592a\u9633
p248
sg12
g17
sg8
I1
sg6
g18
sg19
g25
sg9
g20
sa(dp249
g15
F61.0
sg11
V\u5408\u8c37\uff0c\u988a\u8f66\uff0c\u5185\u5ead
p250
sg12
g23
sg8
I1
sg6
g24
sg19
F0.1279
sg9
g26
sa(dp251
g15
F27.0
sg11
V\u4e8c\u95f4
p252
sg12
g17
sg8
I1
sg6
g18
sg19
g25
sg9
g20
sa(dp253
g15
F60.0
sg11
V\u4e0b\u5173\uff0c\u5185\u5ead
p254
sg12
g23
sg8
I1
sg6
g24
sg19
F0.1258
sg9
g26
sa(dp255
g15
F24.0
sg11
V\u5927\u8fce
p256
sg12
g17
sg8
I1
sg6
g18
sg19
g25
sg9
g20
sa(dp257
g15
F54.0
sg11
V\u5408\u8c37\uff0c\u4e0b\u5173\uff0c\u5185\u5ead
p258
sg12
g23
sg8
I1
sg6
g24
sg19
F0.1132
sg9
g26
sa(dp259
g15
F23.0
sg11
g134
sg12
g17
sg8
I1
sg6
g18
sg19
g25
sg9
g20
sa(dp260
g15
F51.0
sg11
V\u988a\u8f66\uff0c\u4e0b\u5173\uff0c\u5185\u5ead
p261
sg12
g23
sg8
I1
sg6
g24
sg19
F0.1069
sg9
g26
sasg63
(lp262
(dp263
g66
I0
sg19
g25
sg67
I1
sg68
g23
sg11
F293.0
sa(dp264
g66
I0
sg19
F0.369
sg67
I2
sg68
g23
sg11
F176.0
sa(dp265
g66
I0
sg19
g25
sg67
I3
sg68
g23
sg11
F210.0
sa(dp266
g66
I0
sg19
F0.3438
sg67
I4
sg68
g23
sg11
F164.0
sa(dp267
g66
I0
sg19
g25
sg67
I5
sg68
g23
sg11
F195.0
sa(dp268
g66
I0
sg19
F0.3019
sg67
I6
sg68
g23
sg11
F144.0
sa(dp269
g66
I0
sg19
g25
sg67
I7
sg68
g23
sg11
F115.0
sa(dp270
g66
I0
sg19
F0.2662
sg67
I8
sg68
g23
sg11
F127.0
sa(dp271
g66
I0
sg19
g25
sg67
I9
sg68
g23
sg11
F62.0
sa(dp272
g66
I0
sg19
F0.1782
sg67
I10
sg68
g23
sg11
F85.0
sa(dp273
g66
I0
sg19
g25
sg67
I11
sg68
g23
sg11
F49.0
sa(dp274
g66
I0
sg19
F0.1488
sg67
I12
sg68
g23
sg11
F71.0
sa(dp275
g66
I0
sg19
g25
sg67
I13
sg68
g23
sg11
F35.0
sa(dp276
g66
I0
sg19
F0.1279
sg67
I14
sg68
g23
sg11
F61.0
sa(dp277
g66
I0
sg19
g25
sg67
I15
sg68
g23
sg11
F27.0
sa(dp278
g66
I0
sg19
F0.1258
sg67
I16
sg68
g23
sg11
F60.0
sa(dp279
g66
I0
sg19
g25
sg67
I17
sg68
g23
sg11
F24.0
sa(dp280
g66
I0
sg19
F0.1132
sg67
I18
sg68
g23
sg11
F54.0
sa(dp281
g66
I0
sg19
g25
sg67
I19
sg68
g23
sg11
F23.0
sa(dp282
g66
I0
sg19
F0.1069
sg67
I20
sg68
g23
sg11
F51.0
sassV\u80f8\u75f9
p283
(dp284
g3
(lp285
(dp286
g6
g7
sg8
I1
sg9
g10
sg11
g283
sg12
g13
sa(dp287
g15
F105.0
sg11
V\u5185\u5173
p288
sg12
g17
sg8
I1
sg6
g18
sg19
g25
sg9
g20
sa(dp289
g15
F54.0
sg11
V\u5fc3\u4fde  \u5185\u5173
p290
sg12
g23
sg8
I1
sg6
g24
sg19
g25
sg9
g26
sa(dp291
g15
F57.0
sg11
V\u5fc3\u4fde
p292
sg12
g17
sg8
I1
sg6
g18
sg19
g25
sg9
g20
sa(dp293
g15
F19.0
sg11
V\u5185\u5173  \u8188\u4fde
p294
sg12
g23
sg8
I1
sg6
g24
sg19
g25
sg9
g26
sa(dp295
g15
F50.0
sg11
V\u81bb\u4e2d
p296
sg12
g17
sg8
I1
sg6
g18
sg19
g25
sg9
g20
sa(dp297
g15
F17.0
sg11
V\u5185\u5173  \u4e09\u9634\u4ea4
p298
sg12
g23
sg8
I1
sg6
g24
sg19
g25
sg9
g26
sa(dp299
g15
F34.0
sg11
g134
sg12
g17
sg8
I1
sg6
g18
sg19
g25
sg9
g20
sa(dp300
g15
F29.0
sg11
V\u5185\u5173  \u8db3\u4e09\u91cc
p301
sg12
g23
sg8
I1
sg6
g24
sg19
g25
sg9
g26
sa(dp302
g15
F30.0
sg11
V\u53a5\u9634\u4fde
p303
sg12
g17
sg8
I1
sg6
g18
sg19
g25
sg9
g20
sa(dp304
g15
F15.0
sg11
V\u5185\u5173  \u592a\u51b2
p305
sg12
g23
sg8
I1
sg6
g24
sg19
g25
sg9
g26
sa(dp306
g15
F23.0
sg11
V\u795e\u95e8
p307
sg12
g17
sg8
I1
sg6
g18
sg19
g25
sg9
g20
sa(dp308
g15
F23.0
sg11
V\u5185\u5173  \u795e\u95e8
p309
sg12
g23
sg8
I1
sg6
g24
sg19
g25
sg9
g26
sa(dp310
g15
F22.0
sg11
g99
sg12
g17
sg8
I1
sg6
g18
sg19
g25
sg9
g20
sa(dp311
g15
F30.0
sg11
V\u5185\u5173  \u53a5\u9634\u4fde
p312
sg12
g23
sg8
I1
sg6
g24
sg19
g25
sg9
g26
sa(dp313
g15
F22.0
sg11
V\u8188\u4fde
p314
sg12
g17
sg8
I1
sg6
g18
sg19
g25
sg9
g20
sa(dp315
g15
F47.0
sg11
V\u5185\u5173 \u81bb\u4e2d
p316
sg12
g23
sg8
I1
sg6
g24
sg19
g25
sg9
g26
sa(dp317
g15
F17.0
sg11
V\u5de8\u9619
p318
sg12
g17
sg8
I1
sg6
g18
sg19
g25
sg9
g20
sa(dp319
g15
F15.0
sg11
V\u5185\u5173 \u90c4\u95e8
p320
sg12
g23
sg8
I1
sg6
g24
sg19
g25
sg9
g26
sa(dp321
g15
F17.0
sg11
V\u90c4\u95e8
p322
sg12
g17
sg8
I1
sg6
g18
sg19
g25
sg9
g20
sa(dp323
g15
F15.0
sg11
V\u5185\u5173 \u5de8\u9619
p324
sg12
g23
sg8
I1
sg6
g24
sg19
g25
sg9
g26
sasg63
(lp325
(dp326
g66
I0
sg19
g25
sg67
I1
sg68
g23
sg11
F105.0
sa(dp327
g66
I0
sg19
g25
sg67
I2
sg68
g23
sg11
F54.0
sa(dp328
g66
I0
sg19
g25
sg67
I3
sg68
g23
sg11
F57.0
sa(dp329
g66
I0
sg19
g25
sg67
I4
sg68
g23
sg11
F19.0
sa(dp330
g66
I0
sg19
g25
sg67
I5
sg68
g23
sg11
F50.0
sa(dp331
g66
I0
sg19
g25
sg67
I6
sg68
g23
sg11
F17.0
sa(dp332
g66
I0
sg19
g25
sg67
I7
sg68
g23
sg11
F34.0
sa(dp333
g66
I0
sg19
g25
sg67
I8
sg68
g23
sg11
F29.0
sa(dp334
g66
I0
sg19
g25
sg67
I9
sg68
g23
sg11
F30.0
sa(dp335
g66
I0
sg19
g25
sg67
I10
sg68
g23
sg11
F15.0
sa(dp336
g66
I0
sg19
g25
sg67
I11
sg68
g23
sg11
F23.0
sa(dp337
g66
I0
sg19
g25
sg67
I12
sg68
g23
sg11
F23.0
sa(dp338
g66
I0
sg19
g25
sg67
I13
sg68
g23
sg11
F22.0
sa(dp339
g66
I0
sg19
g25
sg67
I14
sg68
g23
sg11
F30.0
sa(dp340
g66
I0
sg19
g25
sg67
I15
sg68
g23
sg11
F22.0
sa(dp341
g66
I0
sg19
g25
sg67
I16
sg68
g23
sg11
F47.0
sa(dp342
g66
I0
sg19
g25
sg67
I17
sg68
g23
sg11
F17.0
sa(dp343
g66
I0
sg19
g25
sg67
I18
sg68
g23
sg11
F15.0
sa(dp344
g66
I0
sg19
g25
sg67
I19
sg68
g23
sg11
F17.0
sa(dp345
g66
I0
sg19
g25
sg67
I20
sg68
g23
sg11
F15.0
sassV\u8155\u7ba1\u7efc\u5408\u5f81
p346
(dp347
g3
(lp348
(dp349
g6
g7
sg8
I1
sg9
g10
sg11
g346
sg12
g13
sa(dp350
g15
F305.0
sg11
g99
sg12
g17
sg8
I1
sg6
g18
sg19
g25
sg9
g20
sa(dp351
g15
F239.0
sg11
V\u5173\u5143\uff0c\u4e09\u9634\u4ea4
p352
sg12
g23
sg8
I1
sg6
g24
sg19
g25
sg9
g26
sa(dp353
g15
F302.0
sg11
V\u5173\u5143
p354
sg12
g17
sg8
I1
sg6
g18
sg19
g25
sg9
g20
sa(dp355
g15
F229.0
sg11
V\u5173\u5143\uff0c\u4e2d\u7ea7
p356
sg12
g23
sg8
I1
sg6
g24
sg19
g25
sg9
g26
sa(dp357
g15
F261.0
sg11
V\u4e2d\u7ea7
p358
sg12
g17
sg8
I1
sg6
g18
sg19
g25
sg9
g20
sa(dp359
g15
F200.0
sg11
V\u5173\u5143\uff0c\u5b50\u5bab
p360
sg12
g23
sg8
I1
sg6
g24
sg19
g25
sg9
g26
sa(dp361
g15
F237.0
sg11
V\u5b50\u5bab
p362
sg12
g17
sg8
I1
sg6
g18
sg19
g25
sg9
g20
sa(dp363
g15
F136.0
sg11
V\u5173\u5143\uff0c\u8db3\u4e09\u91cc
p364
sg12
g23
sg8
I1
sg6
g24
sg19
g25
sg9
g26
sa(dp365
g15
F171.0
sg11
g134
sg12
g17
sg8
I1
sg6
g18
sg19
g25
sg9
g20
sa(dp366
g15
F105.0
sg11
V\u5173\u5143\uff0c\u80be\u4fde
p367
sg12
g23
sg8
I1
sg6
g24
sg19
g25
sg9
g26
sa(dp368
g15
F132.0
sg11
g105
sg12
g17
sg8
I1
sg6
g18
sg19
g25
sg9
g20
sa(dp369
g15
F103.0
sg11
V\u5173\u5143\uff0c\u6c14\u6d77
p370
sg12
g23
sg8
I1
sg6
g24
sg19
g25
sg9
g26
sa(dp371
g15
F114.0
sg11
g93
sg12
g17
sg8
I1
sg6
g18
sg19
g25
sg9
g20
sa(dp372
g15
F212.0
sg11
V\u4e09\u9634\u4ea4\uff0c\u4e2d\u7ea7
p373
sg12
g23
sg8
I1
sg6
g24
sg19
g25
sg9
g26
sa(dp374
g15
F91.0
sg11
g197
sg12
g17
sg8
I1
sg6
g18
sg19
g25
sg9
g20
sa(dp375
g15
F202.0
sg11
V\u4e09\u9634\u4ea4\uff0c\u5b50\u5bab
p376
sg12
g23
sg8
I1
sg6
g24
sg19
g25
sg9
g26
sa(dp377
g15
F84.0
sg11
g101
sg12
g17
sg8
I1
sg6
g18
sg19
g25
sg9
g20
sa(dp378
g15
F151.0
sg11
V\u4e09\u9634\u4ea4\uff0c\u8db3\u4e09\u91cc
p379
sg12
g23
sg8
I1
sg6
g24
sg19
g25
sg9
g26
sa(dp380
g15
F78.0
sg11
V\u5f52\u6765
p381
sg12
g17
sg8
I1
sg6
g18
sg19
g25
sg9
g20
sa(dp382
g15
F102.0
sg11
V\u4e09\u9634\u4ea4\uff0c\u80be\u4fde
p383
sg12
g23
sg8
I1
sg6
g24
sg19
g25
sg9
g26
sasg63
(lp384
(dp385
g66
I0
sg19
g25
sg67
I1
sg68
g23
sg11
F305.0
sa(dp386
g66
I0
sg19
g25
sg67
I2
sg68
g23
sg11
F239.0
sa(dp387
g66
I0
sg19
g25
sg67
I3
sg68
g23
sg11
F302.0
sa(dp388
g66
I0
sg19
g25
sg67
I4
sg68
g23
sg11
F229.0
sa(dp389
g66
I0
sg19
g25
sg67
I5
sg68
g23
sg11
F261.0
sa(dp390
g66
I0
sg19
g25
sg67
I6
sg68
g23
sg11
F200.0
sa(dp391
g66
I0
sg19
g25
sg67
I7
sg68
g23
sg11
F237.0
sa(dp392
g66
I0
sg19
g25
sg67
I8
sg68
g23
sg11
F136.0
sa(dp393
g66
I0
sg19
g25
sg67
I9
sg68
g23
sg11
F171.0
sa(dp394
g66
I0
sg19
g25
sg67
I10
sg68
g23
sg11
F105.0
sa(dp395
g66
I0
sg19
g25
sg67
I11
sg68
g23
sg11
F132.0
sa(dp396
g66
I0
sg19
g25
sg67
I12
sg68
g23
sg11
F103.0
sa(dp397
g66
I0
sg19
g25
sg67
I13
sg68
g23
sg11
F114.0
sa(dp398
g66
I0
sg19
g25
sg67
I14
sg68
g23
sg11
F212.0
sa(dp399
g66
I0
sg19
g25
sg67
I15
sg68
g23
sg11
F91.0
sa(dp400
g66
I0
sg19
g25
sg67
I16
sg68
g23
sg11
F202.0
sa(dp401
g66
I0
sg19
g25
sg67
I17
sg68
g23
sg11
F84.0
sa(dp402
g66
I0
sg19
g25
sg67
I18
sg68
g23
sg11
F151.0
sa(dp403
g66
I0
sg19
g25
sg67
I19
sg68
g23
sg11
F78.0
sa(dp404
g66
I0
sg19
g25
sg67
I20
sg68
g23
sg11
F102.0
sassV\u6708\u7ecf\u4e0d\u8c03
p405
(dp406
g3
(lp407
(dp408
g6
g7
sg8
I1
sg9
g10
sg11
g405
sg12
g13
sa(dp409
g15
F254.0
sg11
g354
sg12
g17
sg8
I1
sg6
g18
sg19
g25
sg9
g20
sa(dp410
g15
F198.0
sg11
V\u5173\u5143\uff0c\u4e09\u9634\u4ea4
p411
sg12
g23
sg8
I1
sg6
g24
sg19
g25
sg9
g26
sa(dp412
g15
F235.0
sg11
g99
sg12
g17
sg8
I1
sg6
g18
sg19
g25
sg9
g20
sa(dp413
g15
F135.0
sg11
V\u5173\u5143\uff0c\u6c14\u6d77
p414
sg12
g23
sg8
I1
sg6
g24
sg19
g25
sg9
g26
sa(dp415
g15
F160.0
sg11
g93
sg12
g17
sg8
I1
sg6
g18
sg19
g25
sg9
g20
sa(dp416
g15
F130.0
sg11
V\u6c14\u6d77\uff0c\u4e09\u9634\u4ea4
p417
sg12
g23
sg8
I1
sg6
g24
sg19
g25
sg9
g26
sa(dp418
g15
F111.0
sg11
V\u4e2d\u6781
p419
sg12
g17
sg8
I1
sg6
g18
sg19
g25
sg9
g20
sa(dp420
g15
F109.0
sg11
V\u5173\u5143\uff0c\u6c14\u6d77\uff0c\u4e09\u9634\u4ea4
p421
sg12
g23
sg8
I1
sg6
g24
sg19
g25
sg9
g26
sa(dp422
g15
F93.0
sg11
g134
sg12
g17
sg8
I1
sg6
g18
sg19
g25
sg9
g20
sa(dp423
g15
F99.0
sg11
V\u4e2d\u6781\uff0c\u5173\u5143
p424
sg12
g23
sg8
I1
sg6
g24
sg19
g25
sg9
g26
sa(dp425
g15
F88.0
sg11
g101
sg12
g17
sg8
I1
sg6
g18
sg19
g25
sg9
g20
sa(dp426
g15
F93.0
sg11
V\u4e2d\u6781\uff0c\u4e09\u9634\u4ea4
p427
sg12
g23
sg8
I1
sg6
g24
sg19
g25
sg9
g26
sa(dp428
g15
F77.0
sg11
g197
sg12
g17
sg8
I1
sg6
g18
sg19
g25
sg9
g20
sa(dp429
g15
F83.0
sg11
V\u4e2d\u6781\uff0c\u5173\u5143\uff0c\u4e09\u9634\u4ea4
p430
sg12
g23
sg8
I1
sg6
g24
sg19
g25
sg9
g26
sa(dp431
g15
F61.0
sg11
g105
sg12
g17
sg8
I1
sg6
g18
sg19
g25
sg9
g20
sa(dp432
g15
F81.0
sg11
V\u8db3\u4e09\u91cc\uff0c\u4e09\u9634\u4ea4
p433
sg12
g23
sg8
I1
sg6
g24
sg19
g25
sg9
g26
sa(dp434
g15
F57.0
sg11
g381
sg12
g17
sg8
I1
sg6
g18
sg19
g25
sg9
g20
sa(dp435
g15
F77.0
sg11
V\u5173\u5143\uff0c\u8db3\u4e09\u91cc
p436
sg12
g23
sg8
I1
sg6
g24
sg19
g25
sg9
g26
sa(dp437
g15
F54.0
sg11
g241
sg12
g17
sg8
I1
sg6
g18
sg19
g25
sg9
g20
sa(dp438
g15
F73.0
sg11
V\u5173\u5143\uff0c\u8840\u6d77
p439
sg12
g23
sg8
I1
sg6
g24
sg19
g25
sg9
g26
sasg63
(lp440
(dp441
g66
I0
sg19
g25
sg67
I1
sg68
g23
sg11
F254.0
sa(dp442
g66
I0
sg19
g25
sg67
I2
sg68
g23
sg11
F198.0
sa(dp443
g66
I0
sg19
g25
sg67
I3
sg68
g23
sg11
F235.0
sa(dp444
g66
I0
sg19
g25
sg67
I4
sg68
g23
sg11
F135.0
sa(dp445
g66
I0
sg19
g25
sg67
I5
sg68
g23
sg11
F160.0
sa(dp446
g66
I0
sg19
g25
sg67
I6
sg68
g23
sg11
F130.0
sa(dp447
g66
I0
sg19
g25
sg67
I7
sg68
g23
sg11
F111.0
sa(dp448
g66
I0
sg19
g25
sg67
I8
sg68
g23
sg11
F109.0
sa(dp449
g66
I0
sg19
g25
sg67
I9
sg68
g23
sg11
F93.0
sa(dp450
g66
I0
sg19
g25
sg67
I10
sg68
g23
sg11
F99.0
sa(dp451
g66
I0
sg19
g25
sg67
I11
sg68
g23
sg11
F88.0
sa(dp452
g66
I0
sg19
g25
sg67
I12
sg68
g23
sg11
F93.0
sa(dp453
g66
I0
sg19
g25
sg67
I13
sg68
g23
sg11
F77.0
sa(dp454
g66
I0
sg19
g25
sg67
I14
sg68
g23
sg11
F83.0
sa(dp455
g66
I0
sg19
g25
sg67
I15
sg68
g23
sg11
F61.0
sa(dp456
g66
I0
sg19
g25
sg67
I16
sg68
g23
sg11
F81.0
sa(dp457
g66
I0
sg19
g25
sg67
I17
sg68
g23
sg11
F57.0
sa(dp458
g66
I0
sg19
g25
sg67
I18
sg68
g23
sg11
F77.0
sa(dp459
g66
I0
sg19
g25
sg67
I19
sg68
g23
sg11
F54.0
sa(dp460
g66
I0
sg19
g25
sg67
I20
sg68
g23
sg11
F73.0
sass.