(dp0
V\u75c7\u72b6\u7a74\u4f4d\u56fe\u8c31
p1
(dp2
S'nodes'
p3
(lp4
(dp5
S'content'
p6
S'\xe7\x97\x87\xe7\x8a\xb6'
p7
sS'times'
p8
I1
sS'type'
p9
S'symptom'
p10
sS'name'
p11
V\u843d\u6795
p12
sS'level'
p13
S'level0'
p14
sa(dp15
g6
S'\xe5\x8d\x95\xe7\xa9\xb4'
p16
sg8
I1
sg9
S'xuewei'
p17
sg11
V\u540e\u6eaa
p18
sg13
S'level1'
p19
sa(dp20
g6
S'\xe9\x85\x8d\xe4\xbc\x8d'
p21
sg8
I1
sg9
S'xuewei2'
p22
sg11
V\u540e\u6eaa\uff0c\u60ac\u949f
p23
sg13
S'level2'
p24
sa(dp25
g6
g16
sg8
I1
sg9
g17
sg11
V\u5916\u52b3\u5bab
p26
sg13
g19
sa(dp27
g6
g21
sg8
I1
sg9
g22
sg11
V\u540e\u6eaa\uff0c\u5927\u690e
p28
sg13
g24
sa(dp29
g6
g16
sg8
I1
sg9
g17
sg11
V\u60ac\u949f
p30
sg13
g19
sa(dp31
g6
g21
sg8
I1
sg9
g22
sg11
V\u540e\u6eaa\uff0c\u5916\u52b3\u5bab
p32
sg13
g24
sa(dp33
g6
g16
sg8
I2
sg9
g17
sg11
V\u963f\u662f\u7a74
p34
sg13
g19
sa(dp35
g6
g21
sg8
I1
sg9
g22
sg11
V\u540e\u6eaa\uff0c\u963f\u662f\u7a74
p36
sg13
g24
sa(dp37
g6
g16
sg8
I3
sg9
g17
sg11
V\u98ce\u6c60
p38
sg13
g19
sa(dp39
g6
g21
sg8
I1
sg9
g22
sg11
V\u98ce\u6c60\uff0c\u80a9\u4e95
p40
sg13
g24
sa(dp41
g6
g16
sg8
I1
sg9
g17
sg11
V\u5927\u690e
p42
sg13
g19
sa(dp43
g6
g21
sg8
I1
sg9
g22
sg11
V\u98ce\u6c60\uff0c\u5927\u690e
p44
sg13
g24
sa(dp45
g6
g16
sg8
I1
sg9
g17
sg11
V\u80a9\u4e95
p46
sg13
g19
sa(dp47
g6
g21
sg8
I1
sg9
g22
sg11
V\u98ce\u6c60\uff0c\u5916\u52b3\u5bab
p48
sg13
g24
sa(dp49
g6
g16
sg8
I2
sg9
g17
sg11
V\u5916\u5173
p50
sg13
g19
sa(dp51
g6
g21
sg8
I1
sg9
g22
sg11
V\u98ce\u6c60\uff0c\u963f\u662f\u7a74
p52
sg13
g24
sa(dp53
g6
g16
sg8
I1
sg9
g17
sg11
V\u5929\u5b97
p54
sg13
g19
sa(dp55
g6
g21
sg8
I1
sg9
g22
sg11
V\u60ac\u949f\uff0c\u5927\u690e
p56
sg13
g24
sa(dp57
g6
g16
sg8
I2
sg9
g17
sg11
V\u4e2d\u6e1a
p58
sg13
g19
sa(dp59
g6
g21
sg8
I1
sg9
g22
sg11
V\u60ac\u949f\uff0c\u5916\u52b3\u5bab
p60
sg13
g24
sa(dp61
g6
g7
sg8
I1
sg9
g10
sg11
V\u95ed\u7ecf
p62
sg13
g14
sa(dp63
g6
g16
sg8
I3
sg9
g17
sg11
V\u6c14\u6d77
p64
sg13
g19
sa(dp65
g6
g16
sg8
I1
sg9
g17
sg11
V\u5e26\u8109
p66
sg13
g19
sa(dp67
g6
g16
sg8
I1
sg9
g17
sg11
V\u6c34\u6cc9
p68
sg13
g19
sa(dp69
g6
g16
sg8
I5
sg9
g17
sg11
V\u4e09\u9634\u4ea4
p70
sg13
g19
sa(dp71
g6
g16
sg8
I4
sg9
g17
sg11
V\u8840\u6d77
p72
sg13
g19
sa(dp73
g6
g16
sg8
I1
sg9
g17
sg11
V\u4f1a\u9634
p74
sg13
g19
sa(dp75
g6
g16
sg8
I3
sg9
g17
sg11
V\u80be\u4fde
p76
sg13
g19
sa(dp77
g6
g16
sg8
I1
sg9
g17
sg11
V\u7ef4\u9053
p78
sg13
g19
sa(dp79
g6
g16
sg8
I1
sg9
g17
sg11
V\u4e2d\u9ace
p80
sg13
g19
sa(dp81
g6
g16
sg8
I1
sg9
g17
sg11
V\u6c14\u7a74
p82
sg13
g19
sa(dp83
g6
g7
sg8
I1
sg9
g10
sg11
V\u819d\u75f9
p84
sg13
g14
sa(dp85
g6
g16
sg8
I1
sg9
g17
sg11
V\u728a\u9f3b
p86
sg13
g19
sa(dp87
g6
g16
sg8
I1
sg9
g17
sg11
V\u5185\u819d\u773c
p88
sg13
g19
sa(dp89
g6
g16
sg8
I1
sg9
g17
sg11
V\u9633\u9675\u6cc9
p90
sg13
g19
sa(dp91
g6
g16
sg8
I5
sg9
g17
sg11
V\u8db3\u4e09\u91cc
p92
sg13
g19
sa(dp93
g6
g16
sg8
I1
sg9
g17
sg11
V\u6881\u4e18
p94
sg13
g19
sa(dp95
g6
g16
sg8
I1
sg9
g17
sg11
V\u9634\u9675\u6cc9
p96
sg13
g19
sa(dp97
g6
g16
sg8
I1
sg9
g17
sg11
V\u9e64\u9876
p98
sg13
g19
sa(dp99
g6
g7
sg8
I1
sg9
g10
sg11
V\u8033\u804b
p100
sg13
g14
sa(dp101
g6
g16
sg8
I1
sg9
g17
sg11
V\u542c\u5bab
p102
sg13
g19
sa(dp103
g6
g21
sg8
I1
sg9
g22
sg11
V\u542c\u5bab\uff0c\u4e2d\u6e1a
p104
sg13
g24
sa(dp105
g6
g16
sg8
I1
sg9
g17
sg11
V\u7ff3\u98ce
p106
sg13
g19
sa(dp107
g6
g21
sg8
I1
sg9
g22
sg11
V\u542c\u5bab\uff0c\u5916\u5173
p108
sg13
g24
sa(dp109
g6
g16
sg8
I1
sg9
g17
sg11
V\u542c\u4f1a
p110
sg13
g19
sa(dp111
g6
g21
sg8
I1
sg9
g22
sg11
V\u542c\u5bab\uff0c\u7ff3\u98ce
p112
sg13
g24
sa(dp113
g6
g16
sg8
I1
sg9
g17
sg11
V\u8033\u95e8
p114
sg13
g19
sa(dp115
g6
g21
sg8
I1
sg9
g22
sg11
V\u542c\u5bab\uff0c\u8033\u95e8
p116
sg13
g24
sa(dp117
g6
g21
sg8
I1
sg9
g22
sg11
V\u542c\u5bab\uff0c\u542c\u4f1a
p118
sg13
g24
sa(dp119
g6
g21
sg8
I1
sg9
g22
sg11
V\u542c\u5bab\uff0c\u8db3\u4e34\u6ce3
p120
sg13
g24
sa(dp121
g6
g16
sg8
I1
sg9
g17
sg11
V\u767e\u4f1a
p122
sg13
g19
sa(dp123
g6
g21
sg8
I1
sg9
g22
sg11
V\u542c\u5bab\uff0c\u4fa0\u6eaa
p124
sg13
g24
sa(dp125
g6
g21
sg8
I1
sg9
g22
sg11
V\u542c\u5bab\uff0c\u4e09\u9634\u4ea4
p126
sg13
g24
sa(dp127
g6
g16
sg8
I2
sg9
g17
sg11
V\u5408\u8c37
p128
sg13
g19
sa(dp129
g6
g21
sg8
I1
sg9
g22
sg11
V\u542c\u5bab\uff0c\u5408\u8c37
p130
sg13
g24
sa(dp131
g6
g16
sg8
I3
sg9
g17
sg11
V\u592a\u51b2
p132
sg13
g19
sa(dp133
g6
g21
sg8
I1
sg9
g22
sg11
V\u542c\u5bab\uff0c\u98ce\u6c60
p134
sg13
g24
sa(dp135
g6
g7
sg8
I1
sg9
g10
sg11
V\u7259\u75db
p136
sg13
g14
sa(dp137
g6
g21
sg8
I1
sg9
g22
sg11
V\u5408\u8c37\uff0c\u988a\u8f66
p138
sg13
g24
sa(dp139
g6
g16
sg8
I1
sg9
g17
sg11
V\u988a\u8f66
p140
sg13
g19
sa(dp141
g6
g21
sg8
I1
sg9
g22
sg11
V\u5408\u8c37\uff0c\u4e0b\u5173
p142
sg13
g24
sa(dp143
g6
g16
sg8
I1
sg9
g17
sg11
V\u4e0b\u5173
p144
sg13
g19
sa(dp145
g6
g21
sg8
I1
sg9
g22
sg11
V\u988a\u8f66\uff0c\u4e0b\u5173
p146
sg13
g24
sa(dp147
g6
g16
sg8
I1
sg9
g17
sg11
V\u5185\u5ead
p148
sg13
g19
sa(dp149
g6
g21
sg8
I1
sg9
g22
sg11
V\u5408\u8c37\uff0c\u988a\u8f66\uff0c\u4e0b\u5173
p150
sg13
g24
sa(dp151
g6
g16
sg8
I2
sg9
g17
sg11
V\u592a\u6eaa
p152
sg13
g19
sa(dp153
g6
g21
sg8
I1
sg9
g22
sg11
V\u5408\u8c37\uff0c\u5185\u5ead
p154
sg13
g24
sa(dp155
g6
g21
sg8
I1
sg9
g22
sg11
V\u988a\u8f66\uff0c\u5185\u5ead
p156
sg13
g24
sa(dp157
g6
g16
sg8
I1
sg9
g17
sg11
V\u592a\u9633
p158
sg13
g19
sa(dp159
g6
g21
sg8
I1
sg9
g22
sg11
V\u5408\u8c37\uff0c\u988a\u8f66\uff0c\u5185\u5ead
p160
sg13
g24
sa(dp161
g6
g16
sg8
I1
sg9
g17
sg11
V\u4e8c\u95f4
p162
sg13
g19
sa(dp163
g6
g21
sg8
I1
sg9
g22
sg11
V\u4e0b\u5173\uff0c\u5185\u5ead
p164
sg13
g24
sa(dp165
g6
g16
sg8
I1
sg9
g17
sg11
V\u5927\u8fce
p166
sg13
g19
sa(dp167
g6
g21
sg8
I1
sg9
g22
sg11
V\u5408\u8c37\uff0c\u4e0b\u5173\uff0c\u5185\u5ead
p168
sg13
g24
sa(dp169
g6
g21
sg8
I1
sg9
g22
sg11
V\u988a\u8f66\uff0c\u4e0b\u5173\uff0c\u5185\u5ead
p170
sg13
g24
sa(dp171
g6
g7
sg8
I1
sg9
g10
sg11
V\u80f8\u75f9
p172
sg13
g14
sa(dp173
g6
g16
sg8
I1
sg9
g17
sg11
V\u5185\u5173
p174
sg13
g19
sa(dp175
g6
g21
sg8
I1
sg9
g22
sg11
V\u5fc3\u4fde  \u5185\u5173
p176
sg13
g24
sa(dp177
g6
g16
sg8
I1
sg9
g17
sg11
V\u5fc3\u4fde
p178
sg13
g19
sa(dp179
g6
g21
sg8
I1
sg9
g22
sg11
V\u5185\u5173  \u8188\u4fde
p180
sg13
g24
sa(dp181
g6
g16
sg8
I1
sg9
g17
sg11
V\u81bb\u4e2d
p182
sg13
g19
sa(dp183
g6
g21
sg8
I1
sg9
g22
sg11
V\u5185\u5173  \u4e09\u9634\u4ea4
p184
sg13
g24
sa(dp185
g6
g21
sg8
I1
sg9
g22
sg11
V\u5185\u5173  \u8db3\u4e09\u91cc
p186
sg13
g24
sa(dp187
g6
g16
sg8
I1
sg9
g17
sg11
V\u53a5\u9634\u4fde
p188
sg13
g19
sa(dp189
g6
g21
sg8
I1
sg9
g22
sg11
V\u5185\u5173  \u592a\u51b2
p190
sg13
g24
sa(dp191
g6
g16
sg8
I1
sg9
g17
sg11
V\u795e\u95e8
p192
sg13
g19
sa(dp193
g6
g21
sg8
I1
sg9
g22
sg11
V\u5185\u5173  \u795e\u95e8
p194
sg13
g24
sa(dp195
g6
g21
sg8
I1
sg9
g22
sg11
V\u5185\u5173  \u53a5\u9634\u4fde
p196
sg13
g24
sa(dp197
g6
g16
sg8
I1
sg9
g17
sg11
V\u8188\u4fde
p198
sg13
g19
sa(dp199
g6
g21
sg8
I1
sg9
g22
sg11
V\u5185\u5173 \u81bb\u4e2d
p200
sg13
g24
sa(dp201
g6
g16
sg8
I1
sg9
g17
sg11
V\u5de8\u9619
p202
sg13
g19
sa(dp203
g6
g21
sg8
I1
sg9
g22
sg11
V\u5185\u5173 \u90c4\u95e8
p204
sg13
g24
sa(dp205
g6
g16
sg8
I1
sg9
g17
sg11
V\u90c4\u95e8
p206
sg13
g19
sa(dp207
g6
g21
sg8
I1
sg9
g22
sg11
V\u5185\u5173 \u5de8\u9619
p208
sg13
g24
sa(dp209
g6
g7
sg8
I1
sg9
g10
sg11
V\u8155\u7ba1\u7efc\u5408\u5f81
p210
sg13
g14
sa(dp211
g6
g21
sg8
I2
sg9
g22
sg11
V\u5173\u5143\uff0c\u4e09\u9634\u4ea4
p212
sg13
g24
sa(dp213
g6
g16
sg8
I2
sg9
g17
sg11
V\u5173\u5143
p214
sg13
g19
sa(dp215
g6
g21
sg8
I1
sg9
g22
sg11
V\u5173\u5143\uff0c\u4e2d\u7ea7
p216
sg13
g24
sa(dp217
g6
g16
sg8
I1
sg9
g17
sg11
V\u4e2d\u7ea7
p218
sg13
g19
sa(dp219
g6
g21
sg8
I1
sg9
g22
sg11
V\u5173\u5143\uff0c\u5b50\u5bab
p220
sg13
g24
sa(dp221
g6
g16
sg8
I1
sg9
g17
sg11
V\u5b50\u5bab
p222
sg13
g19
sa(dp223
g6
g21
sg8
I2
sg9
g22
sg11
V\u5173\u5143\uff0c\u8db3\u4e09\u91cc
p224
sg13
g24
sa(dp225
g6
g21
sg8
I1
sg9
g22
sg11
V\u5173\u5143\uff0c\u80be\u4fde
p226
sg13
g24
sa(dp227
g6
g21
sg8
I2
sg9
g22
sg11
V\u5173\u5143\uff0c\u6c14\u6d77
p228
sg13
g24
sa(dp229
g6
g21
sg8
I1
sg9
g22
sg11
V\u4e09\u9634\u4ea4\uff0c\u4e2d\u7ea7
p230
sg13
g24
sa(dp231
g6
g21
sg8
I1
sg9
g22
sg11
V\u4e09\u9634\u4ea4\uff0c\u5b50\u5bab
p232
sg13
g24
sa(dp233
g6
g21
sg8
I1
sg9
g22
sg11
V\u4e09\u9634\u4ea4\uff0c\u8db3\u4e09\u91cc
p234
sg13
g24
sa(dp235
g6
g16
sg8
I2
sg9
g17
sg11
V\u5f52\u6765
p236
sg13
g19
sa(dp237
g6
g21
sg8
I1
sg9
g22
sg11
V\u4e09\u9634\u4ea4\uff0c\u80be\u4fde
p238
sg13
g24
sa(dp239
g6
g7
sg8
I1
sg9
g10
sg11
V\u6708\u7ecf\u4e0d\u8c03
p240
sg13
g14
sa(dp241
g6
g21
sg8
I1
sg9
g22
sg11
V\u6c14\u6d77\uff0c\u4e09\u9634\u4ea4
p242
sg13
g24
sa(dp243
g6
g16
sg8
I1
sg9
g17
sg11
V\u4e2d\u6781
p244
sg13
g19
sa(dp245
g6
g21
sg8
I1
sg9
g22
sg11
V\u5173\u5143\uff0c\u6c14\u6d77\uff0c\u4e09\u9634\u4ea4
p246
sg13
g24
sa(dp247
g6
g21
sg8
I1
sg9
g22
sg11
V\u4e2d\u6781\uff0c\u5173\u5143
p248
sg13
g24
sa(dp249
g6
g21
sg8
I1
sg9
g22
sg11
V\u4e2d\u6781\uff0c\u4e09\u9634\u4ea4
p250
sg13
g24
sa(dp251
g6
g21
sg8
I1
sg9
g22
sg11
V\u4e2d\u6781\uff0c\u5173\u5143\uff0c\u4e09\u9634\u4ea4
p252
sg13
g24
sa(dp253
g6
g21
sg8
I1
sg9
g22
sg11
V\u8db3\u4e09\u91cc\uff0c\u4e09\u9634\u4ea4
p254
sg13
g24
sa(dp255
g6
g21
sg8
I1
sg9
g22
sg11
V\u5173\u5143\uff0c\u8840\u6d77
p256
sg13
g24
sasS'edges'
p257
(lp258
(dp259
S'count'
p260
F86.0
sS'target'
p261
I1
sS'source'
p262
I0
sS'marker_type'
p263
g24
sS'percentage'
p264
F11.6
sg11
F86.0
sa(dp265
g260
F24.0
sg261
I2
sg262
I0
sg263
g24
sg264
V
p266
sg11
F24.0
sa(dp267
g260
F75.0
sg261
I3
sg262
I0
sg263
g24
sg264
F10.1
sg11
F75.0
sa(dp268
g260
F19.0
sg261
I4
sg262
I0
sg263
g24
sg264
g266
sg11
F19.0
sa(dp269
g260
F48.0
sg261
I5
sg262
I0
sg263
g24
sg264
F6.5
sg11
F48.0
sa(dp270
g260
F28.0
sg261
I6
sg262
I0
sg263
g24
sg264
g266
sg11
F28.0
sa(dp271
g260
F39.0
sg261
I7
sg262
I0
sg263
g24
sg264
F5.3
sg11
F39.0
sa(dp272
g260
F18.0
sg261
I8
sg262
I0
sg263
g24
sg264
g266
sg11
F18.0
sa(dp273
g260
F35.0
sg261
I9
sg262
I0
sg263
g24
sg264
F4.7
sg11
F35.0
sa(dp274
g260
F19.0
sg261
I10
sg262
I0
sg263
g24
sg264
g266
sg11
F19.0
sa(dp275
g260
F29.0
sg261
I11
sg262
I0
sg263
g24
sg264
F3.9
sg11
F29.0
sa(dp276
g260
F17.0
sg261
I12
sg262
I0
sg263
g24
sg264
g266
sg11
F17.0
sa(dp277
g260
F26.0
sg261
I13
sg262
I0
sg263
g24
sg264
F3.5
sg11
F26.0
sa(dp278
g260
F14.0
sg261
I14
sg262
I0
sg263
g24
sg264
g266
sg11
F14.0
sa(dp279
g260
F25.0
sg261
I15
sg262
I0
sg263
g24
sg264
F3.4
sg11
F25.0
sa(dp280
g260
F17.0
sg261
I16
sg262
I0
sg263
g24
sg264
g266
sg11
F17.0
sa(dp281
g260
F17.0
sg261
I17
sg262
I0
sg263
g24
sg264
F2.3
sg11
F17.0
sa(dp282
g260
F17.0
sg261
I18
sg262
I0
sg263
g24
sg264
g266
sg11
F17.0
sa(dp283
g260
F16.0
sg261
I19
sg262
I0
sg263
g24
sg264
F2.2
sg11
F16.0
sa(dp284
g260
F20.0
sg261
I20
sg262
I0
sg263
g24
sg264
g266
sg11
F20.0
sa(dp285
g260
F17.0
sg261
I22
sg262
I21
sg263
g24
sg264
F0.0623
sg11
F17.0
sa(dp286
g260
F16.0
sg261
I23
sg262
I21
sg263
g24
sg264
F0.0586
sg11
F16.0
sa(dp287
g260
F14.0
sg261
I24
sg262
I21
sg263
g24
sg264
F0.0513
sg11
F14.0
sa(dp288
g260
F13.0
sg261
I25
sg262
I21
sg263
g24
sg264
F0.0476
sg11
F13.0
sa(dp289
g260
F12.0
sg261
I26
sg262
I21
sg263
g24
sg264
F0.044
sg11
F12.0
sa(dp290
g260
F10.0
sg261
I27
sg262
I21
sg263
g24
sg264
F0.0366
sg11
F10.0
sa(dp291
g260
F10.0
sg261
I28
sg262
I21
sg263
g24
sg264
F0.0366
sg11
F10.0
sa(dp292
g260
F10.0
sg261
I29
sg262
I21
sg263
g24
sg264
F0.0366
sg11
F10.0
sa(dp293
g260
F10.0
sg261
I30
sg262
I21
sg263
g24
sg264
F0.0366
sg11
F10.0
sa(dp294
g260
F9.0
sg261
I31
sg262
I21
sg263
g24
sg264
F0.033
sg11
F9.0
sa(dp295
g260
F708.0
sg261
I33
sg262
I32
sg263
g24
sg264
g266
sg11
F708.0
sa(dp296
g260
F664.0
sg261
I34
sg262
I32
sg263
g24
sg264
g266
sg11
F664.0
sa(dp297
g260
F626.0
sg261
I35
sg262
I32
sg263
g24
sg264
g266
sg11
F626.0
sa(dp298
g260
F559.0
sg261
I36
sg262
I32
sg263
g24
sg264
g266
sg11
F559.0
sa(dp299
g260
F537.0
sg261
I26
sg262
I32
sg263
g24
sg264
g266
sg11
F537.0
sa(dp300
g260
F473.0
sg261
I37
sg262
I32
sg263
g24
sg264
g266
sg11
F473.0
sa(dp301
g260
F438.0
sg261
I38
sg262
I32
sg263
g24
sg264
g266
sg11
F438.0
sa(dp302
g260
F340.0
sg261
I39
sg262
I32
sg263
g24
sg264
g266
sg11
F340.0
sa(dp303
g260
F283.0
sg261
I7
sg262
I32
sg263
g24
sg264
g266
sg11
F283.0
sa(dp304
g260
F142.0
sg261
I25
sg262
I32
sg263
g24
sg264
g266
sg11
F142.0
sa(dp305
g260
F204.0
sg261
I41
sg262
I40
sg263
g24
sg264
g266
sg11
F204.0
sa(dp306
g260
F89.0
sg261
I42
sg262
I40
sg263
g24
sg264
g266
sg11
F89.0
sa(dp307
g260
F203.0
sg261
I43
sg262
I40
sg263
g24
sg264
g266
sg11
F203.0
sa(dp308
g260
F74.0
sg261
I44
sg262
I40
sg263
g24
sg264
g266
sg11
F74.0
sa(dp309
g260
F196.0
sg261
I45
sg262
I40
sg263
g24
sg264
g266
sg11
F196.0
sa(dp310
g260
F181.0
sg261
I46
sg262
I40
sg263
g24
sg264
g266
sg11
F181.0
sa(dp311
g260
F163.0
sg261
I47
sg262
I40
sg263
g24
sg264
g266
sg11
F163.0
sa(dp312
g260
F147.0
sg261
I48
sg262
I40
sg263
g24
sg264
g266
sg11
F147.0
sa(dp313
g260
F107.0
sg261
I19
sg262
I40
sg263
g24
sg264
g266
sg11
F107.0
sa(dp314
g260
F175.0
sg261
I49
sg262
I40
sg263
g24
sg264
g266
sg11
F175.0
sa(dp315
g260
F85.0
sg261
I15
sg262
I40
sg263
g24
sg264
g266
sg11
F85.0
sa(dp316
g260
F30.0
sg261
I50
sg262
I40
sg263
g24
sg264
g266
sg11
F30.0
sa(dp317
g260
F53.0
sg261
I51
sg262
I40
sg263
g24
sg264
g266
sg11
F53.0
sa(dp318
g260
F31.0
sg261
I52
sg262
I40
sg263
g24
sg264
g266
sg11
F31.0
sa(dp319
g260
F50.0
sg261
I9
sg262
I40
sg263
g24
sg264
g266
sg11
F50.0
sa(dp320
g260
F43.0
sg261
I53
sg262
I40
sg263
g24
sg264
g266
sg11
F43.0
sa(dp321
g260
F50.0
sg261
I54
sg262
I40
sg263
g24
sg264
g266
sg11
F50.0
sa(dp322
g260
F48.0
sg261
I55
sg262
I40
sg263
g24
sg264
g266
sg11
F48.0
sa(dp323
g260
F48.0
sg261
I56
sg262
I40
sg263
g24
sg264
g266
sg11
F48.0
sa(dp324
g260
F41.0
sg261
I57
sg262
I40
sg263
g24
sg264
g266
sg11
F41.0
sa(dp325
g260
F293.0
sg261
I54
sg262
I58
sg263
g24
sg264
g266
sg11
F293.0
sa(dp326
g260
F176.0
sg261
I59
sg262
I58
sg263
g24
sg264
F0.369
sg11
F176.0
sa(dp327
g260
F210.0
sg261
I60
sg262
I58
sg263
g24
sg264
g266
sg11
F210.0
sa(dp328
g260
F164.0
sg261
I61
sg262
I58
sg263
g24
sg264
F0.3438
sg11
F164.0
sa(dp329
g260
F195.0
sg261
I62
sg262
I58
sg263
g24
sg264
g266
sg11
F195.0
sa(dp330
g260
F144.0
sg261
I63
sg262
I58
sg263
g24
sg264
F0.3019
sg11
F144.0
sa(dp331
g260
F115.0
sg261
I64
sg262
I58
sg263
g24
sg264
g266
sg11
F115.0
sa(dp332
g260
F127.0
sg261
I65
sg262
I58
sg263
g24
sg264
F0.2662
sg11
F127.0
sa(dp333
g260
F62.0
sg261
I66
sg262
I58
sg263
g24
sg264
g266
sg11
F62.0
sa(dp334
g260
F85.0
sg261
I67
sg262
I58
sg263
g24
sg264
F0.1782
sg11
F85.0
sa(dp335
g260
F49.0
sg261
I9
sg262
I58
sg263
g24
sg264
g266
sg11
F49.0
sa(dp336
g260
F71.0
sg261
I68
sg262
I58
sg263
g24
sg264
F0.1488
sg11
F71.0
sa(dp337
g260
F35.0
sg261
I69
sg262
I58
sg263
g24
sg264
g266
sg11
F35.0
sa(dp338
g260
F61.0
sg261
I70
sg262
I58
sg263
g24
sg264
F0.1279
sg11
F61.0
sa(dp339
g260
F27.0
sg261
I71
sg262
I58
sg263
g24
sg264
g266
sg11
F27.0
sa(dp340
g260
F60.0
sg261
I72
sg262
I58
sg263
g24
sg264
F0.1258
sg11
F60.0
sa(dp341
g260
F24.0
sg261
I73
sg262
I58
sg263
g24
sg264
g266
sg11
F24.0
sa(dp342
g260
F54.0
sg261
I74
sg262
I58
sg263
g24
sg264
F0.1132
sg11
F54.0
sa(dp343
g260
F23.0
sg261
I36
sg262
I58
sg263
g24
sg264
g266
sg11
F23.0
sa(dp344
g260
F51.0
sg261
I75
sg262
I58
sg263
g24
sg264
F0.1069
sg11
F51.0
sa(dp345
g260
F105.0
sg261
I77
sg262
I76
sg263
g24
sg264
g266
sg11
F105.0
sa(dp346
g260
F54.0
sg261
I78
sg262
I76
sg263
g24
sg264
g266
sg11
F54.0
sa(dp347
g260
F57.0
sg261
I79
sg262
I76
sg263
g24
sg264
g266
sg11
F57.0
sa(dp348
g260
F19.0
sg261
I80
sg262
I76
sg263
g24
sg264
g266
sg11
F19.0
sa(dp349
g260
F50.0
sg261
I81
sg262
I76
sg263
g24
sg264
g266
sg11
F50.0
sa(dp350
g260
F17.0
sg261
I82
sg262
I76
sg263
g24
sg264
g266
sg11
F17.0
sa(dp351
g260
F34.0
sg261
I36
sg262
I76
sg263
g24
sg264
g266
sg11
F34.0
sa(dp352
g260
F29.0
sg261
I83
sg262
I76
sg263
g24
sg264
g266
sg11
F29.0
sa(dp353
g260
F30.0
sg261
I84
sg262
I76
sg263
g24
sg264
g266
sg11
F30.0
sa(dp354
g260
F15.0
sg261
I85
sg262
I76
sg263
g24
sg264
g266
sg11
F15.0
sa(dp355
g260
F23.0
sg261
I86
sg262
I76
sg263
g24
sg264
g266
sg11
F23.0
sa(dp356
g260
F23.0
sg261
I87
sg262
I76
sg263
g24
sg264
g266
sg11
F23.0
sa(dp357
g260
F22.0
sg261
I25
sg262
I76
sg263
g24
sg264
g266
sg11
F22.0
sa(dp358
g260
F30.0
sg261
I88
sg262
I76
sg263
g24
sg264
g266
sg11
F30.0
sa(dp359
g260
F22.0
sg261
I89
sg262
I76
sg263
g24
sg264
g266
sg11
F22.0
sa(dp360
g260
F47.0
sg261
I90
sg262
I76
sg263
g24
sg264
g266
sg11
F47.0
sa(dp361
g260
F17.0
sg261
I91
sg262
I76
sg263
g24
sg264
g266
sg11
F17.0
sa(dp362
g260
F15.0
sg261
I92
sg262
I76
sg263
g24
sg264
g266
sg11
F15.0
sa(dp363
g260
F17.0
sg261
I93
sg262
I76
sg263
g24
sg264
g266
sg11
F17.0
sa(dp364
g260
F15.0
sg261
I94
sg262
I76
sg263
g24
sg264
g266
sg11
F15.0
sa(dp365
g260
F305.0
sg261
I25
sg262
I95
sg263
g24
sg264
g266
sg11
F305.0
sa(dp366
g260
F239.0
sg261
I96
sg262
I95
sg263
g24
sg264
g266
sg11
F239.0
sa(dp367
g260
F302.0
sg261
I97
sg262
I95
sg263
g24
sg264
g266
sg11
F302.0
sa(dp368
g260
F229.0
sg261
I98
sg262
I95
sg263
g24
sg264
g266
sg11
F229.0
sa(dp369
g260
F261.0
sg261
I99
sg262
I95
sg263
g24
sg264
g266
sg11
F261.0
sa(dp370
g260
F200.0
sg261
I100
sg262
I95
sg263
g24
sg264
g266
sg11
F200.0
sa(dp371
g260
F237.0
sg261
I101
sg262
I95
sg263
g24
sg264
g266
sg11
F237.0
sa(dp372
g260
F136.0
sg261
I102
sg262
I95
sg263
g24
sg264
g266
sg11
F136.0
sa(dp373
g260
F171.0
sg261
I36
sg262
I95
sg263
g24
sg264
g266
sg11
F171.0
sa(dp374
g260
F105.0
sg261
I103
sg262
I95
sg263
g24
sg264
g266
sg11
F105.0
sa(dp375
g260
F132.0
sg261
I28
sg262
I95
sg263
g24
sg264
g266
sg11
F132.0
sa(dp376
g260
F103.0
sg261
I104
sg262
I95
sg263
g24
sg264
g266
sg11
F103.0
sa(dp377
g260
F114.0
sg261
I22
sg262
I95
sg263
g24
sg264
g266
sg11
F114.0
sa(dp378
g260
F212.0
sg261
I105
sg262
I95
sg263
g24
sg264
g266
sg11
F212.0
sa(dp379
g260
F91.0
sg261
I56
sg262
I95
sg263
g24
sg264
g266
sg11
F91.0
sa(dp380
g260
F202.0
sg261
I106
sg262
I95
sg263
g24
sg264
g266
sg11
F202.0
sa(dp381
g260
F84.0
sg261
I26
sg262
I95
sg263
g24
sg264
g266
sg11
F84.0
sa(dp382
g260
F151.0
sg261
I107
sg262
I95
sg263
g24
sg264
g266
sg11
F151.0
sa(dp383
g260
F78.0
sg261
I108
sg262
I95
sg263
g24
sg264
g266
sg11
F78.0
sa(dp384
g260
F102.0
sg261
I109
sg262
I95
sg263
g24
sg264
g266
sg11
F102.0
sa(dp385
g260
F254.0
sg261
I97
sg262
I110
sg263
g24
sg264
g266
sg11
F254.0
sa(dp386
g260
F198.0
sg261
I96
sg262
I110
sg263
g24
sg264
g266
sg11
F198.0
sa(dp387
g260
F235.0
sg261
I25
sg262
I110
sg263
g24
sg264
g266
sg11
F235.0
sa(dp388
g260
F135.0
sg261
I104
sg262
I110
sg263
g24
sg264
g266
sg11
F135.0
sa(dp389
g260
F160.0
sg261
I22
sg262
I110
sg263
g24
sg264
g266
sg11
F160.0
sa(dp390
g260
F130.0
sg261
I111
sg262
I110
sg263
g24
sg264
g266
sg11
F130.0
sa(dp391
g260
F111.0
sg261
I112
sg262
I110
sg263
g24
sg264
g266
sg11
F111.0
sa(dp392
g260
F109.0
sg261
I113
sg262
I110
sg263
g24
sg264
g266
sg11
F109.0
sa(dp393
g260
F93.0
sg261
I36
sg262
I110
sg263
g24
sg264
g266
sg11
F93.0
sa(dp394
g260
F99.0
sg261
I114
sg262
I110
sg263
g24
sg264
g266
sg11
F99.0
sa(dp395
g260
F88.0
sg261
I26
sg262
I110
sg263
g24
sg264
g266
sg11
F88.0
sa(dp396
g260
F93.0
sg261
I115
sg262
I110
sg263
g24
sg264
g266
sg11
F93.0
sa(dp397
g260
F77.0
sg261
I56
sg262
I110
sg263
g24
sg264
g266
sg11
F77.0
sa(dp398
g260
F83.0
sg261
I116
sg262
I110
sg263
g24
sg264
g266
sg11
F83.0
sa(dp399
g260
F61.0
sg261
I28
sg262
I110
sg263
g24
sg264
g266
sg11
F61.0
sa(dp400
g260
F81.0
sg261
I117
sg262
I110
sg263
g24
sg264
g266
sg11
F81.0
sa(dp401
g260
F57.0
sg261
I108
sg262
I110
sg263
g24
sg264
g266
sg11
F57.0
sa(dp402
g260
F77.0
sg261
I102
sg262
I110
sg263
g24
sg264
g266
sg11
F77.0
sa(dp403
g260
F54.0
sg261
I66
sg262
I110
sg263
g24
sg264
g266
sg11
F54.0
sa(dp404
g260
F73.0
sg261
I118
sg262
I110
sg263
g24
sg264
g266
sg11
F73.0
sass.