(dp0
V\u7a74\u4f4d\u6807\u51c6\u56fe\u8c31
p1
(dp2
S'nodes'
p3
(lp4
(dp5
S'content'
p6
V\u75c7\u72b6
p7
sS'times'
p8
I1
sS'type'
p9
S'symptom'
p10
sS'name'
p11
V\u60b2\u6050
p12
sS'level'
p13
S'level0'
p14
sa(dp15
g11
V\u7075\u9053
p16
sg13
S'level1'
p17
sg8
I1
sg6
V\u7a74\u4f4d
p18
sS'part'
p19
S''
p20
sg9
S'xuewei'
p21
sS'channel'
p22
V\u5fc3
p23
sa(dp24
g6
g7
sg8
I3
sg9
g10
sg11
V\u75f4\u5446
p25
sg13
g14
sa(dp26
g11
V\u767e\u4f1a
p27
sg13
g17
sg8
I5
sg6
g18
sg19
g20
sg9
g21
sg22
V\u7763\u8109
p28
sa(dp29
g11
V\u795e\u95e8
p30
sg13
g17
sg8
I7
sg6
g18
sg19
g20
sg9
g21
sg22
g23
sa(dp31
g11
V\u5927\u949f
p32
sg13
g17
sg8
I2
sg6
g18
sg19
g20
sg9
g21
sg22
V\u80be
p33
sa(dp34
g6
g7
sg8
I4
sg9
g10
sg11
V\u62bd\u6410
p35
sg13
g14
sa(dp36
g11
V\u7b4b\u7f29
p37
sg13
g17
sg8
I2
sg6
g18
sg19
g20
sg9
g21
sg22
g28
sa(dp38
g11
V\u9633\u8c37
p39
sg13
g17
sg8
I4
sg6
g18
sg19
g20
sg9
g21
sg22
V\u5c0f\u80a0
p40
sa(dp41
g11
V\u4e94\u5904
p42
sg13
g17
sg8
I2
sg6
g18
sg19
g20
sg9
g21
sg22
V\u8180\u80f1
p43
sa(dp44
g6
g7
sg8
I22
sg9
g10
sg11
V\u766b
p45
sg13
g14
sa(dp46
g11
V\u8111\u6237
p47
sg13
g17
sg8
I3
sg6
g18
sg19
g20
sg9
g21
sg22
g28
sa(dp48
g11
V\u5f3a\u95f4
p49
sg13
g17
sg8
I3
sg6
g18
sg19
g20
sg9
g21
sg22
g28
sa(dp50
g11
V\u540e\u9876
p51
sg13
g17
sg8
I3
sg6
g18
sg19
g20
sg9
g21
sg22
g28
sa(dp52
g11
V\u795e\u5ead
p53
sg13
g17
sg8
I3
sg6
g18
sg19
g20
sg9
g21
sg22
g28
sa(dp54
g11
V\u6c34\u6c9f
p55
sg13
g17
sg8
I3
sg6
g18
sg19
g20
sg9
g21
sg22
g28
sa(dp56
g11
V\u5de8\u9619
p57
sg13
g17
sg8
I3
sg6
g18
sg19
g20
sg9
g21
sg22
V\u4efb\u8109
p58
sa(dp59
g11
V\u9e20\u5c3e
p60
sg13
g17
sg8
I3
sg6
g18
sg19
g20
sg9
g21
sg22
g58
sa(dp61
g11
V\u540e\u6eaa
p62
sg13
g17
sg8
I3
sg6
g18
sg19
g20
sg9
g21
sg22
g40
sa(dp63
g11
V\u542c\u5bab
p64
sg13
g17
sg8
I3
sg6
g18
sg19
g20
sg9
g21
sg22
g40
sa(dp65
g11
V\u5929\u67f1
p66
sg13
g17
sg8
I3
sg6
g18
sg19
g20
sg9
g21
sg22
g43
sa(dp67
g11
V\u809d\u4fde
p68
sg13
g17
sg8
I3
sg6
g18
sg19
g20
sg9
g21
sg22
g43
sa(dp69
g11
V\u7533\u8109
p70
sg13
g17
sg8
I3
sg6
g18
sg19
g20
sg9
g21
sg22
g43
sa(dp71
g11
V\u7edc\u5374
p72
sg13
g17
sg8
I2
sg6
g18
sg19
g20
sg9
g21
sg22
g43
sa(dp73
g11
V\u95f4\u4f7f
p74
sg13
g17
sg8
I4
sg6
g18
sg19
g20
sg9
g21
sg22
V\u5fc3\u5305
p75
sa(dp76
g11
V\u5185\u5173
p77
sg13
g17
sg8
I4
sg6
g18
sg19
g20
sg9
g21
sg22
g75
sa(dp78
g11
V\u5927\u9675
p79
sg13
g17
sg8
I4
sg6
g18
sg19
g20
sg9
g21
sg22
g75
sa(dp80
g11
V\u52b3\u5bab
p81
sg13
g17
sg8
I4
sg6
g18
sg19
g20
sg9
g21
sg22
g75
sa(dp82
g11
V\u98ce\u6c60
p83
sg13
g17
sg8
I3
sg6
g18
sg19
g20
sg9
g21
sg22
V\u80c6
p84
sa(dp85
g11
V\u5916\u4e18
p86
sg13
g17
sg8
I3
sg6
g18
sg19
g20
sg9
g21
sg22
g84
sa(dp87
g6
g7
sg8
I22
sg9
g10
sg11
V\u766b\u72c2
p88
sg13
g14
sa(dp89
g11
V\u957f\u5f3a
p90
sg13
g17
sg8
I1
sg6
g18
sg19
g20
sg9
g21
sg22
g28
sa(dp91
g11
V\u8eab\u67f1
p92
sg13
g17
sg8
I1
sg6
g18
sg19
g20
sg9
g21
sg22
g28
sa(dp93
g11
V\u98ce\u5e9c
p94
sg13
g17
sg8
I1
sg6
g18
sg19
g20
sg9
g21
sg22
g28
sa(dp95
g11
V\u4e0a\u661f
p96
sg13
g17
sg8
I1
sg6
g18
sg19
g20
sg9
g21
sg22
g28
sa(dp97
g11
V\u9f88\u4ea4
p98
sg13
g17
sg8
I1
sg6
g18
sg19
g20
sg9
g21
sg22
g28
sa(dp99
g11
V\u5c11\u5546
p100
sg13
g17
sg8
I2
sg6
g18
sg19
g20
sg9
g21
sg22
V\u80ba\u7ecf
p101
sa(dp102
g11
V\u5408\u8c37
p103
sg13
g17
sg8
I1
sg6
g18
sg19
g20
sg9
g21
sg22
V\u5927\u80a0\u7ecf
p104
sa(dp105
g11
V\u8db3\u4e09\u91cc
p106
sg13
g17
sg8
I1
sg6
g18
sg19
g20
sg9
g21
sg22
V\u80c3\u7ecf
p107
sa(dp108
g11
V\u4e30\u9686
p109
sg13
g17
sg8
I1
sg6
g18
sg19
g20
sg9
g21
sg22
g107
sa(dp110
g11
V\u89e3\u6eaa
p111
sg13
g17
sg8
I1
sg6
g18
sg19
g20
sg9
g21
sg22
g107
sa(dp112
g11
V\u51b2\u9633
p113
sg13
g17
sg8
I1
sg6
g18
sg19
g20
sg9
g21
sg22
g107
sa(dp114
g11
V\u5386\u5151
p115
sg13
g17
sg8
I3
sg6
g18
sg19
g20
sg9
g21
sg22
g107
sa(dp116
g11
V\u524d\u8c37
p117
sg13
g17
sg8
I1
sg6
g18
sg19
g20
sg9
g21
sg22
g40
sa(dp118
g11
V\u652f\u6b63
p119
sg13
g17
sg8
I1
sg6
g18
sg19
g20
sg9
g21
sg22
g40
sa(dp120
g11
V\u675f\u9aa8
p121
sg13
g17
sg8
I1
sg6
g18
sg19
g20
sg9
g21
sg22
g43
sa(dp122
g11
V\u8db3\u901a\u9aa8
p123
sg13
g17
sg8
I1
sg6
g18
sg19
g20
sg9
g21
sg22
g43
sa(dp124
g11
V\u5929\u51b2
p125
sg13
g17
sg8
I1
sg6
g18
sg19
g20
sg9
g21
sg22
g84
sa(dp126
g11
V\u5b8c\u9aa8
p127
sg13
g17
sg8
I1
sg6
g18
sg19
g20
sg9
g21
sg22
g84
sa(dp128
g6
g7
sg8
I23
sg9
g10
sg11
V\u766b\u75eb
p129
sg13
g14
sa(dp130
g11
V\u810a\u4e2d
p131
sg13
g17
sg8
I1
sg6
g18
sg19
g20
sg9
g21
sg22
g28
sa(dp132
g11
V\u56df\u4f1a
p133
sg13
g17
sg8
I1
sg6
g18
sg19
g20
sg9
g21
sg22
g28
sa(dp134
g11
V\u4e0a\u8118
p135
sg13
g17
sg8
I1
sg6
g18
sg19
g20
sg9
g21
sg22
g58
sa(dp136
g11
V\u592a\u4e59
p137
sg13
g17
sg8
I1
sg6
g18
sg19
g20
sg9
g21
sg22
g107
sa(dp138
g11
V\u6ed1\u8089\u95e8
p139
sg13
g17
sg8
I1
sg6
g18
sg19
g20
sg9
g21
sg22
g107
sa(dp140
g11
V\u5c0f\u6d77
p141
sg13
g17
sg8
I1
sg6
g18
sg19
g20
sg9
g21
sg22
g40
sa(dp142
g11
V\u7709\u51b2
p143
sg13
g17
sg8
I1
sg6
g18
sg19
g20
sg9
g21
sg22
g43
sa(dp144
g11
V\u5fc3\u4fde
p145
sg13
g17
sg8
I4
sg6
g18
sg19
g20
sg9
g21
sg22
g43
sa(dp146
g11
V\u6606\u4ed1
p147
sg13
g17
sg8
I1
sg6
g18
sg19
g20
sg9
g21
sg22
g43
sa(dp148
g11
V\u4ec6\u53c2
p149
sg13
g17
sg8
I1
sg6
g18
sg19
g20
sg9
g21
sg22
g43
sa(dp150
g11
V\u4eac\u9aa8
p151
sg13
g17
sg8
I1
sg6
g18
sg19
g20
sg9
g21
sg22
g43
sa(dp152
g11
V\u7167\u6d77
p153
sg13
g17
sg8
I1
sg6
g18
sg19
g20
sg9
g21
sg22
g33
sa(dp154
g11
V\u7b51\u5bbe
p155
sg13
g17
sg8
I1
sg6
g18
sg19
g20
sg9
g21
sg22
g33
sa(dp156
g11
V\u4f1a\u5b97
p157
sg13
g17
sg8
I1
sg6
g18
sg19
g20
sg9
g21
sg22
V\u4e09\u7126
p158
sa(dp159
g11
V\u5929\u4e95
p160
sg13
g17
sg8
I1
sg6
g18
sg19
g20
sg9
g21
sg22
g158
sa(dp161
g11
V\u4e1d\u7af9\u7a7a
p162
sg13
g17
sg8
I1
sg6
g18
sg19
g20
sg9
g21
sg22
g158
sa(dp163
g11
V\u672c\u795e
p164
sg13
g17
sg8
I1
sg6
g18
sg19
g20
sg9
g21
sg22
g84
sa(dp165
g11
V\u8111\u7a7a
p166
sg13
g17
sg8
I1
sg6
g18
sg19
g20
sg9
g21
sg22
g84
sa(dp167
g11
V\u5927\u58a9
p168
sg13
g17
sg8
I2
sg6
g18
sg19
g20
sg9
g21
sg22
V\u809d
p169
sa(dp170
g11
V\u884c\u95f4
p171
sg13
g17
sg8
I1
sg6
g18
sg19
g20
sg9
g21
sg22
g169
sa(dp172
g11
V\u5151\u7aef
p173
sg13
g17
sg8
I2
sg6
g18
sg19
g20
sg9
g21
sg22
g28
sa(dp174
g6
g7
sg8
I1
sg9
g10
sg11
V\u5455\u6cab
p175
sg13
g14
sa(dp176
g6
g7
sg8
I1
sg9
g10
sg11
V\u591a\u6101\u5584\u611f
p177
sg13
g14
sa(dp178
g11
V\u795e\u9053
p179
sg13
g17
sg8
I3
sg6
g18
sg19
g20
sg9
g21
sg22
g28
sa(dp180
g6
g7
sg8
I1
sg9
g10
sg11
V\u591a\u68a6
p181
sg13
g14
sa(dp182
g6
g7
sg8
I1
sg9
g10
sg11
V\u591a\u7761
p183
sg13
g14
sa(dp184
g11
V\u77f3\u5173
p185
sg13
g17
sg8
I1
sg6
g18
sg19
g20
sg9
g21
sg22
g33
sa(dp186
g6
g7
sg8
I1
sg9
g10
sg11
V\u70e6\u6ee1
p187
sg13
g14
sa(dp188
g11
V\u4fa0\u767d
p189
sg13
g17
sg8
I1
sg6
g18
sg19
g20
sg9
g21
sg22
g101
sa(dp190
g6
g7
sg8
I3
sg9
g10
sg11
V\u9ad8\u70ed\u795e\u660f
p191
sg13
g14
sa(dp192
g11
V\u5c11\u51b2
p193
sg13
g17
sg8
I1
sg6
g18
sg19
g20
sg9
g21
sg22
g23
sa(dp194
g11
V\u5c11\u6cfd
p195
sg13
g17
sg8
I1
sg6
g18
sg19
g20
sg9
g21
sg22
g40
sa(dp196
g6
g7
sg8
I3
sg9
g10
sg11
V\u5065\u5fd8
p197
sg13
g14
sa(dp198
g6
g7
sg8
I2
sg9
g10
sg11
V\u60ca\u98ce
p199
sg13
g14
sa(dp200
g11
V\u6d8c\u6cc9
p201
sg13
g17
sg8
I1
sg6
g18
sg19
g20
sg9
g21
sg22
g33
sa(dp202
g11
V\u8155\u9aa8
p203
sg13
g17
sg8
I2
sg6
g18
sg19
g20
sg9
g21
sg22
g40
sa(dp204
g6
g7
sg8
I3
sg9
g10
sg11
V\u60ca\u60b8
p205
sg13
g14
sa(dp206
g6
g7
sg8
I1
sg9
g10
sg11
V\u60ca\u72c2
p207
sg13
g14
sa(dp208
g11
V\u66f2\u6cc9
p209
sg13
g17
sg8
I1
sg6
g18
sg19
g20
sg9
g21
sg22
g169
sa(dp210
g6
g7
sg8
I23
sg9
g10
sg11
V\u72c2
p211
sg13
g14
sa(dp212
g11
V\u66f2\u6c60
p213
sg13
g17
sg8
I2
sg6
g18
sg19
g20
sg9
g21
sg22
g104
sa(dp214
g6
g7
sg8
I1
sg9
g10
sg11
V\u5584\u60ca
p215
sg13
g14
sa(dp216
g11
V\u66f2\u6cfd
p217
sg13
g17
sg8
I1
sg6
g18
sg19
g20
sg9
g21
sg22
g75
sa(dp218
g6
g7
sg8
I5
sg9
g10
sg11
V\u795e\u660f
p219
sg13
g14
sa(dp220
g11
V\u5546\u9633
p221
sg13
g17
sg8
I1
sg6
g18
sg19
g20
sg9
g21
sg22
g104
sa(dp222
g11
V\u9690\u767d
p223
sg13
g17
sg8
I1
sg6
g18
sg19
g20
sg9
g21
sg22
V\u813e
p224
sa(dp225
g11
V\u4e2d\u51b2
p226
sg13
g17
sg8
I1
sg6
g18
sg19
g20
sg9
g21
sg22
g75
sa(dp227
g6
g7
sg8
I3
sg9
g10
sg11
V\u5931\u7720
p228
sg13
g14
sa(dp229
g11
V\u5370\u5802
p230
sg13
g17
sg8
I1
sg6
g18
sg19
g20
sg9
g21
sg22
g28
sa(dp231
g6
g7
sg8
I1
sg9
g10
sg11
V\u55dc\u5367
p232
sg13
g14
sa(dp233
g6
g7
sg8
I22
sg9
g10
sg11
V\u75eb
p234
sg13
g14
sa(dp235
g6
g7
sg8
I1
sg9
g10
sg11
V\u6613\u60ca
p236
sg13
g14
sasS'edges'
p237
(lp238
(dp239
S'source'
p240
I0
sS'target'
p241
I1
sS'marker_type'
p242
S'level2'
p243
sg11
V
p244
sa(dp245
g240
I2
sg241
I3
sg242
g243
sg11
g244
sa(dp246
g240
I2
sg241
I4
sg242
g243
sg11
g244
sa(dp247
g240
I2
sg241
I5
sg242
g243
sg11
g244
sa(dp248
g240
I6
sg241
I7
sg242
g243
sg11
g244
sa(dp249
g240
I6
sg241
I8
sg242
g243
sg11
g244
sa(dp250
g240
I6
sg241
I9
sg242
g243
sg11
g244
sa(dp251
g240
I10
sg241
I11
sg242
g243
sg11
g244
sa(dp252
g240
I10
sg241
I12
sg242
g243
sg11
g244
sa(dp253
g240
I10
sg241
I13
sg242
g243
sg11
g244
sa(dp254
g240
I10
sg241
I3
sg242
g243
sg11
g244
sa(dp255
g240
I10
sg241
I14
sg242
g243
sg11
g244
sa(dp256
g240
I10
sg241
I15
sg242
g243
sg11
g244
sa(dp257
g240
I10
sg241
I16
sg242
g243
sg11
g244
sa(dp258
g240
I10
sg241
I17
sg242
g243
sg11
g244
sa(dp259
g240
I10
sg241
I4
sg242
g243
sg11
g244
sa(dp260
g240
I10
sg241
I18
sg242
g243
sg11
g244
sa(dp261
g240
I10
sg241
I8
sg242
g243
sg11
g244
sa(dp262
g240
I10
sg241
I19
sg242
g243
sg11
g244
sa(dp263
g240
I10
sg241
I20
sg242
g243
sg11
g244
sa(dp264
g240
I10
sg241
I21
sg242
g243
sg11
g244
sa(dp265
g240
I10
sg241
I22
sg242
g243
sg11
g244
sa(dp266
g240
I10
sg241
I23
sg242
g243
sg11
g244
sa(dp267
g240
I10
sg241
I24
sg242
g243
sg11
g244
sa(dp268
g240
I10
sg241
I25
sg242
g243
sg11
g244
sa(dp269
g240
I10
sg241
I26
sg242
g243
sg11
g244
sa(dp270
g240
I10
sg241
I27
sg242
g243
sg11
g244
sa(dp271
g240
I10
sg241
I28
sg242
g243
sg11
g244
sa(dp272
g240
I10
sg241
I29
sg242
g243
sg11
g244
sa(dp273
g240
I30
sg241
I31
sg242
g243
sg11
g244
sa(dp274
g240
I30
sg241
I32
sg242
g243
sg11
g244
sa(dp275
g240
I30
sg241
I33
sg242
g243
sg11
g244
sa(dp276
g240
I30
sg241
I34
sg242
g243
sg11
g244
sa(dp277
g240
I30
sg241
I35
sg242
g243
sg11
g244
sa(dp278
g240
I30
sg241
I36
sg242
g243
sg11
g244
sa(dp279
g240
I30
sg241
I37
sg242
g243
sg11
g244
sa(dp280
g240
I30
sg241
I38
sg242
g243
sg11
g244
sa(dp281
g240
I30
sg241
I39
sg242
g243
sg11
g244
sa(dp282
g240
I30
sg241
I40
sg242
g243
sg11
g244
sa(dp283
g240
I30
sg241
I41
sg242
g243
sg11
g244
sa(dp284
g240
I30
sg241
I42
sg242
g243
sg11
g244
sa(dp285
g240
I30
sg241
I43
sg242
g243
sg11
g244
sa(dp286
g240
I30
sg241
I44
sg242
g243
sg11
g244
sa(dp287
g240
I30
sg241
I45
sg242
g243
sg11
g244
sa(dp288
g240
I30
sg241
I46
sg242
g243
sg11
g244
sa(dp289
g240
I30
sg241
I24
sg242
g243
sg11
g244
sa(dp290
g240
I30
sg241
I25
sg242
g243
sg11
g244
sa(dp291
g240
I30
sg241
I26
sg242
g243
sg11
g244
sa(dp292
g240
I30
sg241
I27
sg242
g243
sg11
g244
sa(dp293
g240
I30
sg241
I47
sg242
g243
sg11
g244
sa(dp294
g240
I30
sg241
I48
sg242
g243
sg11
g244
sa(dp295
g240
I49
sg241
I50
sg242
g243
sg11
g244
sa(dp296
g240
I49
sg241
I7
sg242
g243
sg11
g244
sa(dp297
g240
I49
sg241
I51
sg242
g243
sg11
g244
sa(dp298
g240
I49
sg241
I52
sg242
g243
sg11
g244
sa(dp299
g240
I49
sg241
I53
sg242
g243
sg11
g244
sa(dp300
g240
I49
sg241
I54
sg242
g243
sg11
g244
sa(dp301
g240
I49
sg241
I55
sg242
g243
sg11
g244
sa(dp302
g240
I49
sg241
I56
sg242
g243
sg11
g244
sa(dp303
g240
I49
sg241
I9
sg242
g243
sg11
g244
sa(dp304
g240
I49
sg241
I57
sg242
g243
sg11
g244
sa(dp305
g240
I49
sg241
I58
sg242
g243
sg11
g244
sa(dp306
g240
I49
sg241
I59
sg242
g243
sg11
g244
sa(dp307
g240
I49
sg241
I60
sg242
g243
sg11
g244
sa(dp308
g240
I49
sg241
I61
sg242
g243
sg11
g244
sa(dp309
g240
I49
sg241
I62
sg242
g243
sg11
g244
sa(dp310
g240
I49
sg241
I63
sg242
g243
sg11
g244
sa(dp311
g240
I49
sg241
I64
sg242
g243
sg11
g244
sa(dp312
g240
I49
sg241
I65
sg242
g243
sg11
g244
sa(dp313
g240
I49
sg241
I66
sg242
g243
sg11
g244
sa(dp314
g240
I49
sg241
I67
sg242
g243
sg11
g244
sa(dp315
g240
I49
sg241
I68
sg242
g243
sg11
g244
sa(dp316
g240
I49
sg241
I69
sg242
g243
sg11
g244
sa(dp317
g240
I49
sg241
I70
sg242
g243
sg11
g244
sa(dp318
g240
I71
sg241
I70
sg242
g243
sg11
g244
sa(dp319
g240
I72
sg241
I73
sg242
g243
sg11
g244
sa(dp320
g240
I74
sg241
I42
sg242
g243
sg11
g244
sa(dp321
g240
I75
sg241
I76
sg242
g243
sg11
g244
sa(dp322
g240
I77
sg241
I78
sg242
g243
sg11
g244
sa(dp323
g240
I79
sg241
I36
sg242
g243
sg11
g244
sa(dp324
g240
I79
sg241
I80
sg242
g243
sg11
g244
sa(dp325
g240
I79
sg241
I81
sg242
g243
sg11
g244
sa(dp326
g240
I82
sg241
I73
sg242
g243
sg11
g244
sa(dp327
g240
I82
sg241
I4
sg242
g243
sg11
g244
sa(dp328
g240
I82
sg241
I57
sg242
g243
sg11
g244
sa(dp329
g240
I83
sg241
I84
sg242
g243
sg11
g244
sa(dp330
g240
I83
sg241
I85
sg242
g243
sg11
g244
sa(dp331
g240
I6
sg241
I85
sg242
g243
sg11
g244
sa(dp332
g240
I86
sg241
I73
sg242
g243
sg11
g244
sa(dp333
g240
I86
sg241
I4
sg242
g243
sg11
g244
sa(dp334
g240
I86
sg241
I57
sg242
g243
sg11
g244
sa(dp335
g240
I87
sg241
I88
sg242
g243
sg11
g244
sa(dp336
g240
I89
sg241
I11
sg242
g243
sg11
g244
sa(dp337
g240
I89
sg241
I12
sg242
g243
sg11
g244
sa(dp338
g240
I89
sg241
I13
sg242
g243
sg11
g244
sa(dp339
g240
I89
sg241
I3
sg242
g243
sg11
g244
sa(dp340
g240
I89
sg241
I14
sg242
g243
sg11
g244
sa(dp341
g240
I89
sg241
I15
sg242
g243
sg11
g244
sa(dp342
g240
I89
sg241
I16
sg242
g243
sg11
g244
sa(dp343
g240
I89
sg241
I17
sg242
g243
sg11
g244
sa(dp344
g240
I89
sg241
I90
sg242
g243
sg11
g244
sa(dp345
g240
I89
sg241
I4
sg242
g243
sg11
g244
sa(dp346
g240
I89
sg241
I18
sg242
g243
sg11
g244
sa(dp347
g240
I89
sg241
I8
sg242
g243
sg11
g244
sa(dp348
g240
I89
sg241
I19
sg242
g243
sg11
g244
sa(dp349
g240
I89
sg241
I20
sg242
g243
sg11
g244
sa(dp350
g240
I89
sg241
I21
sg242
g243
sg11
g244
sa(dp351
g240
I89
sg241
I22
sg242
g243
sg11
g244
sa(dp352
g240
I89
sg241
I23
sg242
g243
sg11
g244
sa(dp353
g240
I89
sg241
I24
sg242
g243
sg11
g244
sa(dp354
g240
I89
sg241
I25
sg242
g243
sg11
g244
sa(dp355
g240
I89
sg241
I26
sg242
g243
sg11
g244
sa(dp356
g240
I89
sg241
I27
sg242
g243
sg11
g244
sa(dp357
g240
I89
sg241
I28
sg242
g243
sg11
g244
sa(dp358
g240
I89
sg241
I29
sg242
g243
sg11
g244
sa(dp359
g240
I91
sg241
I92
sg242
g243
sg11
g244
sa(dp360
g240
I93
sg241
I3
sg242
g243
sg11
g244
sa(dp361
g240
I93
sg241
I94
sg242
g243
sg11
g244
sa(dp362
g240
I93
sg241
I95
sg242
g243
sg11
g244
sa(dp363
g240
I93
sg241
I96
sg242
g243
sg11
g244
sa(dp364
g240
I93
sg241
I68
sg242
g243
sg11
g244
sa(dp365
g240
I97
sg241
I98
sg242
g243
sg11
g244
sa(dp366
g240
I97
sg241
I4
sg242
g243
sg11
g244
sa(dp367
g240
I97
sg241
I57
sg242
g243
sg11
g244
sa(dp368
g240
I99
sg241
I5
sg242
g243
sg11
g244
sa(dp369
g240
I100
sg241
I11
sg242
g243
sg11
g244
sa(dp370
g240
I100
sg241
I12
sg242
g243
sg11
g244
sa(dp371
g240
I100
sg241
I13
sg242
g243
sg11
g244
sa(dp372
g240
I100
sg241
I3
sg242
g243
sg11
g244
sa(dp373
g240
I100
sg241
I14
sg242
g243
sg11
g244
sa(dp374
g240
I100
sg241
I15
sg242
g243
sg11
g244
sa(dp375
g240
I100
sg241
I16
sg242
g243
sg11
g244
sa(dp376
g240
I100
sg241
I17
sg242
g243
sg11
g244
sa(dp377
g240
I100
sg241
I90
sg242
g243
sg11
g244
sa(dp378
g240
I100
sg241
I4
sg242
g243
sg11
g244
sa(dp379
g240
I100
sg241
I18
sg242
g243
sg11
g244
sa(dp380
g240
I100
sg241
I8
sg242
g243
sg11
g244
sa(dp381
g240
I100
sg241
I19
sg242
g243
sg11
g244
sa(dp382
g240
I100
sg241
I20
sg242
g243
sg11
g244
sa(dp383
g240
I100
sg241
I21
sg242
g243
sg11
g244
sa(dp384
g240
I100
sg241
I22
sg242
g243
sg11
g244
sa(dp385
g240
I100
sg241
I24
sg242
g243
sg11
g244
sa(dp386
g240
I100
sg241
I25
sg242
g243
sg11
g244
sa(dp387
g240
I100
sg241
I26
sg242
g243
sg11
g244
sa(dp388
g240
I100
sg241
I27
sg242
g243
sg11
g244
sa(dp389
g240
I100
sg241
I28
sg242
g243
sg11
g244
sa(dp390
g240
I100
sg241
I29
sg242
g243
sg11
g244
sa(dp391
g240
I101
sg241
I42
sg242
g243
sg11
g244
sass.